ARM GAS  /tmp/ccbbxJQL.s 			page 1


   1              		.cpu cortex-m7
   2              		.eabi_attribute 27, 1
   3              		.eabi_attribute 28, 1
   4              		.eabi_attribute 20, 1
   5              		.eabi_attribute 21, 1
   6              		.eabi_attribute 23, 3
   7              		.eabi_attribute 24, 1
   8              		.eabi_attribute 25, 1
   9              		.eabi_attribute 26, 1
  10              		.eabi_attribute 30, 1
  11              		.eabi_attribute 34, 1
  12              		.eabi_attribute 18, 4
  13              		.file	"adc.c"
  14              		.text
  15              	.Ltext0:
  16              		.cfi_sections	.debug_frame
  17              		.section	.text.MX_ADC3_Init,"ax",%progbits
  18              		.align	1
  19              		.global	MX_ADC3_Init
  20              		.syntax unified
  21              		.thumb
  22              		.thumb_func
  23              		.fpu fpv5-sp-d16
  25              	MX_ADC3_Init:
  26              	.LFB138:
  27              		.file 1 "Src/adc.c"
   1:Src/adc.c     **** /**
   2:Src/adc.c     ****   ******************************************************************************
   3:Src/adc.c     ****   * File Name          : ADC.c
   4:Src/adc.c     ****   * Description        : This file provides code for the configuration
   5:Src/adc.c     ****   *                      of the ADC instances.
   6:Src/adc.c     ****   ******************************************************************************
   7:Src/adc.c     ****   * This notice applies to any and all portions of this file
   8:Src/adc.c     ****   * that are not between comment pairs USER CODE BEGIN and
   9:Src/adc.c     ****   * USER CODE END. Other portions of this file, whether 
  10:Src/adc.c     ****   * inserted by the user or by software development tools
  11:Src/adc.c     ****   * are owned by their respective copyright owners.
  12:Src/adc.c     ****   *
  13:Src/adc.c     ****   * Copyright (c) 2018 STMicroelectronics International N.V. 
  14:Src/adc.c     ****   * All rights reserved.
  15:Src/adc.c     ****   *
  16:Src/adc.c     ****   * Redistribution and use in source and binary forms, with or without 
  17:Src/adc.c     ****   * modification, are permitted, provided that the following conditions are met:
  18:Src/adc.c     ****   *
  19:Src/adc.c     ****   * 1. Redistribution of source code must retain the above copyright notice, 
  20:Src/adc.c     ****   *    this list of conditions and the following disclaimer.
  21:Src/adc.c     ****   * 2. Redistributions in binary form must reproduce the above copyright notice,
  22:Src/adc.c     ****   *    this list of conditions and the following disclaimer in the documentation
  23:Src/adc.c     ****   *    and/or other materials provided with the distribution.
  24:Src/adc.c     ****   * 3. Neither the name of STMicroelectronics nor the names of other 
  25:Src/adc.c     ****   *    contributors to this software may be used to endorse or promote products 
  26:Src/adc.c     ****   *    derived from this software without specific written permission.
  27:Src/adc.c     ****   * 4. This software, including modifications and/or derivative works of this 
  28:Src/adc.c     ****   *    software, must execute solely and exclusively on microcontroller or
  29:Src/adc.c     ****   *    microprocessor devices manufactured by or for STMicroelectronics.
  30:Src/adc.c     ****   * 5. Redistribution and use of this software other than as permitted under 
  31:Src/adc.c     ****   *    this license is void and will automatically terminate your rights under 
ARM GAS  /tmp/ccbbxJQL.s 			page 2


  32:Src/adc.c     ****   *    this license. 
  33:Src/adc.c     ****   *
  34:Src/adc.c     ****   * THIS SOFTWARE IS PROVIDED BY STMICROELECTRONICS AND CONTRIBUTORS "AS IS" 
  35:Src/adc.c     ****   * AND ANY EXPRESS, IMPLIED OR STATUTORY WARRANTIES, INCLUDING, BUT NOT 
  36:Src/adc.c     ****   * LIMITED TO, THE IMPLIED WARRANTIES OF MERCHANTABILITY, FITNESS FOR A 
  37:Src/adc.c     ****   * PARTICULAR PURPOSE AND NON-INFRINGEMENT OF THIRD PARTY INTELLECTUAL PROPERTY
  38:Src/adc.c     ****   * RIGHTS ARE DISCLAIMED TO THE FULLEST EXTENT PERMITTED BY LAW. IN NO EVENT 
  39:Src/adc.c     ****   * SHALL STMICROELECTRONICS OR CONTRIBUTORS BE LIABLE FOR ANY DIRECT, INDIRECT,
  40:Src/adc.c     ****   * INCIDENTAL, SPECIAL, EXEMPLARY, OR CONSEQUENTIAL DAMAGES (INCLUDING, BUT NOT
  41:Src/adc.c     ****   * LIMITED TO, PROCUREMENT OF SUBSTITUTE GOODS OR SERVICES; LOSS OF USE, DATA, 
  42:Src/adc.c     ****   * OR PROFITS; OR BUSINESS INTERRUPTION) HOWEVER CAUSED AND ON ANY THEORY OF 
  43:Src/adc.c     ****   * LIABILITY, WHETHER IN CONTRACT, STRICT LIABILITY, OR TORT (INCLUDING 
  44:Src/adc.c     ****   * NEGLIGENCE OR OTHERWISE) ARISING IN ANY WAY OUT OF THE USE OF THIS SOFTWARE,
  45:Src/adc.c     ****   * EVEN IF ADVISED OF THE POSSIBILITY OF SUCH DAMAGE.
  46:Src/adc.c     ****   *
  47:Src/adc.c     ****   ******************************************************************************
  48:Src/adc.c     ****   */
  49:Src/adc.c     **** 
  50:Src/adc.c     **** /* Includes ------------------------------------------------------------------*/
  51:Src/adc.c     **** #include "adc.h"
  52:Src/adc.c     **** 
  53:Src/adc.c     **** #include "gpio.h"
  54:Src/adc.c     **** 
  55:Src/adc.c     **** /* USER CODE BEGIN 0 */
  56:Src/adc.c     **** 
  57:Src/adc.c     **** /* USER CODE END 0 */
  58:Src/adc.c     **** 
  59:Src/adc.c     **** ADC_HandleTypeDef hadc3;
  60:Src/adc.c     **** 
  61:Src/adc.c     **** /* ADC3 init function */
  62:Src/adc.c     **** void MX_ADC3_Init(void)
  63:Src/adc.c     **** {
  28              		.loc 1 63 0
  29              		.cfi_startproc
  30              		@ args = 0, pretend = 0, frame = 16
  31              		@ frame_needed = 0, uses_anonymous_args = 0
  32 0000 00B5     		push	{lr}
  33              	.LCFI0:
  34              		.cfi_def_cfa_offset 4
  35              		.cfi_offset 14, -4
  36 0002 85B0     		sub	sp, sp, #20
  37              	.LCFI1:
  38              		.cfi_def_cfa_offset 24
  64:Src/adc.c     ****   ADC_ChannelConfTypeDef sConfig;
  65:Src/adc.c     **** 
  66:Src/adc.c     ****     /**Configure the global features of the ADC (Clock, Resolution, Data Alignment and number of co
  67:Src/adc.c     ****     */
  68:Src/adc.c     ****   hadc3.Instance = ADC3;
  39              		.loc 1 68 0
  40 0004 1648     		ldr	r0, .L7
  41 0006 174B     		ldr	r3, .L7+4
  42 0008 0360     		str	r3, [r0]
  69:Src/adc.c     ****   hadc3.Init.ClockPrescaler = ADC_CLOCK_SYNC_PCLK_DIV4;
  43              		.loc 1 69 0
  44 000a 4FF48033 		mov	r3, #65536
  45 000e 4360     		str	r3, [r0, #4]
  70:Src/adc.c     ****   hadc3.Init.Resolution = ADC_RESOLUTION_12B;
ARM GAS  /tmp/ccbbxJQL.s 			page 3


  46              		.loc 1 70 0
  47 0010 0023     		movs	r3, #0
  48 0012 8360     		str	r3, [r0, #8]
  71:Src/adc.c     ****   hadc3.Init.ScanConvMode = DISABLE;
  49              		.loc 1 71 0
  50 0014 0361     		str	r3, [r0, #16]
  72:Src/adc.c     ****   hadc3.Init.ContinuousConvMode = DISABLE;
  51              		.loc 1 72 0
  52 0016 8361     		str	r3, [r0, #24]
  73:Src/adc.c     ****   hadc3.Init.DiscontinuousConvMode = DISABLE;
  53              		.loc 1 73 0
  54 0018 0362     		str	r3, [r0, #32]
  74:Src/adc.c     ****   hadc3.Init.ExternalTrigConvEdge = ADC_EXTERNALTRIGCONVEDGE_NONE;
  55              		.loc 1 74 0
  56 001a C362     		str	r3, [r0, #44]
  75:Src/adc.c     ****   hadc3.Init.ExternalTrigConv = ADC_SOFTWARE_START;
  57              		.loc 1 75 0
  58 001c 124A     		ldr	r2, .L7+8
  59 001e 8262     		str	r2, [r0, #40]
  76:Src/adc.c     ****   hadc3.Init.DataAlign = ADC_DATAALIGN_RIGHT;
  60              		.loc 1 76 0
  61 0020 C360     		str	r3, [r0, #12]
  77:Src/adc.c     ****   hadc3.Init.NbrOfConversion = 1;
  62              		.loc 1 77 0
  63 0022 0122     		movs	r2, #1
  64 0024 C261     		str	r2, [r0, #28]
  78:Src/adc.c     ****   hadc3.Init.DMAContinuousRequests = DISABLE;
  65              		.loc 1 78 0
  66 0026 0363     		str	r3, [r0, #48]
  79:Src/adc.c     ****   hadc3.Init.EOCSelection = ADC_EOC_SINGLE_CONV;
  67              		.loc 1 79 0
  68 0028 4261     		str	r2, [r0, #20]
  80:Src/adc.c     ****   if (HAL_ADC_Init(&hadc3) != HAL_OK)
  69              		.loc 1 80 0
  70 002a FFF7FEFF 		bl	HAL_ADC_Init
  71              	.LVL0:
  72 002e 68B9     		cbnz	r0, .L5
  73              	.L2:
  81:Src/adc.c     ****   {
  82:Src/adc.c     ****     _Error_Handler(__FILE__, __LINE__);
  83:Src/adc.c     ****   }
  84:Src/adc.c     **** 
  85:Src/adc.c     ****     /**Configure for the selected ADC regular channel its corresponding rank in the sequencer and i
  86:Src/adc.c     ****     */
  87:Src/adc.c     ****   sConfig.Channel = ADC_CHANNEL_4;
  74              		.loc 1 87 0
  75 0030 0423     		movs	r3, #4
  76 0032 0093     		str	r3, [sp]
  88:Src/adc.c     ****   sConfig.Rank = ADC_REGULAR_RANK_1;
  77              		.loc 1 88 0
  78 0034 0123     		movs	r3, #1
  79 0036 0193     		str	r3, [sp, #4]
  89:Src/adc.c     ****   sConfig.SamplingTime = ADC_SAMPLETIME_3CYCLES;
  80              		.loc 1 89 0
  81 0038 0023     		movs	r3, #0
  82 003a 0293     		str	r3, [sp, #8]
  90:Src/adc.c     ****   if (HAL_ADC_ConfigChannel(&hadc3, &sConfig) != HAL_OK)
ARM GAS  /tmp/ccbbxJQL.s 			page 4


  83              		.loc 1 90 0
  84 003c 6946     		mov	r1, sp
  85 003e 0848     		ldr	r0, .L7
  86 0040 FFF7FEFF 		bl	HAL_ADC_ConfigChannel
  87              	.LVL1:
  88 0044 38B9     		cbnz	r0, .L6
  89              	.L1:
  91:Src/adc.c     ****   {
  92:Src/adc.c     ****     _Error_Handler(__FILE__, __LINE__);
  93:Src/adc.c     ****   }
  94:Src/adc.c     **** 
  95:Src/adc.c     **** }
  90              		.loc 1 95 0
  91 0046 05B0     		add	sp, sp, #20
  92              	.LCFI2:
  93              		.cfi_remember_state
  94              		.cfi_def_cfa_offset 4
  95              		@ sp needed
  96 0048 5DF804FB 		ldr	pc, [sp], #4
  97              	.L5:
  98              	.LCFI3:
  99              		.cfi_restore_state
  82:Src/adc.c     ****   }
 100              		.loc 1 82 0
 101 004c 5221     		movs	r1, #82
 102 004e 0748     		ldr	r0, .L7+12
 103 0050 FFF7FEFF 		bl	_Error_Handler
 104              	.LVL2:
 105 0054 ECE7     		b	.L2
 106              	.L6:
  92:Src/adc.c     ****   }
 107              		.loc 1 92 0
 108 0056 5C21     		movs	r1, #92
 109 0058 0448     		ldr	r0, .L7+12
 110 005a FFF7FEFF 		bl	_Error_Handler
 111              	.LVL3:
 112              		.loc 1 95 0
 113 005e F2E7     		b	.L1
 114              	.L8:
 115              		.align	2
 116              	.L7:
 117 0060 00000000 		.word	hadc3
 118 0064 00220140 		.word	1073816064
 119 0068 0100000F 		.word	251658241
 120 006c 00000000 		.word	.LC0
 121              		.cfi_endproc
 122              	.LFE138:
 124              		.section	.text.HAL_ADC_MspInit,"ax",%progbits
 125              		.align	1
 126              		.global	HAL_ADC_MspInit
 127              		.syntax unified
 128              		.thumb
 129              		.thumb_func
 130              		.fpu fpv5-sp-d16
 132              	HAL_ADC_MspInit:
 133              	.LFB139:
  96:Src/adc.c     **** 
ARM GAS  /tmp/ccbbxJQL.s 			page 5


  97:Src/adc.c     **** void HAL_ADC_MspInit(ADC_HandleTypeDef* adcHandle)
  98:Src/adc.c     **** {
 134              		.loc 1 98 0
 135              		.cfi_startproc
 136              		@ args = 0, pretend = 0, frame = 24
 137              		@ frame_needed = 0, uses_anonymous_args = 0
 138              	.LVL4:
  99:Src/adc.c     **** 
 100:Src/adc.c     ****   GPIO_InitTypeDef GPIO_InitStruct;
 101:Src/adc.c     ****   if(adcHandle->Instance==ADC3)
 139              		.loc 1 101 0
 140 0000 0268     		ldr	r2, [r0]
 141 0002 134B     		ldr	r3, .L16
 142 0004 9A42     		cmp	r2, r3
 143 0006 00D0     		beq	.L15
 144 0008 7047     		bx	lr
 145              	.L15:
  98:Src/adc.c     **** 
 146              		.loc 1 98 0
 147 000a 30B5     		push	{r4, r5, lr}
 148              	.LCFI4:
 149              		.cfi_def_cfa_offset 12
 150              		.cfi_offset 4, -12
 151              		.cfi_offset 5, -8
 152              		.cfi_offset 14, -4
 153 000c 87B0     		sub	sp, sp, #28
 154              	.LCFI5:
 155              		.cfi_def_cfa_offset 40
 156              	.LBB2:
 102:Src/adc.c     ****   {
 103:Src/adc.c     ****   /* USER CODE BEGIN ADC3_MspInit 0 */
 104:Src/adc.c     **** 
 105:Src/adc.c     ****   /* USER CODE END ADC3_MspInit 0 */
 106:Src/adc.c     ****     /* ADC3 clock enable */
 107:Src/adc.c     ****     __HAL_RCC_ADC3_CLK_ENABLE();
 157              		.loc 1 107 0
 158 000e 03F58B33 		add	r3, r3, #71168
 159 0012 5A6C     		ldr	r2, [r3, #68]
 160 0014 42F48062 		orr	r2, r2, #1024
 161 0018 5A64     		str	r2, [r3, #68]
 162 001a 5B6C     		ldr	r3, [r3, #68]
 163 001c 03F48063 		and	r3, r3, #1024
 164 0020 0093     		str	r3, [sp]
 165 0022 009B     		ldr	r3, [sp]
 166              	.LBE2:
 108:Src/adc.c     ****   
 109:Src/adc.c     ****     /**ADC3 GPIO Configuration    
 110:Src/adc.c     ****     PF7     ------> ADC3_IN5
 111:Src/adc.c     ****     PF6     ------> ADC3_IN4
 112:Src/adc.c     ****     PF10     ------> ADC3_IN8
 113:Src/adc.c     ****     PF9     ------> ADC3_IN7
 114:Src/adc.c     ****     PF8     ------> ADC3_IN6
 115:Src/adc.c     ****     PA0/WKUP     ------> ADC3_IN0 
 116:Src/adc.c     ****     */
 117:Src/adc.c     ****     GPIO_InitStruct.Pin = ARDUINO_A4_Pin|ARDUINO_A5_Pin|ARDUINO_A1_Pin|ARDUINO_A2_Pin 
 167              		.loc 1 117 0
 168 0024 4FF4F863 		mov	r3, #1984
ARM GAS  /tmp/ccbbxJQL.s 			page 6


 169 0028 0193     		str	r3, [sp, #4]
 118:Src/adc.c     ****                           |ARDUINO_A3_Pin;
 119:Src/adc.c     ****     GPIO_InitStruct.Mode = GPIO_MODE_ANALOG;
 170              		.loc 1 119 0
 171 002a 0325     		movs	r5, #3
 172 002c 0295     		str	r5, [sp, #8]
 120:Src/adc.c     ****     GPIO_InitStruct.Pull = GPIO_NOPULL;
 173              		.loc 1 120 0
 174 002e 0024     		movs	r4, #0
 175 0030 0394     		str	r4, [sp, #12]
 121:Src/adc.c     ****     HAL_GPIO_Init(GPIOF, &GPIO_InitStruct);
 176              		.loc 1 121 0
 177 0032 01A9     		add	r1, sp, #4
 178 0034 0748     		ldr	r0, .L16+4
 179              	.LVL5:
 180 0036 FFF7FEFF 		bl	HAL_GPIO_Init
 181              	.LVL6:
 122:Src/adc.c     **** 
 123:Src/adc.c     ****     GPIO_InitStruct.Pin = ARDUINO_A0_Pin;
 182              		.loc 1 123 0
 183 003a 0123     		movs	r3, #1
 184 003c 0193     		str	r3, [sp, #4]
 124:Src/adc.c     ****     GPIO_InitStruct.Mode = GPIO_MODE_ANALOG;
 185              		.loc 1 124 0
 186 003e 0295     		str	r5, [sp, #8]
 125:Src/adc.c     ****     GPIO_InitStruct.Pull = GPIO_NOPULL;
 187              		.loc 1 125 0
 188 0040 0394     		str	r4, [sp, #12]
 126:Src/adc.c     ****     HAL_GPIO_Init(ARDUINO_A0_GPIO_Port, &GPIO_InitStruct);
 189              		.loc 1 126 0
 190 0042 01A9     		add	r1, sp, #4
 191 0044 0448     		ldr	r0, .L16+8
 192 0046 FFF7FEFF 		bl	HAL_GPIO_Init
 193              	.LVL7:
 127:Src/adc.c     **** 
 128:Src/adc.c     ****   /* USER CODE BEGIN ADC3_MspInit 1 */
 129:Src/adc.c     **** 
 130:Src/adc.c     ****   /* USER CODE END ADC3_MspInit 1 */
 131:Src/adc.c     ****   }
 132:Src/adc.c     **** }
 194              		.loc 1 132 0
 195 004a 07B0     		add	sp, sp, #28
 196              	.LCFI6:
 197              		.cfi_def_cfa_offset 12
 198              		@ sp needed
 199 004c 30BD     		pop	{r4, r5, pc}
 200              	.L17:
 201 004e 00BF     		.align	2
 202              	.L16:
 203 0050 00220140 		.word	1073816064
 204 0054 00140240 		.word	1073878016
 205 0058 00000240 		.word	1073872896
 206              		.cfi_endproc
 207              	.LFE139:
 209              		.section	.text.HAL_ADC_MspDeInit,"ax",%progbits
 210              		.align	1
 211              		.global	HAL_ADC_MspDeInit
ARM GAS  /tmp/ccbbxJQL.s 			page 7


 212              		.syntax unified
 213              		.thumb
 214              		.thumb_func
 215              		.fpu fpv5-sp-d16
 217              	HAL_ADC_MspDeInit:
 218              	.LFB140:
 133:Src/adc.c     **** 
 134:Src/adc.c     **** void HAL_ADC_MspDeInit(ADC_HandleTypeDef* adcHandle)
 135:Src/adc.c     **** {
 219              		.loc 1 135 0
 220              		.cfi_startproc
 221              		@ args = 0, pretend = 0, frame = 0
 222              		@ frame_needed = 0, uses_anonymous_args = 0
 223              	.LVL8:
 224 0000 08B5     		push	{r3, lr}
 225              	.LCFI7:
 226              		.cfi_def_cfa_offset 8
 227              		.cfi_offset 3, -8
 228              		.cfi_offset 14, -4
 136:Src/adc.c     **** 
 137:Src/adc.c     ****   if(adcHandle->Instance==ADC3)
 229              		.loc 1 137 0
 230 0002 0268     		ldr	r2, [r0]
 231 0004 094B     		ldr	r3, .L22
 232 0006 9A42     		cmp	r2, r3
 233 0008 00D0     		beq	.L21
 234              	.LVL9:
 235              	.L18:
 138:Src/adc.c     ****   {
 139:Src/adc.c     ****   /* USER CODE BEGIN ADC3_MspDeInit 0 */
 140:Src/adc.c     **** 
 141:Src/adc.c     ****   /* USER CODE END ADC3_MspDeInit 0 */
 142:Src/adc.c     ****     /* Peripheral clock disable */
 143:Src/adc.c     ****     __HAL_RCC_ADC3_CLK_DISABLE();
 144:Src/adc.c     ****   
 145:Src/adc.c     ****     /**ADC3 GPIO Configuration    
 146:Src/adc.c     ****     PF7     ------> ADC3_IN5
 147:Src/adc.c     ****     PF6     ------> ADC3_IN4
 148:Src/adc.c     ****     PF10     ------> ADC3_IN8
 149:Src/adc.c     ****     PF9     ------> ADC3_IN7
 150:Src/adc.c     ****     PF8     ------> ADC3_IN6
 151:Src/adc.c     ****     PA0/WKUP     ------> ADC3_IN0 
 152:Src/adc.c     ****     */
 153:Src/adc.c     ****     HAL_GPIO_DeInit(GPIOF, ARDUINO_A4_Pin|ARDUINO_A5_Pin|ARDUINO_A1_Pin|ARDUINO_A2_Pin 
 154:Src/adc.c     ****                           |ARDUINO_A3_Pin);
 155:Src/adc.c     **** 
 156:Src/adc.c     ****     HAL_GPIO_DeInit(ARDUINO_A0_GPIO_Port, ARDUINO_A0_Pin);
 157:Src/adc.c     **** 
 158:Src/adc.c     ****   /* USER CODE BEGIN ADC3_MspDeInit 1 */
 159:Src/adc.c     **** 
 160:Src/adc.c     ****   /* USER CODE END ADC3_MspDeInit 1 */
 161:Src/adc.c     ****   }
 162:Src/adc.c     **** } 
 236              		.loc 1 162 0
 237 000a 08BD     		pop	{r3, pc}
 238              	.LVL10:
 239              	.L21:
ARM GAS  /tmp/ccbbxJQL.s 			page 8


 143:Src/adc.c     ****   
 240              		.loc 1 143 0
 241 000c 084A     		ldr	r2, .L22+4
 242 000e 536C     		ldr	r3, [r2, #68]
 243 0010 23F48063 		bic	r3, r3, #1024
 244 0014 5364     		str	r3, [r2, #68]
 153:Src/adc.c     ****                           |ARDUINO_A3_Pin);
 245              		.loc 1 153 0
 246 0016 4FF4F861 		mov	r1, #1984
 247 001a 0648     		ldr	r0, .L22+8
 248              	.LVL11:
 249 001c FFF7FEFF 		bl	HAL_GPIO_DeInit
 250              	.LVL12:
 156:Src/adc.c     **** 
 251              		.loc 1 156 0
 252 0020 0121     		movs	r1, #1
 253 0022 0548     		ldr	r0, .L22+12
 254 0024 FFF7FEFF 		bl	HAL_GPIO_DeInit
 255              	.LVL13:
 256              		.loc 1 162 0
 257 0028 EFE7     		b	.L18
 258              	.L23:
 259 002a 00BF     		.align	2
 260              	.L22:
 261 002c 00220140 		.word	1073816064
 262 0030 00380240 		.word	1073887232
 263 0034 00140240 		.word	1073878016
 264 0038 00000240 		.word	1073872896
 265              		.cfi_endproc
 266              	.LFE140:
 268              		.comm	hadc3,72,4
 269              		.section	.rodata.MX_ADC3_Init.str1.4,"aMS",%progbits,1
 270              		.align	2
 271              	.LC0:
 272 0000 5372632F 		.ascii	"Src/adc.c\000"
 272      6164632E 
 272      6300
 273              		.text
 274              	.Letext0:
 275              		.file 2 "/home/warranyu/opt/gcc-arm-none-eabi-7-2018-q2-update/arm-none-eabi/include/machine/_defa
 276              		.file 3 "/home/warranyu/opt/gcc-arm-none-eabi-7-2018-q2-update/arm-none-eabi/include/sys/_stdint.h
 277              		.file 4 "Drivers/CMSIS/Include/core_cm7.h"
 278              		.file 5 "Drivers/CMSIS/Device/ST/STM32F7xx/Include/system_stm32f7xx.h"
 279              		.file 6 "Drivers/CMSIS/Device/ST/STM32F7xx/Include/stm32f746xx.h"
 280              		.file 7 "/home/warranyu/opt/gcc-arm-none-eabi-7-2018-q2-update/arm-none-eabi/include/sys/lock.h"
 281              		.file 8 "/home/warranyu/opt/gcc-arm-none-eabi-7-2018-q2-update/arm-none-eabi/include/sys/_types.h"
 282              		.file 9 "/home/warranyu/opt/gcc-arm-none-eabi-7-2018-q2-update/lib/gcc/arm-none-eabi/7.3.1/include
 283              		.file 10 "/home/warranyu/opt/gcc-arm-none-eabi-7-2018-q2-update/arm-none-eabi/include/sys/reent.h"
 284              		.file 11 "Drivers/CMSIS/Device/ST/STM32F7xx/Include/stm32f7xx.h"
 285              		.file 12 "Drivers/STM32F7xx_HAL_Driver/Inc/stm32f7xx_hal_def.h"
 286              		.file 13 "Drivers/STM32F7xx_HAL_Driver/Inc/stm32f7xx_hal_gpio.h"
 287              		.file 14 "Drivers/STM32F7xx_HAL_Driver/Inc/stm32f7xx_hal_dma.h"
 288              		.file 15 "Drivers/STM32F7xx_HAL_Driver/Inc/stm32f7xx_hal_adc.h"
 289              		.file 16 "Inc/adc.h"
ARM GAS  /tmp/ccbbxJQL.s 			page 9

