ARM GAS  /tmp/ccbUeHZf.s 			page 1


   1              		.cpu cortex-m7
   2              		.eabi_attribute 27, 1
   3              		.eabi_attribute 28, 1
   4              		.eabi_attribute 20, 1
   5              		.eabi_attribute 21, 1
   6              		.eabi_attribute 23, 3
   7              		.eabi_attribute 24, 1
   8              		.eabi_attribute 25, 1
   9              		.eabi_attribute 26, 1
  10              		.eabi_attribute 30, 1
  11              		.eabi_attribute 34, 1
  12              		.eabi_attribute 18, 4
  13              		.file	"gpio.c"
  14              		.text
  15              	.Ltext0:
  16              		.cfi_sections	.debug_frame
  17              		.section	.text.MX_GPIO_Init,"ax",%progbits
  18              		.align	1
  19              		.global	MX_GPIO_Init
  20              		.syntax unified
  21              		.thumb
  22              		.thumb_func
  23              		.fpu fpv5-sp-d16
  25              	MX_GPIO_Init:
  26              	.LFB138:
  27              		.file 1 "Src/gpio.c"
   1:Src/gpio.c    **** /**
   2:Src/gpio.c    ****   ******************************************************************************
   3:Src/gpio.c    ****   * File Name          : gpio.c
   4:Src/gpio.c    ****   * Description        : This file provides code for the configuration
   5:Src/gpio.c    ****   *                      of all used GPIO pins.
   6:Src/gpio.c    ****   ******************************************************************************
   7:Src/gpio.c    ****   * This notice applies to any and all portions of this file
   8:Src/gpio.c    ****   * that are not between comment pairs USER CODE BEGIN and
   9:Src/gpio.c    ****   * USER CODE END. Other portions of this file, whether 
  10:Src/gpio.c    ****   * inserted by the user or by software development tools
  11:Src/gpio.c    ****   * are owned by their respective copyright owners.
  12:Src/gpio.c    ****   *
  13:Src/gpio.c    ****   * Copyright (c) 2018 STMicroelectronics International N.V. 
  14:Src/gpio.c    ****   * All rights reserved.
  15:Src/gpio.c    ****   *
  16:Src/gpio.c    ****   * Redistribution and use in source and binary forms, with or without 
  17:Src/gpio.c    ****   * modification, are permitted, provided that the following conditions are met:
  18:Src/gpio.c    ****   *
  19:Src/gpio.c    ****   * 1. Redistribution of source code must retain the above copyright notice, 
  20:Src/gpio.c    ****   *    this list of conditions and the following disclaimer.
  21:Src/gpio.c    ****   * 2. Redistributions in binary form must reproduce the above copyright notice,
  22:Src/gpio.c    ****   *    this list of conditions and the following disclaimer in the documentation
  23:Src/gpio.c    ****   *    and/or other materials provided with the distribution.
  24:Src/gpio.c    ****   * 3. Neither the name of STMicroelectronics nor the names of other 
  25:Src/gpio.c    ****   *    contributors to this software may be used to endorse or promote products 
  26:Src/gpio.c    ****   *    derived from this software without specific written permission.
  27:Src/gpio.c    ****   * 4. This software, including modifications and/or derivative works of this 
  28:Src/gpio.c    ****   *    software, must execute solely and exclusively on microcontroller or
  29:Src/gpio.c    ****   *    microprocessor devices manufactured by or for STMicroelectronics.
  30:Src/gpio.c    ****   * 5. Redistribution and use of this software other than as permitted under 
  31:Src/gpio.c    ****   *    this license is void and will automatically terminate your rights under 
ARM GAS  /tmp/ccbUeHZf.s 			page 2


  32:Src/gpio.c    ****   *    this license. 
  33:Src/gpio.c    ****   *
  34:Src/gpio.c    ****   * THIS SOFTWARE IS PROVIDED BY STMICROELECTRONICS AND CONTRIBUTORS "AS IS" 
  35:Src/gpio.c    ****   * AND ANY EXPRESS, IMPLIED OR STATUTORY WARRANTIES, INCLUDING, BUT NOT 
  36:Src/gpio.c    ****   * LIMITED TO, THE IMPLIED WARRANTIES OF MERCHANTABILITY, FITNESS FOR A 
  37:Src/gpio.c    ****   * PARTICULAR PURPOSE AND NON-INFRINGEMENT OF THIRD PARTY INTELLECTUAL PROPERTY
  38:Src/gpio.c    ****   * RIGHTS ARE DISCLAIMED TO THE FULLEST EXTENT PERMITTED BY LAW. IN NO EVENT 
  39:Src/gpio.c    ****   * SHALL STMICROELECTRONICS OR CONTRIBUTORS BE LIABLE FOR ANY DIRECT, INDIRECT,
  40:Src/gpio.c    ****   * INCIDENTAL, SPECIAL, EXEMPLARY, OR CONSEQUENTIAL DAMAGES (INCLUDING, BUT NOT
  41:Src/gpio.c    ****   * LIMITED TO, PROCUREMENT OF SUBSTITUTE GOODS OR SERVICES; LOSS OF USE, DATA, 
  42:Src/gpio.c    ****   * OR PROFITS; OR BUSINESS INTERRUPTION) HOWEVER CAUSED AND ON ANY THEORY OF 
  43:Src/gpio.c    ****   * LIABILITY, WHETHER IN CONTRACT, STRICT LIABILITY, OR TORT (INCLUDING 
  44:Src/gpio.c    ****   * NEGLIGENCE OR OTHERWISE) ARISING IN ANY WAY OUT OF THE USE OF THIS SOFTWARE,
  45:Src/gpio.c    ****   * EVEN IF ADVISED OF THE POSSIBILITY OF SUCH DAMAGE.
  46:Src/gpio.c    ****   *
  47:Src/gpio.c    ****   ******************************************************************************
  48:Src/gpio.c    ****   */
  49:Src/gpio.c    **** 
  50:Src/gpio.c    **** /* Includes ------------------------------------------------------------------*/
  51:Src/gpio.c    **** #include "gpio.h"
  52:Src/gpio.c    **** /* USER CODE BEGIN 0 */
  53:Src/gpio.c    **** 
  54:Src/gpio.c    **** /* USER CODE END 0 */
  55:Src/gpio.c    **** 
  56:Src/gpio.c    **** /*----------------------------------------------------------------------------*/
  57:Src/gpio.c    **** /* Configure GPIO                                                             */
  58:Src/gpio.c    **** /*----------------------------------------------------------------------------*/
  59:Src/gpio.c    **** /* USER CODE BEGIN 1 */
  60:Src/gpio.c    **** 
  61:Src/gpio.c    **** /* USER CODE END 1 */
  62:Src/gpio.c    **** 
  63:Src/gpio.c    **** /** Configure pins as 
  64:Src/gpio.c    ****         * Analog 
  65:Src/gpio.c    ****         * Input 
  66:Src/gpio.c    ****         * Output
  67:Src/gpio.c    ****         * EVENT_OUT
  68:Src/gpio.c    ****         * EXTI
  69:Src/gpio.c    **** */
  70:Src/gpio.c    **** void MX_GPIO_Init(void)
  71:Src/gpio.c    **** {
  28              		.loc 1 71 0
  29              		.cfi_startproc
  30              		@ args = 0, pretend = 0, frame = 64
  31              		@ frame_needed = 0, uses_anonymous_args = 0
  32 0000 2DE9F04F 		push	{r4, r5, r6, r7, r8, r9, r10, fp, lr}
  33              	.LCFI0:
  34              		.cfi_def_cfa_offset 36
  35              		.cfi_offset 4, -36
  36              		.cfi_offset 5, -32
  37              		.cfi_offset 6, -28
  38              		.cfi_offset 7, -24
  39              		.cfi_offset 8, -20
  40              		.cfi_offset 9, -16
  41              		.cfi_offset 10, -12
  42              		.cfi_offset 11, -8
  43              		.cfi_offset 14, -4
  44 0004 91B0     		sub	sp, sp, #68
ARM GAS  /tmp/ccbUeHZf.s 			page 3


  45              	.LCFI1:
  46              		.cfi_def_cfa_offset 104
  47              	.LBB2:
  72:Src/gpio.c    **** 
  73:Src/gpio.c    ****   GPIO_InitTypeDef GPIO_InitStruct;
  74:Src/gpio.c    **** 
  75:Src/gpio.c    ****   /* GPIO Ports Clock Enable */
  76:Src/gpio.c    ****   __HAL_RCC_GPIOE_CLK_ENABLE();
  48              		.loc 1 76 0
  49 0006 824B     		ldr	r3, .L3
  50 0008 1A6B     		ldr	r2, [r3, #48]
  51 000a 42F01002 		orr	r2, r2, #16
  52 000e 1A63     		str	r2, [r3, #48]
  53 0010 1A6B     		ldr	r2, [r3, #48]
  54 0012 02F01002 		and	r2, r2, #16
  55 0016 0092     		str	r2, [sp]
  56 0018 009A     		ldr	r2, [sp]
  57              	.LBE2:
  58              	.LBB3:
  77:Src/gpio.c    ****   __HAL_RCC_GPIOG_CLK_ENABLE();
  59              		.loc 1 77 0
  60 001a 1A6B     		ldr	r2, [r3, #48]
  61 001c 42F04002 		orr	r2, r2, #64
  62 0020 1A63     		str	r2, [r3, #48]
  63 0022 1A6B     		ldr	r2, [r3, #48]
  64 0024 02F04002 		and	r2, r2, #64
  65 0028 0192     		str	r2, [sp, #4]
  66 002a 019A     		ldr	r2, [sp, #4]
  67              	.LBE3:
  68              	.LBB4:
  78:Src/gpio.c    ****   __HAL_RCC_GPIOB_CLK_ENABLE();
  69              		.loc 1 78 0
  70 002c 1A6B     		ldr	r2, [r3, #48]
  71 002e 42F00202 		orr	r2, r2, #2
  72 0032 1A63     		str	r2, [r3, #48]
  73 0034 1A6B     		ldr	r2, [r3, #48]
  74 0036 02F00202 		and	r2, r2, #2
  75 003a 0292     		str	r2, [sp, #8]
  76 003c 029A     		ldr	r2, [sp, #8]
  77              	.LBE4:
  78              	.LBB5:
  79:Src/gpio.c    ****   __HAL_RCC_GPIOD_CLK_ENABLE();
  79              		.loc 1 79 0
  80 003e 1A6B     		ldr	r2, [r3, #48]
  81 0040 42F00802 		orr	r2, r2, #8
  82 0044 1A63     		str	r2, [r3, #48]
  83 0046 1A6B     		ldr	r2, [r3, #48]
  84 0048 02F00802 		and	r2, r2, #8
  85 004c 0392     		str	r2, [sp, #12]
  86 004e 039A     		ldr	r2, [sp, #12]
  87              	.LBE5:
  88              	.LBB6:
  80:Src/gpio.c    ****   __HAL_RCC_GPIOC_CLK_ENABLE();
  89              		.loc 1 80 0
  90 0050 1A6B     		ldr	r2, [r3, #48]
  91 0052 42F00402 		orr	r2, r2, #4
  92 0056 1A63     		str	r2, [r3, #48]
ARM GAS  /tmp/ccbUeHZf.s 			page 4


  93 0058 1A6B     		ldr	r2, [r3, #48]
  94 005a 02F00402 		and	r2, r2, #4
  95 005e 0492     		str	r2, [sp, #16]
  96 0060 049A     		ldr	r2, [sp, #16]
  97              	.LBE6:
  98              	.LBB7:
  81:Src/gpio.c    ****   __HAL_RCC_GPIOA_CLK_ENABLE();
  99              		.loc 1 81 0
 100 0062 1A6B     		ldr	r2, [r3, #48]
 101 0064 42F00102 		orr	r2, r2, #1
 102 0068 1A63     		str	r2, [r3, #48]
 103 006a 1A6B     		ldr	r2, [r3, #48]
 104 006c 02F00102 		and	r2, r2, #1
 105 0070 0592     		str	r2, [sp, #20]
 106 0072 059A     		ldr	r2, [sp, #20]
 107              	.LBE7:
 108              	.LBB8:
  82:Src/gpio.c    ****   __HAL_RCC_GPIOJ_CLK_ENABLE();
 109              		.loc 1 82 0
 110 0074 1A6B     		ldr	r2, [r3, #48]
 111 0076 42F40072 		orr	r2, r2, #512
 112 007a 1A63     		str	r2, [r3, #48]
 113 007c 1A6B     		ldr	r2, [r3, #48]
 114 007e 02F40072 		and	r2, r2, #512
 115 0082 0692     		str	r2, [sp, #24]
 116 0084 069A     		ldr	r2, [sp, #24]
 117              	.LBE8:
 118              	.LBB9:
  83:Src/gpio.c    ****   __HAL_RCC_GPIOI_CLK_ENABLE();
 119              		.loc 1 83 0
 120 0086 1A6B     		ldr	r2, [r3, #48]
 121 0088 42F48072 		orr	r2, r2, #256
 122 008c 1A63     		str	r2, [r3, #48]
 123 008e 1A6B     		ldr	r2, [r3, #48]
 124 0090 02F48072 		and	r2, r2, #256
 125 0094 0792     		str	r2, [sp, #28]
 126 0096 079A     		ldr	r2, [sp, #28]
 127              	.LBE9:
 128              	.LBB10:
  84:Src/gpio.c    ****   __HAL_RCC_GPIOK_CLK_ENABLE();
 129              		.loc 1 84 0
 130 0098 1A6B     		ldr	r2, [r3, #48]
 131 009a 42F48062 		orr	r2, r2, #1024
 132 009e 1A63     		str	r2, [r3, #48]
 133 00a0 1A6B     		ldr	r2, [r3, #48]
 134 00a2 02F48062 		and	r2, r2, #1024
 135 00a6 0892     		str	r2, [sp, #32]
 136 00a8 089A     		ldr	r2, [sp, #32]
 137              	.LBE10:
 138              	.LBB11:
  85:Src/gpio.c    ****   __HAL_RCC_GPIOF_CLK_ENABLE();
 139              		.loc 1 85 0
 140 00aa 1A6B     		ldr	r2, [r3, #48]
 141 00ac 42F02002 		orr	r2, r2, #32
 142 00b0 1A63     		str	r2, [r3, #48]
 143 00b2 1A6B     		ldr	r2, [r3, #48]
 144 00b4 02F02002 		and	r2, r2, #32
ARM GAS  /tmp/ccbUeHZf.s 			page 5


 145 00b8 0992     		str	r2, [sp, #36]
 146 00ba 099A     		ldr	r2, [sp, #36]
 147              	.LBE11:
 148              	.LBB12:
  86:Src/gpio.c    ****   __HAL_RCC_GPIOH_CLK_ENABLE();
 149              		.loc 1 86 0
 150 00bc 1A6B     		ldr	r2, [r3, #48]
 151 00be 42F08002 		orr	r2, r2, #128
 152 00c2 1A63     		str	r2, [r3, #48]
 153 00c4 1B6B     		ldr	r3, [r3, #48]
 154 00c6 03F08003 		and	r3, r3, #128
 155 00ca 0A93     		str	r3, [sp, #40]
 156 00cc 0A9B     		ldr	r3, [sp, #40]
 157              	.LBE12:
  87:Src/gpio.c    **** 
  88:Src/gpio.c    ****   /*Configure GPIO pin Output Level */
  89:Src/gpio.c    ****   HAL_GPIO_WritePin(OTG_FS_PowerSwitchOn_GPIO_Port, OTG_FS_PowerSwitchOn_Pin, GPIO_PIN_SET);
 158              		.loc 1 89 0
 159 00ce 514F     		ldr	r7, .L3+4
 160 00d0 0122     		movs	r2, #1
 161 00d2 2021     		movs	r1, #32
 162 00d4 3846     		mov	r0, r7
 163 00d6 FFF7FEFF 		bl	HAL_GPIO_WritePin
 164              	.LVL0:
  90:Src/gpio.c    **** 
  91:Src/gpio.c    ****   /*Configure GPIO pin Output Level */
  92:Src/gpio.c    ****   HAL_GPIO_WritePin(GPIOI, ARDUINO_D7_Pin|ARDUINO_D8_Pin, GPIO_PIN_RESET);
 165              		.loc 1 92 0
 166 00da 4F4E     		ldr	r6, .L3+8
 167 00dc 0022     		movs	r2, #0
 168 00de 0C21     		movs	r1, #12
 169 00e0 3046     		mov	r0, r6
 170 00e2 FFF7FEFF 		bl	HAL_GPIO_WritePin
 171              	.LVL1:
  93:Src/gpio.c    **** 
  94:Src/gpio.c    ****   /*Configure GPIO pin Output Level */
  95:Src/gpio.c    ****   HAL_GPIO_WritePin(LCD_BL_CTRL_GPIO_Port, LCD_BL_CTRL_Pin, GPIO_PIN_SET);
 172              		.loc 1 95 0
 173 00e6 0122     		movs	r2, #1
 174 00e8 0821     		movs	r1, #8
 175 00ea 4C48     		ldr	r0, .L3+12
 176 00ec FFF7FEFF 		bl	HAL_GPIO_WritePin
 177              	.LVL2:
  96:Src/gpio.c    **** 
  97:Src/gpio.c    ****   /*Configure GPIO pin Output Level */
  98:Src/gpio.c    ****   HAL_GPIO_WritePin(LCD_DISP_GPIO_Port, LCD_DISP_Pin, GPIO_PIN_SET);
 178              		.loc 1 98 0
 179 00f0 0122     		movs	r2, #1
 180 00f2 4FF48051 		mov	r1, #4096
 181 00f6 3046     		mov	r0, r6
 182 00f8 FFF7FEFF 		bl	HAL_GPIO_WritePin
 183              	.LVL3:
  99:Src/gpio.c    **** 
 100:Src/gpio.c    ****   /*Configure GPIO pin Output Level */
 101:Src/gpio.c    ****   HAL_GPIO_WritePin(DCMI_PWR_EN_GPIO_Port, DCMI_PWR_EN_Pin, GPIO_PIN_RESET);
 184              		.loc 1 101 0
 185 00fc DFF83091 		ldr	r9, .L3+32
ARM GAS  /tmp/ccbUeHZf.s 			page 6


 186 0100 0022     		movs	r2, #0
 187 0102 4FF40051 		mov	r1, #8192
 188 0106 4846     		mov	r0, r9
 189 0108 FFF7FEFF 		bl	HAL_GPIO_WritePin
 190              	.LVL4:
 102:Src/gpio.c    **** 
 103:Src/gpio.c    ****   /*Configure GPIO pin Output Level */
 104:Src/gpio.c    ****   HAL_GPIO_WritePin(GPIOG, ARDUINO_D4_Pin|ARDUINO_D2_Pin|EXT_RST_Pin, GPIO_PIN_RESET);
 191              		.loc 1 104 0
 192 010c 0022     		movs	r2, #0
 193 010e C821     		movs	r1, #200
 194 0110 4348     		ldr	r0, .L3+16
 195 0112 FFF7FEFF 		bl	HAL_GPIO_WritePin
 196              	.LVL5:
 105:Src/gpio.c    **** 
 106:Src/gpio.c    ****   /*Configure GPIO pin : PtPin */
 107:Src/gpio.c    ****   GPIO_InitStruct.Pin = OTG_HS_OverCurrent_Pin;
 197              		.loc 1 107 0
 198 0116 4FF0080B 		mov	fp, #8
 199 011a CDF82CB0 		str	fp, [sp, #44]
 108:Src/gpio.c    ****   GPIO_InitStruct.Mode = GPIO_MODE_INPUT;
 200              		.loc 1 108 0
 201 011e 0024     		movs	r4, #0
 202 0120 0C94     		str	r4, [sp, #48]
 109:Src/gpio.c    ****   GPIO_InitStruct.Pull = GPIO_NOPULL;
 203              		.loc 1 109 0
 204 0122 0D94     		str	r4, [sp, #52]
 110:Src/gpio.c    ****   HAL_GPIO_Init(OTG_HS_OverCurrent_GPIO_Port, &GPIO_InitStruct);
 205              		.loc 1 110 0
 206 0124 0BA9     		add	r1, sp, #44
 207 0126 3F48     		ldr	r0, .L3+20
 208 0128 FFF7FEFF 		bl	HAL_GPIO_Init
 209              	.LVL6:
 111:Src/gpio.c    **** 
 112:Src/gpio.c    ****   /*Configure GPIO pin : PtPin */
 113:Src/gpio.c    ****   GPIO_InitStruct.Pin = OTG_FS_VBUS_Pin;
 210              		.loc 1 113 0
 211 012c 4FF48053 		mov	r3, #4096
 212 0130 0B93     		str	r3, [sp, #44]
 114:Src/gpio.c    ****   GPIO_InitStruct.Mode = GPIO_MODE_INPUT;
 213              		.loc 1 114 0
 214 0132 0C94     		str	r4, [sp, #48]
 115:Src/gpio.c    ****   GPIO_InitStruct.Pull = GPIO_NOPULL;
 215              		.loc 1 115 0
 216 0134 0D94     		str	r4, [sp, #52]
 116:Src/gpio.c    ****   HAL_GPIO_Init(OTG_FS_VBUS_GPIO_Port, &GPIO_InitStruct);
 217              		.loc 1 116 0
 218 0136 0BA9     		add	r1, sp, #44
 219 0138 3B48     		ldr	r0, .L3+24
 220 013a FFF7FEFF 		bl	HAL_GPIO_Init
 221              	.LVL7:
 117:Src/gpio.c    **** 
 118:Src/gpio.c    ****   /*Configure GPIO pin : PtPin */
 119:Src/gpio.c    ****   GPIO_InitStruct.Pin = Audio_INT_Pin;
 222              		.loc 1 119 0
 223 013e 4023     		movs	r3, #64
 224 0140 0B93     		str	r3, [sp, #44]
ARM GAS  /tmp/ccbUeHZf.s 			page 7


 120:Src/gpio.c    ****   GPIO_InitStruct.Mode = GPIO_MODE_EVT_RISING;
 225              		.loc 1 120 0
 226 0142 DFF8F0A0 		ldr	r10, .L3+36
 227 0146 CDF830A0 		str	r10, [sp, #48]
 121:Src/gpio.c    ****   GPIO_InitStruct.Pull = GPIO_NOPULL;
 228              		.loc 1 121 0
 229 014a 0D94     		str	r4, [sp, #52]
 122:Src/gpio.c    ****   HAL_GPIO_Init(Audio_INT_GPIO_Port, &GPIO_InitStruct);
 230              		.loc 1 122 0
 231 014c 0BA9     		add	r1, sp, #44
 232 014e 3846     		mov	r0, r7
 233 0150 FFF7FEFF 		bl	HAL_GPIO_Init
 234              	.LVL8:
 123:Src/gpio.c    **** 
 124:Src/gpio.c    ****   /*Configure GPIO pin : PtPin */
 125:Src/gpio.c    ****   GPIO_InitStruct.Pin = OTG_FS_PowerSwitchOn_Pin;
 235              		.loc 1 125 0
 236 0154 2023     		movs	r3, #32
 237 0156 0B93     		str	r3, [sp, #44]
 126:Src/gpio.c    ****   GPIO_InitStruct.Mode = GPIO_MODE_OUTPUT_PP;
 238              		.loc 1 126 0
 239 0158 0125     		movs	r5, #1
 240 015a 0C95     		str	r5, [sp, #48]
 127:Src/gpio.c    ****   GPIO_InitStruct.Pull = GPIO_NOPULL;
 241              		.loc 1 127 0
 242 015c 0D94     		str	r4, [sp, #52]
 128:Src/gpio.c    ****   GPIO_InitStruct.Speed = GPIO_SPEED_FREQ_LOW;
 243              		.loc 1 128 0
 244 015e 0E94     		str	r4, [sp, #56]
 129:Src/gpio.c    ****   HAL_GPIO_Init(OTG_FS_PowerSwitchOn_GPIO_Port, &GPIO_InitStruct);
 245              		.loc 1 129 0
 246 0160 0BA9     		add	r1, sp, #44
 247 0162 3846     		mov	r0, r7
 248 0164 FFF7FEFF 		bl	HAL_GPIO_Init
 249              	.LVL9:
 130:Src/gpio.c    **** 
 131:Src/gpio.c    ****   /*Configure GPIO pins : PIPin PIPin PIPin */
 132:Src/gpio.c    ****   GPIO_InitStruct.Pin = ARDUINO_D7_Pin|ARDUINO_D8_Pin|LCD_DISP_Pin;
 250              		.loc 1 132 0
 251 0168 41F20C03 		movw	r3, #4108
 252 016c 0B93     		str	r3, [sp, #44]
 133:Src/gpio.c    ****   GPIO_InitStruct.Mode = GPIO_MODE_OUTPUT_PP;
 253              		.loc 1 133 0
 254 016e 0C95     		str	r5, [sp, #48]
 134:Src/gpio.c    ****   GPIO_InitStruct.Pull = GPIO_NOPULL;
 255              		.loc 1 134 0
 256 0170 0D94     		str	r4, [sp, #52]
 135:Src/gpio.c    ****   GPIO_InitStruct.Speed = GPIO_SPEED_FREQ_LOW;
 257              		.loc 1 135 0
 258 0172 0E94     		str	r4, [sp, #56]
 136:Src/gpio.c    ****   HAL_GPIO_Init(GPIOI, &GPIO_InitStruct);
 259              		.loc 1 136 0
 260 0174 0BA9     		add	r1, sp, #44
 261 0176 3046     		mov	r0, r6
 262 0178 FFF7FEFF 		bl	HAL_GPIO_Init
 263              	.LVL10:
 137:Src/gpio.c    **** 
ARM GAS  /tmp/ccbUeHZf.s 			page 8


 138:Src/gpio.c    ****   /*Configure GPIO pin : PtPin */
 139:Src/gpio.c    ****   GPIO_InitStruct.Pin = uSD_Detect_Pin;
 264              		.loc 1 139 0
 265 017c 4FF40058 		mov	r8, #8192
 266 0180 CDF82C80 		str	r8, [sp, #44]
 140:Src/gpio.c    ****   GPIO_InitStruct.Mode = GPIO_MODE_INPUT;
 267              		.loc 1 140 0
 268 0184 0C94     		str	r4, [sp, #48]
 141:Src/gpio.c    ****   GPIO_InitStruct.Pull = GPIO_NOPULL;
 269              		.loc 1 141 0
 270 0186 0D94     		str	r4, [sp, #52]
 142:Src/gpio.c    ****   HAL_GPIO_Init(uSD_Detect_GPIO_Port, &GPIO_InitStruct);
 271              		.loc 1 142 0
 272 0188 0BA9     		add	r1, sp, #44
 273 018a 2848     		ldr	r0, .L3+28
 274 018c FFF7FEFF 		bl	HAL_GPIO_Init
 275              	.LVL11:
 143:Src/gpio.c    **** 
 144:Src/gpio.c    ****   /*Configure GPIO pin : PtPin */
 145:Src/gpio.c    ****   GPIO_InitStruct.Pin = LCD_BL_CTRL_Pin;
 276              		.loc 1 145 0
 277 0190 CDF82CB0 		str	fp, [sp, #44]
 146:Src/gpio.c    ****   GPIO_InitStruct.Mode = GPIO_MODE_OUTPUT_PP;
 278              		.loc 1 146 0
 279 0194 0C95     		str	r5, [sp, #48]
 147:Src/gpio.c    ****   GPIO_InitStruct.Pull = GPIO_NOPULL;
 280              		.loc 1 147 0
 281 0196 0D94     		str	r4, [sp, #52]
 148:Src/gpio.c    ****   GPIO_InitStruct.Speed = GPIO_SPEED_FREQ_LOW;
 282              		.loc 1 148 0
 283 0198 0E94     		str	r4, [sp, #56]
 149:Src/gpio.c    ****   HAL_GPIO_Init(LCD_BL_CTRL_GPIO_Port, &GPIO_InitStruct);
 284              		.loc 1 149 0
 285 019a 0BA9     		add	r1, sp, #44
 286 019c 1F48     		ldr	r0, .L3+12
 287 019e FFF7FEFF 		bl	HAL_GPIO_Init
 288              	.LVL12:
 150:Src/gpio.c    **** 
 151:Src/gpio.c    ****   /*Configure GPIO pin : PtPin */
 152:Src/gpio.c    ****   GPIO_InitStruct.Pin = OTG_FS_OverCurrent_Pin;
 289              		.loc 1 152 0
 290 01a2 1023     		movs	r3, #16
 291 01a4 0B93     		str	r3, [sp, #44]
 153:Src/gpio.c    ****   GPIO_InitStruct.Mode = GPIO_MODE_INPUT;
 292              		.loc 1 153 0
 293 01a6 0C94     		str	r4, [sp, #48]
 154:Src/gpio.c    ****   GPIO_InitStruct.Pull = GPIO_NOPULL;
 294              		.loc 1 154 0
 295 01a8 0D94     		str	r4, [sp, #52]
 155:Src/gpio.c    ****   HAL_GPIO_Init(OTG_FS_OverCurrent_GPIO_Port, &GPIO_InitStruct);
 296              		.loc 1 155 0
 297 01aa 0BA9     		add	r1, sp, #44
 298 01ac 3846     		mov	r0, r7
 299 01ae FFF7FEFF 		bl	HAL_GPIO_Init
 300              	.LVL13:
 156:Src/gpio.c    **** 
 157:Src/gpio.c    ****   /*Configure GPIO pins : PHPin PHPin */
ARM GAS  /tmp/ccbUeHZf.s 			page 9


 158:Src/gpio.c    ****   GPIO_InitStruct.Pin = TP3_Pin|NC2_Pin;
 301              		.loc 1 158 0
 302 01b2 48F20403 		movw	r3, #32772
 303 01b6 0B93     		str	r3, [sp, #44]
 159:Src/gpio.c    ****   GPIO_InitStruct.Mode = GPIO_MODE_INPUT;
 304              		.loc 1 159 0
 305 01b8 0C94     		str	r4, [sp, #48]
 160:Src/gpio.c    ****   GPIO_InitStruct.Pull = GPIO_NOPULL;
 306              		.loc 1 160 0
 307 01ba 0D94     		str	r4, [sp, #52]
 161:Src/gpio.c    ****   HAL_GPIO_Init(GPIOH, &GPIO_InitStruct);
 308              		.loc 1 161 0
 309 01bc 0BA9     		add	r1, sp, #44
 310 01be 4846     		mov	r0, r9
 311 01c0 FFF7FEFF 		bl	HAL_GPIO_Init
 312              	.LVL14:
 162:Src/gpio.c    **** 
 163:Src/gpio.c    ****   /*Configure GPIO pin : PtPin */
 164:Src/gpio.c    ****   GPIO_InitStruct.Pin = DCMI_PWR_EN_Pin;
 313              		.loc 1 164 0
 314 01c4 CDF82C80 		str	r8, [sp, #44]
 165:Src/gpio.c    ****   GPIO_InitStruct.Mode = GPIO_MODE_OUTPUT_PP;
 315              		.loc 1 165 0
 316 01c8 0C95     		str	r5, [sp, #48]
 166:Src/gpio.c    ****   GPIO_InitStruct.Pull = GPIO_NOPULL;
 317              		.loc 1 166 0
 318 01ca 0D94     		str	r4, [sp, #52]
 167:Src/gpio.c    ****   GPIO_InitStruct.Speed = GPIO_SPEED_FREQ_LOW;
 319              		.loc 1 167 0
 320 01cc 0E94     		str	r4, [sp, #56]
 168:Src/gpio.c    ****   HAL_GPIO_Init(DCMI_PWR_EN_GPIO_Port, &GPIO_InitStruct);
 321              		.loc 1 168 0
 322 01ce 0BA9     		add	r1, sp, #44
 323 01d0 4846     		mov	r0, r9
 324 01d2 FFF7FEFF 		bl	HAL_GPIO_Init
 325              	.LVL15:
 169:Src/gpio.c    **** 
 170:Src/gpio.c    ****   /*Configure GPIO pin : PtPin */
 171:Src/gpio.c    ****   GPIO_InitStruct.Pin = LCD_INT_Pin;
 326              		.loc 1 171 0
 327 01d6 CDF82C80 		str	r8, [sp, #44]
 172:Src/gpio.c    ****   GPIO_InitStruct.Mode = GPIO_MODE_EVT_RISING;
 328              		.loc 1 172 0
 329 01da CDF830A0 		str	r10, [sp, #48]
 173:Src/gpio.c    ****   GPIO_InitStruct.Pull = GPIO_NOPULL;
 330              		.loc 1 173 0
 331 01de 0D94     		str	r4, [sp, #52]
 174:Src/gpio.c    ****   HAL_GPIO_Init(LCD_INT_GPIO_Port, &GPIO_InitStruct);
 332              		.loc 1 174 0
 333 01e0 0BA9     		add	r1, sp, #44
 334 01e2 3046     		mov	r0, r6
 335 01e4 FFF7FEFF 		bl	HAL_GPIO_Init
 336              	.LVL16:
 175:Src/gpio.c    **** 
 176:Src/gpio.c    ****   /*Configure GPIO pins : PGPin PGPin PGPin */
 177:Src/gpio.c    ****   GPIO_InitStruct.Pin = ARDUINO_D4_Pin|ARDUINO_D2_Pin|EXT_RST_Pin;
 337              		.loc 1 177 0
ARM GAS  /tmp/ccbUeHZf.s 			page 10


 338 01e8 C823     		movs	r3, #200
 339 01ea 0B93     		str	r3, [sp, #44]
 178:Src/gpio.c    ****   GPIO_InitStruct.Mode = GPIO_MODE_OUTPUT_PP;
 340              		.loc 1 178 0
 341 01ec 0C95     		str	r5, [sp, #48]
 179:Src/gpio.c    ****   GPIO_InitStruct.Pull = GPIO_NOPULL;
 342              		.loc 1 179 0
 343 01ee 0D94     		str	r4, [sp, #52]
 180:Src/gpio.c    ****   GPIO_InitStruct.Speed = GPIO_SPEED_FREQ_LOW;
 344              		.loc 1 180 0
 345 01f0 0E94     		str	r4, [sp, #56]
 181:Src/gpio.c    ****   HAL_GPIO_Init(GPIOG, &GPIO_InitStruct);
 346              		.loc 1 181 0
 347 01f2 0BA9     		add	r1, sp, #44
 348 01f4 0A48     		ldr	r0, .L3+16
 349 01f6 FFF7FEFF 		bl	HAL_GPIO_Init
 350              	.LVL17:
 182:Src/gpio.c    **** 
 183:Src/gpio.c    ****   /*Configure GPIO pin : PtPin */
 184:Src/gpio.c    ****   GPIO_InitStruct.Pin = RMII_RXER_Pin;
 351              		.loc 1 184 0
 352 01fa 0423     		movs	r3, #4
 353 01fc 0B93     		str	r3, [sp, #44]
 185:Src/gpio.c    ****   GPIO_InitStruct.Mode = GPIO_MODE_INPUT;
 354              		.loc 1 185 0
 355 01fe 0C94     		str	r4, [sp, #48]
 186:Src/gpio.c    ****   GPIO_InitStruct.Pull = GPIO_NOPULL;
 356              		.loc 1 186 0
 357 0200 0D94     		str	r4, [sp, #52]
 187:Src/gpio.c    ****   HAL_GPIO_Init(RMII_RXER_GPIO_Port, &GPIO_InitStruct);
 358              		.loc 1 187 0
 359 0202 0BA9     		add	r1, sp, #44
 360 0204 0648     		ldr	r0, .L3+16
 361 0206 FFF7FEFF 		bl	HAL_GPIO_Init
 362              	.LVL18:
 188:Src/gpio.c    **** 
 189:Src/gpio.c    **** }
 363              		.loc 1 189 0
 364 020a 11B0     		add	sp, sp, #68
 365              	.LCFI2:
 366              		.cfi_def_cfa_offset 36
 367              		@ sp needed
 368 020c BDE8F08F 		pop	{r4, r5, r6, r7, r8, r9, r10, fp, pc}
 369              	.L4:
 370              		.align	2
 371              	.L3:
 372 0210 00380240 		.word	1073887232
 373 0214 000C0240 		.word	1073875968
 374 0218 00200240 		.word	1073881088
 375 021c 00280240 		.word	1073883136
 376 0220 00180240 		.word	1073879040
 377 0224 00100240 		.word	1073876992
 378 0228 00240240 		.word	1073882112
 379 022c 00080240 		.word	1073874944
 380 0230 001C0240 		.word	1073880064
 381 0234 00001210 		.word	269615104
 382              		.cfi_endproc
ARM GAS  /tmp/ccbUeHZf.s 			page 11


 383              	.LFE138:
 385              		.text
 386              	.Letext0:
 387              		.file 2 "/home/warranyu/opt/gcc-arm-none-eabi-7-2018-q2-update/arm-none-eabi/include/machine/_defa
 388              		.file 3 "/home/warranyu/opt/gcc-arm-none-eabi-7-2018-q2-update/arm-none-eabi/include/sys/_stdint.h
 389              		.file 4 "Drivers/CMSIS/Include/core_cm7.h"
 390              		.file 5 "Drivers/CMSIS/Device/ST/STM32F7xx/Include/system_stm32f7xx.h"
 391              		.file 6 "Drivers/CMSIS/Device/ST/STM32F7xx/Include/stm32f746xx.h"
 392              		.file 7 "/home/warranyu/opt/gcc-arm-none-eabi-7-2018-q2-update/arm-none-eabi/include/sys/lock.h"
 393              		.file 8 "/home/warranyu/opt/gcc-arm-none-eabi-7-2018-q2-update/arm-none-eabi/include/sys/_types.h"
 394              		.file 9 "/home/warranyu/opt/gcc-arm-none-eabi-7-2018-q2-update/lib/gcc/arm-none-eabi/7.3.1/include
 395              		.file 10 "/home/warranyu/opt/gcc-arm-none-eabi-7-2018-q2-update/arm-none-eabi/include/sys/reent.h"
 396              		.file 11 "Drivers/STM32F7xx_HAL_Driver/Inc/stm32f7xx_hal_gpio.h"
ARM GAS  /tmp/ccbUeHZf.s 			page 12

