ARM GAS  /tmp/ccRhjfY9.s 			page 1


   1              		.cpu cortex-m7
   2              		.eabi_attribute 27, 1
   3              		.eabi_attribute 28, 1
   4              		.eabi_attribute 20, 1
   5              		.eabi_attribute 21, 1
   6              		.eabi_attribute 23, 3
   7              		.eabi_attribute 24, 1
   8              		.eabi_attribute 25, 1
   9              		.eabi_attribute 26, 1
  10              		.eabi_attribute 30, 1
  11              		.eabi_attribute 34, 1
  12              		.eabi_attribute 18, 4
  13              		.file	"i2c.c"
  14              		.text
  15              	.Ltext0:
  16              		.cfi_sections	.debug_frame
  17              		.section	.text.MX_I2C1_Init,"ax",%progbits
  18              		.align	1
  19              		.global	MX_I2C1_Init
  20              		.syntax unified
  21              		.thumb
  22              		.thumb_func
  23              		.fpu fpv5-sp-d16
  25              	MX_I2C1_Init:
  26              	.LFB138:
  27              		.file 1 "Src/i2c.c"
   1:Src/i2c.c     **** /**
   2:Src/i2c.c     ****   ******************************************************************************
   3:Src/i2c.c     ****   * File Name          : I2C.c
   4:Src/i2c.c     ****   * Description        : This file provides code for the configuration
   5:Src/i2c.c     ****   *                      of the I2C instances.
   6:Src/i2c.c     ****   ******************************************************************************
   7:Src/i2c.c     ****   * This notice applies to any and all portions of this file
   8:Src/i2c.c     ****   * that are not between comment pairs USER CODE BEGIN and
   9:Src/i2c.c     ****   * USER CODE END. Other portions of this file, whether 
  10:Src/i2c.c     ****   * inserted by the user or by software development tools
  11:Src/i2c.c     ****   * are owned by their respective copyright owners.
  12:Src/i2c.c     ****   *
  13:Src/i2c.c     ****   * Copyright (c) 2018 STMicroelectronics International N.V. 
  14:Src/i2c.c     ****   * All rights reserved.
  15:Src/i2c.c     ****   *
  16:Src/i2c.c     ****   * Redistribution and use in source and binary forms, with or without 
  17:Src/i2c.c     ****   * modification, are permitted, provided that the following conditions are met:
  18:Src/i2c.c     ****   *
  19:Src/i2c.c     ****   * 1. Redistribution of source code must retain the above copyright notice, 
  20:Src/i2c.c     ****   *    this list of conditions and the following disclaimer.
  21:Src/i2c.c     ****   * 2. Redistributions in binary form must reproduce the above copyright notice,
  22:Src/i2c.c     ****   *    this list of conditions and the following disclaimer in the documentation
  23:Src/i2c.c     ****   *    and/or other materials provided with the distribution.
  24:Src/i2c.c     ****   * 3. Neither the name of STMicroelectronics nor the names of other 
  25:Src/i2c.c     ****   *    contributors to this software may be used to endorse or promote products 
  26:Src/i2c.c     ****   *    derived from this software without specific written permission.
  27:Src/i2c.c     ****   * 4. This software, including modifications and/or derivative works of this 
  28:Src/i2c.c     ****   *    software, must execute solely and exclusively on microcontroller or
  29:Src/i2c.c     ****   *    microprocessor devices manufactured by or for STMicroelectronics.
  30:Src/i2c.c     ****   * 5. Redistribution and use of this software other than as permitted under 
  31:Src/i2c.c     ****   *    this license is void and will automatically terminate your rights under 
ARM GAS  /tmp/ccRhjfY9.s 			page 2


  32:Src/i2c.c     ****   *    this license. 
  33:Src/i2c.c     ****   *
  34:Src/i2c.c     ****   * THIS SOFTWARE IS PROVIDED BY STMICROELECTRONICS AND CONTRIBUTORS "AS IS" 
  35:Src/i2c.c     ****   * AND ANY EXPRESS, IMPLIED OR STATUTORY WARRANTIES, INCLUDING, BUT NOT 
  36:Src/i2c.c     ****   * LIMITED TO, THE IMPLIED WARRANTIES OF MERCHANTABILITY, FITNESS FOR A 
  37:Src/i2c.c     ****   * PARTICULAR PURPOSE AND NON-INFRINGEMENT OF THIRD PARTY INTELLECTUAL PROPERTY
  38:Src/i2c.c     ****   * RIGHTS ARE DISCLAIMED TO THE FULLEST EXTENT PERMITTED BY LAW. IN NO EVENT 
  39:Src/i2c.c     ****   * SHALL STMICROELECTRONICS OR CONTRIBUTORS BE LIABLE FOR ANY DIRECT, INDIRECT,
  40:Src/i2c.c     ****   * INCIDENTAL, SPECIAL, EXEMPLARY, OR CONSEQUENTIAL DAMAGES (INCLUDING, BUT NOT
  41:Src/i2c.c     ****   * LIMITED TO, PROCUREMENT OF SUBSTITUTE GOODS OR SERVICES; LOSS OF USE, DATA, 
  42:Src/i2c.c     ****   * OR PROFITS; OR BUSINESS INTERRUPTION) HOWEVER CAUSED AND ON ANY THEORY OF 
  43:Src/i2c.c     ****   * LIABILITY, WHETHER IN CONTRACT, STRICT LIABILITY, OR TORT (INCLUDING 
  44:Src/i2c.c     ****   * NEGLIGENCE OR OTHERWISE) ARISING IN ANY WAY OUT OF THE USE OF THIS SOFTWARE,
  45:Src/i2c.c     ****   * EVEN IF ADVISED OF THE POSSIBILITY OF SUCH DAMAGE.
  46:Src/i2c.c     ****   *
  47:Src/i2c.c     ****   ******************************************************************************
  48:Src/i2c.c     ****   */
  49:Src/i2c.c     **** 
  50:Src/i2c.c     **** /* Includes ------------------------------------------------------------------*/
  51:Src/i2c.c     **** #include "i2c.h"
  52:Src/i2c.c     **** 
  53:Src/i2c.c     **** #include "gpio.h"
  54:Src/i2c.c     **** 
  55:Src/i2c.c     **** /* USER CODE BEGIN 0 */
  56:Src/i2c.c     **** 
  57:Src/i2c.c     **** /* USER CODE END 0 */
  58:Src/i2c.c     **** 
  59:Src/i2c.c     **** I2C_HandleTypeDef hi2c1;
  60:Src/i2c.c     **** I2C_HandleTypeDef hi2c3;
  61:Src/i2c.c     **** 
  62:Src/i2c.c     **** /* I2C1 init function */
  63:Src/i2c.c     **** void MX_I2C1_Init(void)
  64:Src/i2c.c     **** {
  28              		.loc 1 64 0
  29              		.cfi_startproc
  30              		@ args = 0, pretend = 0, frame = 0
  31              		@ frame_needed = 0, uses_anonymous_args = 0
  32 0000 08B5     		push	{r3, lr}
  33              	.LCFI0:
  34              		.cfi_def_cfa_offset 8
  35              		.cfi_offset 3, -8
  36              		.cfi_offset 14, -4
  65:Src/i2c.c     **** 
  66:Src/i2c.c     ****   hi2c1.Instance = I2C1;
  37              		.loc 1 66 0
  38 0002 1548     		ldr	r0, .L9
  39 0004 154B     		ldr	r3, .L9+4
  40 0006 0360     		str	r3, [r0]
  67:Src/i2c.c     ****   hi2c1.Init.Timing = 0x00C0EAFF;
  41              		.loc 1 67 0
  42 0008 154B     		ldr	r3, .L9+8
  43 000a 4360     		str	r3, [r0, #4]
  68:Src/i2c.c     ****   hi2c1.Init.OwnAddress1 = 0;
  44              		.loc 1 68 0
  45 000c 0023     		movs	r3, #0
  46 000e 8360     		str	r3, [r0, #8]
  69:Src/i2c.c     ****   hi2c1.Init.AddressingMode = I2C_ADDRESSINGMODE_7BIT;
ARM GAS  /tmp/ccRhjfY9.s 			page 3


  47              		.loc 1 69 0
  48 0010 0122     		movs	r2, #1
  49 0012 C260     		str	r2, [r0, #12]
  70:Src/i2c.c     ****   hi2c1.Init.DualAddressMode = I2C_DUALADDRESS_DISABLE;
  50              		.loc 1 70 0
  51 0014 0361     		str	r3, [r0, #16]
  71:Src/i2c.c     ****   hi2c1.Init.OwnAddress2 = 0;
  52              		.loc 1 71 0
  53 0016 4361     		str	r3, [r0, #20]
  72:Src/i2c.c     ****   hi2c1.Init.OwnAddress2Masks = I2C_OA2_NOMASK;
  54              		.loc 1 72 0
  55 0018 8361     		str	r3, [r0, #24]
  73:Src/i2c.c     ****   hi2c1.Init.GeneralCallMode = I2C_GENERALCALL_DISABLE;
  56              		.loc 1 73 0
  57 001a C361     		str	r3, [r0, #28]
  74:Src/i2c.c     ****   hi2c1.Init.NoStretchMode = I2C_NOSTRETCH_DISABLE;
  58              		.loc 1 74 0
  59 001c 0362     		str	r3, [r0, #32]
  75:Src/i2c.c     ****   if (HAL_I2C_Init(&hi2c1) != HAL_OK)
  60              		.loc 1 75 0
  61 001e FFF7FEFF 		bl	HAL_I2C_Init
  62              	.LVL0:
  63 0022 50B9     		cbnz	r0, .L6
  64              	.L2:
  76:Src/i2c.c     ****   {
  77:Src/i2c.c     ****     _Error_Handler(__FILE__, __LINE__);
  78:Src/i2c.c     ****   }
  79:Src/i2c.c     **** 
  80:Src/i2c.c     ****     /**Configure Analogue filter 
  81:Src/i2c.c     ****     */
  82:Src/i2c.c     ****   if (HAL_I2CEx_ConfigAnalogFilter(&hi2c1, I2C_ANALOGFILTER_ENABLE) != HAL_OK)
  65              		.loc 1 82 0
  66 0024 0021     		movs	r1, #0
  67 0026 0C48     		ldr	r0, .L9
  68 0028 FFF7FEFF 		bl	HAL_I2CEx_ConfigAnalogFilter
  69              	.LVL1:
  70 002c 50B9     		cbnz	r0, .L7
  71              	.L3:
  83:Src/i2c.c     ****   {
  84:Src/i2c.c     ****     _Error_Handler(__FILE__, __LINE__);
  85:Src/i2c.c     ****   }
  86:Src/i2c.c     **** 
  87:Src/i2c.c     ****     /**Configure Digital filter 
  88:Src/i2c.c     ****     */
  89:Src/i2c.c     ****   if (HAL_I2CEx_ConfigDigitalFilter(&hi2c1, 0) != HAL_OK)
  72              		.loc 1 89 0
  73 002e 0021     		movs	r1, #0
  74 0030 0948     		ldr	r0, .L9
  75 0032 FFF7FEFF 		bl	HAL_I2CEx_ConfigDigitalFilter
  76              	.LVL2:
  77 0036 50B9     		cbnz	r0, .L8
  78              	.L1:
  90:Src/i2c.c     ****   {
  91:Src/i2c.c     ****     _Error_Handler(__FILE__, __LINE__);
  92:Src/i2c.c     ****   }
  93:Src/i2c.c     **** 
  94:Src/i2c.c     **** }
ARM GAS  /tmp/ccRhjfY9.s 			page 4


  79              		.loc 1 94 0
  80 0038 08BD     		pop	{r3, pc}
  81              	.L6:
  77:Src/i2c.c     ****   }
  82              		.loc 1 77 0
  83 003a 4D21     		movs	r1, #77
  84 003c 0948     		ldr	r0, .L9+12
  85 003e FFF7FEFF 		bl	_Error_Handler
  86              	.LVL3:
  87 0042 EFE7     		b	.L2
  88              	.L7:
  84:Src/i2c.c     ****   }
  89              		.loc 1 84 0
  90 0044 5421     		movs	r1, #84
  91 0046 0748     		ldr	r0, .L9+12
  92 0048 FFF7FEFF 		bl	_Error_Handler
  93              	.LVL4:
  94 004c EFE7     		b	.L3
  95              	.L8:
  91:Src/i2c.c     ****   }
  96              		.loc 1 91 0
  97 004e 5B21     		movs	r1, #91
  98 0050 0448     		ldr	r0, .L9+12
  99 0052 FFF7FEFF 		bl	_Error_Handler
 100              	.LVL5:
 101              		.loc 1 94 0
 102 0056 EFE7     		b	.L1
 103              	.L10:
 104              		.align	2
 105              	.L9:
 106 0058 00000000 		.word	hi2c1
 107 005c 00540040 		.word	1073763328
 108 0060 FFEAC000 		.word	12643071
 109 0064 00000000 		.word	.LC0
 110              		.cfi_endproc
 111              	.LFE138:
 113              		.section	.text.MX_I2C3_Init,"ax",%progbits
 114              		.align	1
 115              		.global	MX_I2C3_Init
 116              		.syntax unified
 117              		.thumb
 118              		.thumb_func
 119              		.fpu fpv5-sp-d16
 121              	MX_I2C3_Init:
 122              	.LFB139:
  95:Src/i2c.c     **** /* I2C3 init function */
  96:Src/i2c.c     **** void MX_I2C3_Init(void)
  97:Src/i2c.c     **** {
 123              		.loc 1 97 0
 124              		.cfi_startproc
 125              		@ args = 0, pretend = 0, frame = 0
 126              		@ frame_needed = 0, uses_anonymous_args = 0
 127 0000 08B5     		push	{r3, lr}
 128              	.LCFI1:
 129              		.cfi_def_cfa_offset 8
 130              		.cfi_offset 3, -8
 131              		.cfi_offset 14, -4
ARM GAS  /tmp/ccRhjfY9.s 			page 5


  98:Src/i2c.c     **** 
  99:Src/i2c.c     ****   hi2c3.Instance = I2C3;
 132              		.loc 1 99 0
 133 0002 1548     		ldr	r0, .L19
 134 0004 154B     		ldr	r3, .L19+4
 135 0006 0360     		str	r3, [r0]
 100:Src/i2c.c     ****   hi2c3.Init.Timing = 0x00C0EAFF;
 136              		.loc 1 100 0
 137 0008 154B     		ldr	r3, .L19+8
 138 000a 4360     		str	r3, [r0, #4]
 101:Src/i2c.c     ****   hi2c3.Init.OwnAddress1 = 0;
 139              		.loc 1 101 0
 140 000c 0023     		movs	r3, #0
 141 000e 8360     		str	r3, [r0, #8]
 102:Src/i2c.c     ****   hi2c3.Init.AddressingMode = I2C_ADDRESSINGMODE_7BIT;
 142              		.loc 1 102 0
 143 0010 0122     		movs	r2, #1
 144 0012 C260     		str	r2, [r0, #12]
 103:Src/i2c.c     ****   hi2c3.Init.DualAddressMode = I2C_DUALADDRESS_DISABLE;
 145              		.loc 1 103 0
 146 0014 0361     		str	r3, [r0, #16]
 104:Src/i2c.c     ****   hi2c3.Init.OwnAddress2 = 0;
 147              		.loc 1 104 0
 148 0016 4361     		str	r3, [r0, #20]
 105:Src/i2c.c     ****   hi2c3.Init.OwnAddress2Masks = I2C_OA2_NOMASK;
 149              		.loc 1 105 0
 150 0018 8361     		str	r3, [r0, #24]
 106:Src/i2c.c     ****   hi2c3.Init.GeneralCallMode = I2C_GENERALCALL_DISABLE;
 151              		.loc 1 106 0
 152 001a C361     		str	r3, [r0, #28]
 107:Src/i2c.c     ****   hi2c3.Init.NoStretchMode = I2C_NOSTRETCH_DISABLE;
 153              		.loc 1 107 0
 154 001c 0362     		str	r3, [r0, #32]
 108:Src/i2c.c     ****   if (HAL_I2C_Init(&hi2c3) != HAL_OK)
 155              		.loc 1 108 0
 156 001e FFF7FEFF 		bl	HAL_I2C_Init
 157              	.LVL6:
 158 0022 50B9     		cbnz	r0, .L16
 159              	.L12:
 109:Src/i2c.c     ****   {
 110:Src/i2c.c     ****     _Error_Handler(__FILE__, __LINE__);
 111:Src/i2c.c     ****   }
 112:Src/i2c.c     **** 
 113:Src/i2c.c     ****     /**Configure Analogue filter 
 114:Src/i2c.c     ****     */
 115:Src/i2c.c     ****   if (HAL_I2CEx_ConfigAnalogFilter(&hi2c3, I2C_ANALOGFILTER_ENABLE) != HAL_OK)
 160              		.loc 1 115 0
 161 0024 0021     		movs	r1, #0
 162 0026 0C48     		ldr	r0, .L19
 163 0028 FFF7FEFF 		bl	HAL_I2CEx_ConfigAnalogFilter
 164              	.LVL7:
 165 002c 50B9     		cbnz	r0, .L17
 166              	.L13:
 116:Src/i2c.c     ****   {
 117:Src/i2c.c     ****     _Error_Handler(__FILE__, __LINE__);
 118:Src/i2c.c     ****   }
 119:Src/i2c.c     **** 
ARM GAS  /tmp/ccRhjfY9.s 			page 6


 120:Src/i2c.c     ****     /**Configure Digital filter 
 121:Src/i2c.c     ****     */
 122:Src/i2c.c     ****   if (HAL_I2CEx_ConfigDigitalFilter(&hi2c3, 0) != HAL_OK)
 167              		.loc 1 122 0
 168 002e 0021     		movs	r1, #0
 169 0030 0948     		ldr	r0, .L19
 170 0032 FFF7FEFF 		bl	HAL_I2CEx_ConfigDigitalFilter
 171              	.LVL8:
 172 0036 50B9     		cbnz	r0, .L18
 173              	.L11:
 123:Src/i2c.c     ****   {
 124:Src/i2c.c     ****     _Error_Handler(__FILE__, __LINE__);
 125:Src/i2c.c     ****   }
 126:Src/i2c.c     **** 
 127:Src/i2c.c     **** }
 174              		.loc 1 127 0
 175 0038 08BD     		pop	{r3, pc}
 176              	.L16:
 110:Src/i2c.c     ****   }
 177              		.loc 1 110 0
 178 003a 6E21     		movs	r1, #110
 179 003c 0948     		ldr	r0, .L19+12
 180 003e FFF7FEFF 		bl	_Error_Handler
 181              	.LVL9:
 182 0042 EFE7     		b	.L12
 183              	.L17:
 117:Src/i2c.c     ****   }
 184              		.loc 1 117 0
 185 0044 7521     		movs	r1, #117
 186 0046 0748     		ldr	r0, .L19+12
 187 0048 FFF7FEFF 		bl	_Error_Handler
 188              	.LVL10:
 189 004c EFE7     		b	.L13
 190              	.L18:
 124:Src/i2c.c     ****   }
 191              		.loc 1 124 0
 192 004e 7C21     		movs	r1, #124
 193 0050 0448     		ldr	r0, .L19+12
 194 0052 FFF7FEFF 		bl	_Error_Handler
 195              	.LVL11:
 196              		.loc 1 127 0
 197 0056 EFE7     		b	.L11
 198              	.L20:
 199              		.align	2
 200              	.L19:
 201 0058 00000000 		.word	hi2c3
 202 005c 005C0040 		.word	1073765376
 203 0060 FFEAC000 		.word	12643071
 204 0064 00000000 		.word	.LC0
 205              		.cfi_endproc
 206              	.LFE139:
 208              		.section	.text.HAL_I2C_MspInit,"ax",%progbits
 209              		.align	1
 210              		.global	HAL_I2C_MspInit
 211              		.syntax unified
 212              		.thumb
 213              		.thumb_func
ARM GAS  /tmp/ccRhjfY9.s 			page 7


 214              		.fpu fpv5-sp-d16
 216              	HAL_I2C_MspInit:
 217              	.LFB140:
 128:Src/i2c.c     **** 
 129:Src/i2c.c     **** void HAL_I2C_MspInit(I2C_HandleTypeDef* i2cHandle)
 130:Src/i2c.c     **** {
 218              		.loc 1 130 0
 219              		.cfi_startproc
 220              		@ args = 0, pretend = 0, frame = 32
 221              		@ frame_needed = 0, uses_anonymous_args = 0
 222              	.LVL12:
 223 0000 00B5     		push	{lr}
 224              	.LCFI2:
 225              		.cfi_def_cfa_offset 4
 226              		.cfi_offset 14, -4
 227 0002 89B0     		sub	sp, sp, #36
 228              	.LCFI3:
 229              		.cfi_def_cfa_offset 40
 131:Src/i2c.c     **** 
 132:Src/i2c.c     ****   GPIO_InitTypeDef GPIO_InitStruct;
 133:Src/i2c.c     ****   if(i2cHandle->Instance==I2C1)
 230              		.loc 1 133 0
 231 0004 0368     		ldr	r3, [r0]
 232 0006 1E4A     		ldr	r2, .L27
 233 0008 9342     		cmp	r3, r2
 234 000a 05D0     		beq	.L25
 134:Src/i2c.c     ****   {
 135:Src/i2c.c     ****   /* USER CODE BEGIN I2C1_MspInit 0 */
 136:Src/i2c.c     **** 
 137:Src/i2c.c     ****   /* USER CODE END I2C1_MspInit 0 */
 138:Src/i2c.c     ****   
 139:Src/i2c.c     ****     /**I2C1 GPIO Configuration    
 140:Src/i2c.c     ****     PB8     ------> I2C1_SCL
 141:Src/i2c.c     ****     PB9     ------> I2C1_SDA 
 142:Src/i2c.c     ****     */
 143:Src/i2c.c     ****     GPIO_InitStruct.Pin = ARDUINO_SCL_D15_Pin|ARDUINO_SDA_D14_Pin;
 144:Src/i2c.c     ****     GPIO_InitStruct.Mode = GPIO_MODE_AF_OD;
 145:Src/i2c.c     ****     GPIO_InitStruct.Pull = GPIO_PULLUP;
 146:Src/i2c.c     ****     GPIO_InitStruct.Speed = GPIO_SPEED_FREQ_LOW;
 147:Src/i2c.c     ****     GPIO_InitStruct.Alternate = GPIO_AF4_I2C1;
 148:Src/i2c.c     ****     HAL_GPIO_Init(GPIOB, &GPIO_InitStruct);
 149:Src/i2c.c     **** 
 150:Src/i2c.c     ****     /* I2C1 clock enable */
 151:Src/i2c.c     ****     __HAL_RCC_I2C1_CLK_ENABLE();
 152:Src/i2c.c     ****   /* USER CODE BEGIN I2C1_MspInit 1 */
 153:Src/i2c.c     **** 
 154:Src/i2c.c     ****   /* USER CODE END I2C1_MspInit 1 */
 155:Src/i2c.c     ****   }
 156:Src/i2c.c     ****   else if(i2cHandle->Instance==I2C3)
 235              		.loc 1 156 0
 236 000c 1D4A     		ldr	r2, .L27+4
 237 000e 9342     		cmp	r3, r2
 238 0010 1CD0     		beq	.L26
 239              	.LVL13:
 240              	.L21:
 157:Src/i2c.c     ****   {
 158:Src/i2c.c     ****   /* USER CODE BEGIN I2C3_MspInit 0 */
ARM GAS  /tmp/ccRhjfY9.s 			page 8


 159:Src/i2c.c     **** 
 160:Src/i2c.c     ****   /* USER CODE END I2C3_MspInit 0 */
 161:Src/i2c.c     ****   
 162:Src/i2c.c     ****     /**I2C3 GPIO Configuration    
 163:Src/i2c.c     ****     PH7     ------> I2C3_SCL
 164:Src/i2c.c     ****     PH8     ------> I2C3_SDA 
 165:Src/i2c.c     ****     */
 166:Src/i2c.c     ****     GPIO_InitStruct.Pin = LCD_SCL_Pin|LCD_SDA_Pin;
 167:Src/i2c.c     ****     GPIO_InitStruct.Mode = GPIO_MODE_AF_OD;
 168:Src/i2c.c     ****     GPIO_InitStruct.Pull = GPIO_PULLUP;
 169:Src/i2c.c     ****     GPIO_InitStruct.Speed = GPIO_SPEED_FREQ_VERY_HIGH;
 170:Src/i2c.c     ****     GPIO_InitStruct.Alternate = GPIO_AF4_I2C3;
 171:Src/i2c.c     ****     HAL_GPIO_Init(GPIOH, &GPIO_InitStruct);
 172:Src/i2c.c     **** 
 173:Src/i2c.c     ****     /* I2C3 clock enable */
 174:Src/i2c.c     ****     __HAL_RCC_I2C3_CLK_ENABLE();
 175:Src/i2c.c     ****   /* USER CODE BEGIN I2C3_MspInit 1 */
 176:Src/i2c.c     **** 
 177:Src/i2c.c     ****   /* USER CODE END I2C3_MspInit 1 */
 178:Src/i2c.c     ****   }
 179:Src/i2c.c     **** }
 241              		.loc 1 179 0
 242 0012 09B0     		add	sp, sp, #36
 243              	.LCFI4:
 244              		.cfi_remember_state
 245              		.cfi_def_cfa_offset 4
 246              		@ sp needed
 247 0014 5DF804FB 		ldr	pc, [sp], #4
 248              	.LVL14:
 249              	.L25:
 250              	.LCFI5:
 251              		.cfi_restore_state
 143:Src/i2c.c     ****     GPIO_InitStruct.Mode = GPIO_MODE_AF_OD;
 252              		.loc 1 143 0
 253 0018 4FF44073 		mov	r3, #768
 254 001c 0393     		str	r3, [sp, #12]
 144:Src/i2c.c     ****     GPIO_InitStruct.Pull = GPIO_PULLUP;
 255              		.loc 1 144 0
 256 001e 1223     		movs	r3, #18
 257 0020 0493     		str	r3, [sp, #16]
 145:Src/i2c.c     ****     GPIO_InitStruct.Speed = GPIO_SPEED_FREQ_LOW;
 258              		.loc 1 145 0
 259 0022 0123     		movs	r3, #1
 260 0024 0593     		str	r3, [sp, #20]
 146:Src/i2c.c     ****     GPIO_InitStruct.Alternate = GPIO_AF4_I2C1;
 261              		.loc 1 146 0
 262 0026 0023     		movs	r3, #0
 263 0028 0693     		str	r3, [sp, #24]
 147:Src/i2c.c     ****     HAL_GPIO_Init(GPIOB, &GPIO_InitStruct);
 264              		.loc 1 147 0
 265 002a 0423     		movs	r3, #4
 266 002c 0793     		str	r3, [sp, #28]
 148:Src/i2c.c     **** 
 267              		.loc 1 148 0
 268 002e 03A9     		add	r1, sp, #12
 269 0030 1548     		ldr	r0, .L27+8
 270              	.LVL15:
ARM GAS  /tmp/ccRhjfY9.s 			page 9


 271 0032 FFF7FEFF 		bl	HAL_GPIO_Init
 272              	.LVL16:
 273              	.LBB2:
 151:Src/i2c.c     ****   /* USER CODE BEGIN I2C1_MspInit 1 */
 274              		.loc 1 151 0
 275 0036 154B     		ldr	r3, .L27+12
 276 0038 1A6C     		ldr	r2, [r3, #64]
 277 003a 42F40012 		orr	r2, r2, #2097152
 278 003e 1A64     		str	r2, [r3, #64]
 279 0040 1B6C     		ldr	r3, [r3, #64]
 280 0042 03F40013 		and	r3, r3, #2097152
 281 0046 0193     		str	r3, [sp, #4]
 282 0048 019B     		ldr	r3, [sp, #4]
 283              	.LBE2:
 284 004a E2E7     		b	.L21
 285              	.LVL17:
 286              	.L26:
 166:Src/i2c.c     ****     GPIO_InitStruct.Mode = GPIO_MODE_AF_OD;
 287              		.loc 1 166 0
 288 004c 4FF4C073 		mov	r3, #384
 289 0050 0393     		str	r3, [sp, #12]
 167:Src/i2c.c     ****     GPIO_InitStruct.Pull = GPIO_PULLUP;
 290              		.loc 1 167 0
 291 0052 1223     		movs	r3, #18
 292 0054 0493     		str	r3, [sp, #16]
 168:Src/i2c.c     ****     GPIO_InitStruct.Speed = GPIO_SPEED_FREQ_VERY_HIGH;
 293              		.loc 1 168 0
 294 0056 0123     		movs	r3, #1
 295 0058 0593     		str	r3, [sp, #20]
 169:Src/i2c.c     ****     GPIO_InitStruct.Alternate = GPIO_AF4_I2C3;
 296              		.loc 1 169 0
 297 005a 0323     		movs	r3, #3
 298 005c 0693     		str	r3, [sp, #24]
 170:Src/i2c.c     ****     HAL_GPIO_Init(GPIOH, &GPIO_InitStruct);
 299              		.loc 1 170 0
 300 005e 0423     		movs	r3, #4
 301 0060 0793     		str	r3, [sp, #28]
 171:Src/i2c.c     **** 
 302              		.loc 1 171 0
 303 0062 03A9     		add	r1, sp, #12
 304 0064 0A48     		ldr	r0, .L27+16
 305              	.LVL18:
 306 0066 FFF7FEFF 		bl	HAL_GPIO_Init
 307              	.LVL19:
 308              	.LBB3:
 174:Src/i2c.c     ****   /* USER CODE BEGIN I2C3_MspInit 1 */
 309              		.loc 1 174 0
 310 006a 084B     		ldr	r3, .L27+12
 311 006c 1A6C     		ldr	r2, [r3, #64]
 312 006e 42F40002 		orr	r2, r2, #8388608
 313 0072 1A64     		str	r2, [r3, #64]
 314 0074 1B6C     		ldr	r3, [r3, #64]
 315 0076 03F40003 		and	r3, r3, #8388608
 316 007a 0293     		str	r3, [sp, #8]
 317 007c 029B     		ldr	r3, [sp, #8]
 318              	.LBE3:
 319              		.loc 1 179 0
ARM GAS  /tmp/ccRhjfY9.s 			page 10


 320 007e C8E7     		b	.L21
 321              	.L28:
 322              		.align	2
 323              	.L27:
 324 0080 00540040 		.word	1073763328
 325 0084 005C0040 		.word	1073765376
 326 0088 00040240 		.word	1073873920
 327 008c 00380240 		.word	1073887232
 328 0090 001C0240 		.word	1073880064
 329              		.cfi_endproc
 330              	.LFE140:
 332              		.section	.text.HAL_I2C_MspDeInit,"ax",%progbits
 333              		.align	1
 334              		.global	HAL_I2C_MspDeInit
 335              		.syntax unified
 336              		.thumb
 337              		.thumb_func
 338              		.fpu fpv5-sp-d16
 340              	HAL_I2C_MspDeInit:
 341              	.LFB141:
 180:Src/i2c.c     **** 
 181:Src/i2c.c     **** void HAL_I2C_MspDeInit(I2C_HandleTypeDef* i2cHandle)
 182:Src/i2c.c     **** {
 342              		.loc 1 182 0
 343              		.cfi_startproc
 344              		@ args = 0, pretend = 0, frame = 0
 345              		@ frame_needed = 0, uses_anonymous_args = 0
 346              	.LVL20:
 347 0000 08B5     		push	{r3, lr}
 348              	.LCFI6:
 349              		.cfi_def_cfa_offset 8
 350              		.cfi_offset 3, -8
 351              		.cfi_offset 14, -4
 183:Src/i2c.c     **** 
 184:Src/i2c.c     ****   if(i2cHandle->Instance==I2C1)
 352              		.loc 1 184 0
 353 0002 0368     		ldr	r3, [r0]
 354 0004 0F4A     		ldr	r2, .L35
 355 0006 9342     		cmp	r3, r2
 356 0008 03D0     		beq	.L33
 185:Src/i2c.c     ****   {
 186:Src/i2c.c     ****   /* USER CODE BEGIN I2C1_MspDeInit 0 */
 187:Src/i2c.c     **** 
 188:Src/i2c.c     ****   /* USER CODE END I2C1_MspDeInit 0 */
 189:Src/i2c.c     ****     /* Peripheral clock disable */
 190:Src/i2c.c     ****     __HAL_RCC_I2C1_CLK_DISABLE();
 191:Src/i2c.c     ****   
 192:Src/i2c.c     ****     /**I2C1 GPIO Configuration    
 193:Src/i2c.c     ****     PB8     ------> I2C1_SCL
 194:Src/i2c.c     ****     PB9     ------> I2C1_SDA 
 195:Src/i2c.c     ****     */
 196:Src/i2c.c     ****     HAL_GPIO_DeInit(GPIOB, ARDUINO_SCL_D15_Pin|ARDUINO_SDA_D14_Pin);
 197:Src/i2c.c     **** 
 198:Src/i2c.c     ****   /* USER CODE BEGIN I2C1_MspDeInit 1 */
 199:Src/i2c.c     **** 
 200:Src/i2c.c     ****   /* USER CODE END I2C1_MspDeInit 1 */
 201:Src/i2c.c     ****   }
ARM GAS  /tmp/ccRhjfY9.s 			page 11


 202:Src/i2c.c     ****   else if(i2cHandle->Instance==I2C3)
 357              		.loc 1 202 0
 358 000a 0F4A     		ldr	r2, .L35+4
 359 000c 9342     		cmp	r3, r2
 360 000e 0CD0     		beq	.L34
 361              	.LVL21:
 362              	.L29:
 203:Src/i2c.c     ****   {
 204:Src/i2c.c     ****   /* USER CODE BEGIN I2C3_MspDeInit 0 */
 205:Src/i2c.c     **** 
 206:Src/i2c.c     ****   /* USER CODE END I2C3_MspDeInit 0 */
 207:Src/i2c.c     ****     /* Peripheral clock disable */
 208:Src/i2c.c     ****     __HAL_RCC_I2C3_CLK_DISABLE();
 209:Src/i2c.c     ****   
 210:Src/i2c.c     ****     /**I2C3 GPIO Configuration    
 211:Src/i2c.c     ****     PH7     ------> I2C3_SCL
 212:Src/i2c.c     ****     PH8     ------> I2C3_SDA 
 213:Src/i2c.c     ****     */
 214:Src/i2c.c     ****     HAL_GPIO_DeInit(GPIOH, LCD_SCL_Pin|LCD_SDA_Pin);
 215:Src/i2c.c     **** 
 216:Src/i2c.c     ****   /* USER CODE BEGIN I2C3_MspDeInit 1 */
 217:Src/i2c.c     **** 
 218:Src/i2c.c     ****   /* USER CODE END I2C3_MspDeInit 1 */
 219:Src/i2c.c     ****   }
 220:Src/i2c.c     **** } 
 363              		.loc 1 220 0
 364 0010 08BD     		pop	{r3, pc}
 365              	.LVL22:
 366              	.L33:
 190:Src/i2c.c     ****   
 367              		.loc 1 190 0
 368 0012 02F5F232 		add	r2, r2, #123904
 369 0016 136C     		ldr	r3, [r2, #64]
 370 0018 23F40013 		bic	r3, r3, #2097152
 371 001c 1364     		str	r3, [r2, #64]
 196:Src/i2c.c     **** 
 372              		.loc 1 196 0
 373 001e 4FF44071 		mov	r1, #768
 374 0022 0A48     		ldr	r0, .L35+8
 375              	.LVL23:
 376 0024 FFF7FEFF 		bl	HAL_GPIO_DeInit
 377              	.LVL24:
 378 0028 F2E7     		b	.L29
 379              	.LVL25:
 380              	.L34:
 208:Src/i2c.c     ****   
 381              		.loc 1 208 0
 382 002a 02F5EE32 		add	r2, r2, #121856
 383 002e 136C     		ldr	r3, [r2, #64]
 384 0030 23F40003 		bic	r3, r3, #8388608
 385 0034 1364     		str	r3, [r2, #64]
 214:Src/i2c.c     **** 
 386              		.loc 1 214 0
 387 0036 4FF4C071 		mov	r1, #384
 388 003a 0548     		ldr	r0, .L35+12
 389              	.LVL26:
 390 003c FFF7FEFF 		bl	HAL_GPIO_DeInit
ARM GAS  /tmp/ccRhjfY9.s 			page 12


 391              	.LVL27:
 392              		.loc 1 220 0
 393 0040 E6E7     		b	.L29
 394              	.L36:
 395 0042 00BF     		.align	2
 396              	.L35:
 397 0044 00540040 		.word	1073763328
 398 0048 005C0040 		.word	1073765376
 399 004c 00040240 		.word	1073873920
 400 0050 001C0240 		.word	1073880064
 401              		.cfi_endproc
 402              	.LFE141:
 404              		.comm	hi2c3,76,4
 405              		.comm	hi2c1,76,4
 406              		.section	.rodata.MX_I2C1_Init.str1.4,"aMS",%progbits,1
 407              		.align	2
 408              	.LC0:
 409 0000 5372632F 		.ascii	"Src/i2c.c\000"
 409      6932632E 
 409      6300
 410              		.text
 411              	.Letext0:
 412              		.file 2 "/home/warranyu/opt/gcc-arm-none-eabi-7-2018-q2-update/arm-none-eabi/include/machine/_defa
 413              		.file 3 "/home/warranyu/opt/gcc-arm-none-eabi-7-2018-q2-update/arm-none-eabi/include/sys/_stdint.h
 414              		.file 4 "Drivers/CMSIS/Include/core_cm7.h"
 415              		.file 5 "Drivers/CMSIS/Device/ST/STM32F7xx/Include/system_stm32f7xx.h"
 416              		.file 6 "Drivers/CMSIS/Device/ST/STM32F7xx/Include/stm32f746xx.h"
 417              		.file 7 "/home/warranyu/opt/gcc-arm-none-eabi-7-2018-q2-update/arm-none-eabi/include/sys/lock.h"
 418              		.file 8 "/home/warranyu/opt/gcc-arm-none-eabi-7-2018-q2-update/arm-none-eabi/include/sys/_types.h"
 419              		.file 9 "/home/warranyu/opt/gcc-arm-none-eabi-7-2018-q2-update/lib/gcc/arm-none-eabi/7.3.1/include
 420              		.file 10 "/home/warranyu/opt/gcc-arm-none-eabi-7-2018-q2-update/arm-none-eabi/include/sys/reent.h"
 421              		.file 11 "Drivers/STM32F7xx_HAL_Driver/Inc/stm32f7xx_hal_def.h"
 422              		.file 12 "Drivers/STM32F7xx_HAL_Driver/Inc/stm32f7xx_hal_gpio.h"
 423              		.file 13 "Drivers/STM32F7xx_HAL_Driver/Inc/stm32f7xx_hal_dma.h"
 424              		.file 14 "Drivers/STM32F7xx_HAL_Driver/Inc/stm32f7xx_hal_i2c.h"
 425              		.file 15 "Inc/i2c.h"
 426              		.file 16 "Drivers/STM32F7xx_HAL_Driver/Inc/stm32f7xx_hal_i2c_ex.h"
ARM GAS  /tmp/ccRhjfY9.s 			page 13

