ARM GAS  /tmp/ccGDlo4w.s 			page 1


   1              		.cpu cortex-m7
   2              		.eabi_attribute 27, 1
   3              		.eabi_attribute 28, 1
   4              		.eabi_attribute 20, 1
   5              		.eabi_attribute 21, 1
   6              		.eabi_attribute 23, 3
   7              		.eabi_attribute 24, 1
   8              		.eabi_attribute 25, 1
   9              		.eabi_attribute 26, 1
  10              		.eabi_attribute 30, 1
  11              		.eabi_attribute 34, 1
  12              		.eabi_attribute 18, 4
  13              		.file	"stm32f7xx_hal_hcd.c"
  14              		.text
  15              	.Ltext0:
  16              		.cfi_sections	.debug_frame
  17              		.section	.text.HCD_RXQLVL_IRQHandler,"ax",%progbits
  18              		.align	1
  19              		.syntax unified
  20              		.thumb
  21              		.thumb_func
  22              		.fpu fpv5-sp-d16
  24              	HCD_RXQLVL_IRQHandler:
  25              	.LFB163:
  26              		.file 1 "Drivers/STM32F7xx_HAL_Driver/Src/stm32f7xx_hal_hcd.c"
   1:Drivers/STM32F7xx_HAL_Driver/Src/stm32f7xx_hal_hcd.c **** /**
   2:Drivers/STM32F7xx_HAL_Driver/Src/stm32f7xx_hal_hcd.c ****   ******************************************************************************
   3:Drivers/STM32F7xx_HAL_Driver/Src/stm32f7xx_hal_hcd.c ****   * @file    stm32f7xx_hal_hcd.c
   4:Drivers/STM32F7xx_HAL_Driver/Src/stm32f7xx_hal_hcd.c ****   * @author  MCD Application Team
   5:Drivers/STM32F7xx_HAL_Driver/Src/stm32f7xx_hal_hcd.c ****   * @brief   HCD HAL module driver.
   6:Drivers/STM32F7xx_HAL_Driver/Src/stm32f7xx_hal_hcd.c ****   *          This file provides firmware functions to manage the following
   7:Drivers/STM32F7xx_HAL_Driver/Src/stm32f7xx_hal_hcd.c ****   *          functionalities of the USB Peripheral Controller:
   8:Drivers/STM32F7xx_HAL_Driver/Src/stm32f7xx_hal_hcd.c ****   *           + Initialization and de-initialization functions
   9:Drivers/STM32F7xx_HAL_Driver/Src/stm32f7xx_hal_hcd.c ****   *           + IO operation functions
  10:Drivers/STM32F7xx_HAL_Driver/Src/stm32f7xx_hal_hcd.c ****   *           + Peripheral Control functions
  11:Drivers/STM32F7xx_HAL_Driver/Src/stm32f7xx_hal_hcd.c ****   *           + Peripheral State functions
  12:Drivers/STM32F7xx_HAL_Driver/Src/stm32f7xx_hal_hcd.c ****   *
  13:Drivers/STM32F7xx_HAL_Driver/Src/stm32f7xx_hal_hcd.c ****   @verbatim
  14:Drivers/STM32F7xx_HAL_Driver/Src/stm32f7xx_hal_hcd.c ****   ==============================================================================
  15:Drivers/STM32F7xx_HAL_Driver/Src/stm32f7xx_hal_hcd.c ****                     ##### How to use this driver #####
  16:Drivers/STM32F7xx_HAL_Driver/Src/stm32f7xx_hal_hcd.c ****   ==============================================================================
  17:Drivers/STM32F7xx_HAL_Driver/Src/stm32f7xx_hal_hcd.c ****   [..]
  18:Drivers/STM32F7xx_HAL_Driver/Src/stm32f7xx_hal_hcd.c ****     (#)Declare a HCD_HandleTypeDef handle structure, for example:
  19:Drivers/STM32F7xx_HAL_Driver/Src/stm32f7xx_hal_hcd.c ****        HCD_HandleTypeDef  hhcd;
  20:Drivers/STM32F7xx_HAL_Driver/Src/stm32f7xx_hal_hcd.c **** 
  21:Drivers/STM32F7xx_HAL_Driver/Src/stm32f7xx_hal_hcd.c ****     (#)Fill parameters of Init structure in HCD handle
  22:Drivers/STM32F7xx_HAL_Driver/Src/stm32f7xx_hal_hcd.c **** 
  23:Drivers/STM32F7xx_HAL_Driver/Src/stm32f7xx_hal_hcd.c ****     (#)Call HAL_HCD_Init() API to initialize the HCD peripheral (Core, Host core, ...)
  24:Drivers/STM32F7xx_HAL_Driver/Src/stm32f7xx_hal_hcd.c **** 
  25:Drivers/STM32F7xx_HAL_Driver/Src/stm32f7xx_hal_hcd.c ****     (#)Initialize the HCD low level resources through the HAL_HCD_MspInit() API:
  26:Drivers/STM32F7xx_HAL_Driver/Src/stm32f7xx_hal_hcd.c ****         (##) Enable the HCD/USB Low Level interface clock using the following macros
  27:Drivers/STM32F7xx_HAL_Driver/Src/stm32f7xx_hal_hcd.c ****              (+++) __HAL_RCC_USB_OTG_FS_CLK_ENABLE();
  28:Drivers/STM32F7xx_HAL_Driver/Src/stm32f7xx_hal_hcd.c ****              (+++) __HAL_RCC_USB_OTG_HS_CLK_ENABLE(); (For High Speed Mode)
  29:Drivers/STM32F7xx_HAL_Driver/Src/stm32f7xx_hal_hcd.c ****              (+++) __HAL_RCC_USB_OTG_HS_ULPI_CLK_ENABLE(); (For High Speed Mode)
  30:Drivers/STM32F7xx_HAL_Driver/Src/stm32f7xx_hal_hcd.c **** 
  31:Drivers/STM32F7xx_HAL_Driver/Src/stm32f7xx_hal_hcd.c ****         (##) Initialize the related GPIO clocks
  32:Drivers/STM32F7xx_HAL_Driver/Src/stm32f7xx_hal_hcd.c ****         (##) Configure HCD pin-out
ARM GAS  /tmp/ccGDlo4w.s 			page 2


  33:Drivers/STM32F7xx_HAL_Driver/Src/stm32f7xx_hal_hcd.c ****         (##) Configure HCD NVIC interrupt
  34:Drivers/STM32F7xx_HAL_Driver/Src/stm32f7xx_hal_hcd.c **** 
  35:Drivers/STM32F7xx_HAL_Driver/Src/stm32f7xx_hal_hcd.c ****     (#)Associate the Upper USB Host stack to the HAL HCD Driver:
  36:Drivers/STM32F7xx_HAL_Driver/Src/stm32f7xx_hal_hcd.c ****         (##) hhcd.pData = phost;
  37:Drivers/STM32F7xx_HAL_Driver/Src/stm32f7xx_hal_hcd.c **** 
  38:Drivers/STM32F7xx_HAL_Driver/Src/stm32f7xx_hal_hcd.c ****     (#)Enable HCD transmission and reception:
  39:Drivers/STM32F7xx_HAL_Driver/Src/stm32f7xx_hal_hcd.c ****         (##) HAL_HCD_Start();
  40:Drivers/STM32F7xx_HAL_Driver/Src/stm32f7xx_hal_hcd.c **** 
  41:Drivers/STM32F7xx_HAL_Driver/Src/stm32f7xx_hal_hcd.c ****   @endverbatim
  42:Drivers/STM32F7xx_HAL_Driver/Src/stm32f7xx_hal_hcd.c ****   ******************************************************************************
  43:Drivers/STM32F7xx_HAL_Driver/Src/stm32f7xx_hal_hcd.c ****   * @attention
  44:Drivers/STM32F7xx_HAL_Driver/Src/stm32f7xx_hal_hcd.c ****   *
  45:Drivers/STM32F7xx_HAL_Driver/Src/stm32f7xx_hal_hcd.c ****   * <h2><center>&copy; COPYRIGHT(c) 2017 STMicroelectronics</center></h2>
  46:Drivers/STM32F7xx_HAL_Driver/Src/stm32f7xx_hal_hcd.c ****   *
  47:Drivers/STM32F7xx_HAL_Driver/Src/stm32f7xx_hal_hcd.c ****   * Redistribution and use in source and binary forms, with or without modification,
  48:Drivers/STM32F7xx_HAL_Driver/Src/stm32f7xx_hal_hcd.c ****   * are permitted provided that the following conditions are met:
  49:Drivers/STM32F7xx_HAL_Driver/Src/stm32f7xx_hal_hcd.c ****   *   1. Redistributions of source code must retain the above copyright notice,
  50:Drivers/STM32F7xx_HAL_Driver/Src/stm32f7xx_hal_hcd.c ****   *      this list of conditions and the following disclaimer.
  51:Drivers/STM32F7xx_HAL_Driver/Src/stm32f7xx_hal_hcd.c ****   *   2. Redistributions in binary form must reproduce the above copyright notice,
  52:Drivers/STM32F7xx_HAL_Driver/Src/stm32f7xx_hal_hcd.c ****   *      this list of conditions and the following disclaimer in the documentation
  53:Drivers/STM32F7xx_HAL_Driver/Src/stm32f7xx_hal_hcd.c ****   *      and/or other materials provided with the distribution.
  54:Drivers/STM32F7xx_HAL_Driver/Src/stm32f7xx_hal_hcd.c ****   *   3. Neither the name of STMicroelectronics nor the names of its contributors
  55:Drivers/STM32F7xx_HAL_Driver/Src/stm32f7xx_hal_hcd.c ****   *      may be used to endorse or promote products derived from this software
  56:Drivers/STM32F7xx_HAL_Driver/Src/stm32f7xx_hal_hcd.c ****   *      without specific prior written permission.
  57:Drivers/STM32F7xx_HAL_Driver/Src/stm32f7xx_hal_hcd.c ****   *
  58:Drivers/STM32F7xx_HAL_Driver/Src/stm32f7xx_hal_hcd.c ****   * THIS SOFTWARE IS PROVIDED BY THE COPYRIGHT HOLDERS AND CONTRIBUTORS "AS IS"
  59:Drivers/STM32F7xx_HAL_Driver/Src/stm32f7xx_hal_hcd.c ****   * AND ANY EXPRESS OR IMPLIED WARRANTIES, INCLUDING, BUT NOT LIMITED TO, THE
  60:Drivers/STM32F7xx_HAL_Driver/Src/stm32f7xx_hal_hcd.c ****   * IMPLIED WARRANTIES OF MERCHANTABILITY AND FITNESS FOR A PARTICULAR PURPOSE ARE
  61:Drivers/STM32F7xx_HAL_Driver/Src/stm32f7xx_hal_hcd.c ****   * DISCLAIMED. IN NO EVENT SHALL THE COPYRIGHT HOLDER OR CONTRIBUTORS BE LIABLE
  62:Drivers/STM32F7xx_HAL_Driver/Src/stm32f7xx_hal_hcd.c ****   * FOR ANY DIRECT, INDIRECT, INCIDENTAL, SPECIAL, EXEMPLARY, OR CONSEQUENTIAL
  63:Drivers/STM32F7xx_HAL_Driver/Src/stm32f7xx_hal_hcd.c ****   * DAMAGES (INCLUDING, BUT NOT LIMITED TO, PROCUREMENT OF SUBSTITUTE GOODS OR
  64:Drivers/STM32F7xx_HAL_Driver/Src/stm32f7xx_hal_hcd.c ****   * SERVICES; LOSS OF USE, DATA, OR PROFITS; OR BUSINESS INTERRUPTION) HOWEVER
  65:Drivers/STM32F7xx_HAL_Driver/Src/stm32f7xx_hal_hcd.c ****   * CAUSED AND ON ANY THEORY OF LIABILITY, WHETHER IN CONTRACT, STRICT LIABILITY,
  66:Drivers/STM32F7xx_HAL_Driver/Src/stm32f7xx_hal_hcd.c ****   * OR TORT (INCLUDING NEGLIGENCE OR OTHERWISE) ARISING IN ANY WAY OUT OF THE USE
  67:Drivers/STM32F7xx_HAL_Driver/Src/stm32f7xx_hal_hcd.c ****   * OF THIS SOFTWARE, EVEN IF ADVISED OF THE POSSIBILITY OF SUCH DAMAGE.
  68:Drivers/STM32F7xx_HAL_Driver/Src/stm32f7xx_hal_hcd.c ****   *
  69:Drivers/STM32F7xx_HAL_Driver/Src/stm32f7xx_hal_hcd.c ****   ******************************************************************************
  70:Drivers/STM32F7xx_HAL_Driver/Src/stm32f7xx_hal_hcd.c ****   */
  71:Drivers/STM32F7xx_HAL_Driver/Src/stm32f7xx_hal_hcd.c **** 
  72:Drivers/STM32F7xx_HAL_Driver/Src/stm32f7xx_hal_hcd.c **** /* Includes ------------------------------------------------------------------*/
  73:Drivers/STM32F7xx_HAL_Driver/Src/stm32f7xx_hal_hcd.c **** #include "stm32f7xx_hal.h"
  74:Drivers/STM32F7xx_HAL_Driver/Src/stm32f7xx_hal_hcd.c **** 
  75:Drivers/STM32F7xx_HAL_Driver/Src/stm32f7xx_hal_hcd.c **** /** @addtogroup STM32F7xx_HAL_Driver
  76:Drivers/STM32F7xx_HAL_Driver/Src/stm32f7xx_hal_hcd.c ****   * @{
  77:Drivers/STM32F7xx_HAL_Driver/Src/stm32f7xx_hal_hcd.c ****   */
  78:Drivers/STM32F7xx_HAL_Driver/Src/stm32f7xx_hal_hcd.c **** 
  79:Drivers/STM32F7xx_HAL_Driver/Src/stm32f7xx_hal_hcd.c **** /** @defgroup HCD HCD
  80:Drivers/STM32F7xx_HAL_Driver/Src/stm32f7xx_hal_hcd.c ****   * @brief HCD HAL module driver
  81:Drivers/STM32F7xx_HAL_Driver/Src/stm32f7xx_hal_hcd.c ****   * @{
  82:Drivers/STM32F7xx_HAL_Driver/Src/stm32f7xx_hal_hcd.c ****   */
  83:Drivers/STM32F7xx_HAL_Driver/Src/stm32f7xx_hal_hcd.c **** 
  84:Drivers/STM32F7xx_HAL_Driver/Src/stm32f7xx_hal_hcd.c **** #ifdef HAL_HCD_MODULE_ENABLED
  85:Drivers/STM32F7xx_HAL_Driver/Src/stm32f7xx_hal_hcd.c **** 
  86:Drivers/STM32F7xx_HAL_Driver/Src/stm32f7xx_hal_hcd.c **** /* Private typedef -----------------------------------------------------------*/
  87:Drivers/STM32F7xx_HAL_Driver/Src/stm32f7xx_hal_hcd.c **** /* Private define ------------------------------------------------------------*/
  88:Drivers/STM32F7xx_HAL_Driver/Src/stm32f7xx_hal_hcd.c **** /* Private macro -------------------------------------------------------------*/
  89:Drivers/STM32F7xx_HAL_Driver/Src/stm32f7xx_hal_hcd.c **** /* Private variables ---------------------------------------------------------*/
ARM GAS  /tmp/ccGDlo4w.s 			page 3


  90:Drivers/STM32F7xx_HAL_Driver/Src/stm32f7xx_hal_hcd.c **** /* Private function ----------------------------------------------------------*/
  91:Drivers/STM32F7xx_HAL_Driver/Src/stm32f7xx_hal_hcd.c **** /** @defgroup HCD_Private_Functions HCD Private Functions
  92:Drivers/STM32F7xx_HAL_Driver/Src/stm32f7xx_hal_hcd.c ****   * @{
  93:Drivers/STM32F7xx_HAL_Driver/Src/stm32f7xx_hal_hcd.c ****   */
  94:Drivers/STM32F7xx_HAL_Driver/Src/stm32f7xx_hal_hcd.c **** static void HCD_HC_IN_IRQHandler(HCD_HandleTypeDef *hhcd, uint8_t chnum);
  95:Drivers/STM32F7xx_HAL_Driver/Src/stm32f7xx_hal_hcd.c **** static void HCD_HC_OUT_IRQHandler(HCD_HandleTypeDef *hhcd, uint8_t chnum);
  96:Drivers/STM32F7xx_HAL_Driver/Src/stm32f7xx_hal_hcd.c **** static void HCD_RXQLVL_IRQHandler(HCD_HandleTypeDef *hhcd);
  97:Drivers/STM32F7xx_HAL_Driver/Src/stm32f7xx_hal_hcd.c **** static void HCD_Port_IRQHandler(HCD_HandleTypeDef *hhcd);
  98:Drivers/STM32F7xx_HAL_Driver/Src/stm32f7xx_hal_hcd.c **** /**
  99:Drivers/STM32F7xx_HAL_Driver/Src/stm32f7xx_hal_hcd.c ****   * @}
 100:Drivers/STM32F7xx_HAL_Driver/Src/stm32f7xx_hal_hcd.c ****   */
 101:Drivers/STM32F7xx_HAL_Driver/Src/stm32f7xx_hal_hcd.c **** 
 102:Drivers/STM32F7xx_HAL_Driver/Src/stm32f7xx_hal_hcd.c **** /* Exported functions --------------------------------------------------------*/
 103:Drivers/STM32F7xx_HAL_Driver/Src/stm32f7xx_hal_hcd.c **** /** @defgroup HCD_Exported_Functions HCD Exported Functions
 104:Drivers/STM32F7xx_HAL_Driver/Src/stm32f7xx_hal_hcd.c ****   * @{
 105:Drivers/STM32F7xx_HAL_Driver/Src/stm32f7xx_hal_hcd.c ****   */
 106:Drivers/STM32F7xx_HAL_Driver/Src/stm32f7xx_hal_hcd.c **** 
 107:Drivers/STM32F7xx_HAL_Driver/Src/stm32f7xx_hal_hcd.c **** /** @defgroup HCD_Exported_Functions_Group1 Initialization and de-initialization functions
 108:Drivers/STM32F7xx_HAL_Driver/Src/stm32f7xx_hal_hcd.c ****  *  @brief    Initialization and Configuration functions
 109:Drivers/STM32F7xx_HAL_Driver/Src/stm32f7xx_hal_hcd.c ****  *
 110:Drivers/STM32F7xx_HAL_Driver/Src/stm32f7xx_hal_hcd.c **** @verbatim
 111:Drivers/STM32F7xx_HAL_Driver/Src/stm32f7xx_hal_hcd.c ****  ===============================================================================
 112:Drivers/STM32F7xx_HAL_Driver/Src/stm32f7xx_hal_hcd.c ****           ##### Initialization and de-initialization functions #####
 113:Drivers/STM32F7xx_HAL_Driver/Src/stm32f7xx_hal_hcd.c ****  ===============================================================================
 114:Drivers/STM32F7xx_HAL_Driver/Src/stm32f7xx_hal_hcd.c ****     [..]  This section provides functions allowing to:
 115:Drivers/STM32F7xx_HAL_Driver/Src/stm32f7xx_hal_hcd.c **** 
 116:Drivers/STM32F7xx_HAL_Driver/Src/stm32f7xx_hal_hcd.c **** @endverbatim
 117:Drivers/STM32F7xx_HAL_Driver/Src/stm32f7xx_hal_hcd.c ****   * @{
 118:Drivers/STM32F7xx_HAL_Driver/Src/stm32f7xx_hal_hcd.c ****   */
 119:Drivers/STM32F7xx_HAL_Driver/Src/stm32f7xx_hal_hcd.c **** 
 120:Drivers/STM32F7xx_HAL_Driver/Src/stm32f7xx_hal_hcd.c **** /**
 121:Drivers/STM32F7xx_HAL_Driver/Src/stm32f7xx_hal_hcd.c ****   * @brief  Initialize the host driver.
 122:Drivers/STM32F7xx_HAL_Driver/Src/stm32f7xx_hal_hcd.c ****   * @param  hhcd HCD handle
 123:Drivers/STM32F7xx_HAL_Driver/Src/stm32f7xx_hal_hcd.c ****   * @retval HAL status
 124:Drivers/STM32F7xx_HAL_Driver/Src/stm32f7xx_hal_hcd.c ****   */
 125:Drivers/STM32F7xx_HAL_Driver/Src/stm32f7xx_hal_hcd.c **** HAL_StatusTypeDef HAL_HCD_Init(HCD_HandleTypeDef *hhcd)
 126:Drivers/STM32F7xx_HAL_Driver/Src/stm32f7xx_hal_hcd.c **** {
 127:Drivers/STM32F7xx_HAL_Driver/Src/stm32f7xx_hal_hcd.c ****   /* Check the HCD handle allocation */
 128:Drivers/STM32F7xx_HAL_Driver/Src/stm32f7xx_hal_hcd.c ****   if(hhcd == NULL)
 129:Drivers/STM32F7xx_HAL_Driver/Src/stm32f7xx_hal_hcd.c ****   {
 130:Drivers/STM32F7xx_HAL_Driver/Src/stm32f7xx_hal_hcd.c ****     return HAL_ERROR;
 131:Drivers/STM32F7xx_HAL_Driver/Src/stm32f7xx_hal_hcd.c ****   }
 132:Drivers/STM32F7xx_HAL_Driver/Src/stm32f7xx_hal_hcd.c **** 
 133:Drivers/STM32F7xx_HAL_Driver/Src/stm32f7xx_hal_hcd.c ****   /* Check the parameters */
 134:Drivers/STM32F7xx_HAL_Driver/Src/stm32f7xx_hal_hcd.c ****   assert_param(IS_HCD_ALL_INSTANCE(hhcd->Instance));
 135:Drivers/STM32F7xx_HAL_Driver/Src/stm32f7xx_hal_hcd.c **** 
 136:Drivers/STM32F7xx_HAL_Driver/Src/stm32f7xx_hal_hcd.c ****   hhcd->State = HAL_HCD_STATE_BUSY;
 137:Drivers/STM32F7xx_HAL_Driver/Src/stm32f7xx_hal_hcd.c **** 
 138:Drivers/STM32F7xx_HAL_Driver/Src/stm32f7xx_hal_hcd.c ****   /* Init the low level hardware : GPIO, CLOCK, NVIC... */
 139:Drivers/STM32F7xx_HAL_Driver/Src/stm32f7xx_hal_hcd.c ****   HAL_HCD_MspInit(hhcd);
 140:Drivers/STM32F7xx_HAL_Driver/Src/stm32f7xx_hal_hcd.c **** 
 141:Drivers/STM32F7xx_HAL_Driver/Src/stm32f7xx_hal_hcd.c ****   /* Disable the Interrupts */
 142:Drivers/STM32F7xx_HAL_Driver/Src/stm32f7xx_hal_hcd.c ****  __HAL_HCD_DISABLE(hhcd);
 143:Drivers/STM32F7xx_HAL_Driver/Src/stm32f7xx_hal_hcd.c **** 
 144:Drivers/STM32F7xx_HAL_Driver/Src/stm32f7xx_hal_hcd.c ****  /*Init the Core (common init.) */
 145:Drivers/STM32F7xx_HAL_Driver/Src/stm32f7xx_hal_hcd.c ****  USB_CoreInit(hhcd->Instance, hhcd->Init);
 146:Drivers/STM32F7xx_HAL_Driver/Src/stm32f7xx_hal_hcd.c **** 
ARM GAS  /tmp/ccGDlo4w.s 			page 4


 147:Drivers/STM32F7xx_HAL_Driver/Src/stm32f7xx_hal_hcd.c ****  /* Force Host Mode*/
 148:Drivers/STM32F7xx_HAL_Driver/Src/stm32f7xx_hal_hcd.c ****  USB_SetCurrentMode(hhcd->Instance , USB_OTG_HOST_MODE);
 149:Drivers/STM32F7xx_HAL_Driver/Src/stm32f7xx_hal_hcd.c **** 
 150:Drivers/STM32F7xx_HAL_Driver/Src/stm32f7xx_hal_hcd.c ****  /* Init Host */
 151:Drivers/STM32F7xx_HAL_Driver/Src/stm32f7xx_hal_hcd.c ****  USB_HostInit(hhcd->Instance, hhcd->Init);
 152:Drivers/STM32F7xx_HAL_Driver/Src/stm32f7xx_hal_hcd.c **** 
 153:Drivers/STM32F7xx_HAL_Driver/Src/stm32f7xx_hal_hcd.c ****  hhcd->State= HAL_HCD_STATE_READY;
 154:Drivers/STM32F7xx_HAL_Driver/Src/stm32f7xx_hal_hcd.c **** 
 155:Drivers/STM32F7xx_HAL_Driver/Src/stm32f7xx_hal_hcd.c ****  return HAL_OK;
 156:Drivers/STM32F7xx_HAL_Driver/Src/stm32f7xx_hal_hcd.c **** }
 157:Drivers/STM32F7xx_HAL_Driver/Src/stm32f7xx_hal_hcd.c **** 
 158:Drivers/STM32F7xx_HAL_Driver/Src/stm32f7xx_hal_hcd.c **** /**
 159:Drivers/STM32F7xx_HAL_Driver/Src/stm32f7xx_hal_hcd.c ****   * @brief  Initialize a host channel.
 160:Drivers/STM32F7xx_HAL_Driver/Src/stm32f7xx_hal_hcd.c ****   * @param  hhcd HCD handle
 161:Drivers/STM32F7xx_HAL_Driver/Src/stm32f7xx_hal_hcd.c ****   * @param  ch_num Channel number.
 162:Drivers/STM32F7xx_HAL_Driver/Src/stm32f7xx_hal_hcd.c ****   *         This parameter can be a value from 1 to 15
 163:Drivers/STM32F7xx_HAL_Driver/Src/stm32f7xx_hal_hcd.c ****   * @param  epnum Endpoint number.
 164:Drivers/STM32F7xx_HAL_Driver/Src/stm32f7xx_hal_hcd.c ****   *          This parameter can be a value from 1 to 15
 165:Drivers/STM32F7xx_HAL_Driver/Src/stm32f7xx_hal_hcd.c ****   * @param  dev_address  Current device address
 166:Drivers/STM32F7xx_HAL_Driver/Src/stm32f7xx_hal_hcd.c ****   *          This parameter can be a value from 0 to 255
 167:Drivers/STM32F7xx_HAL_Driver/Src/stm32f7xx_hal_hcd.c ****   * @param  speed Current device speed.
 168:Drivers/STM32F7xx_HAL_Driver/Src/stm32f7xx_hal_hcd.c ****   *          This parameter can be one of these values:
 169:Drivers/STM32F7xx_HAL_Driver/Src/stm32f7xx_hal_hcd.c ****   *            HCD_SPEED_HIGH: High speed mode,
 170:Drivers/STM32F7xx_HAL_Driver/Src/stm32f7xx_hal_hcd.c ****   *            HCD_SPEED_FULL: Full speed mode,
 171:Drivers/STM32F7xx_HAL_Driver/Src/stm32f7xx_hal_hcd.c ****   *            HCD_SPEED_LOW: Low speed mode
 172:Drivers/STM32F7xx_HAL_Driver/Src/stm32f7xx_hal_hcd.c ****   * @param  ep_type Endpoint Type.
 173:Drivers/STM32F7xx_HAL_Driver/Src/stm32f7xx_hal_hcd.c ****   *          This parameter can be one of these values:
 174:Drivers/STM32F7xx_HAL_Driver/Src/stm32f7xx_hal_hcd.c ****   *            EP_TYPE_CTRL: Control type,
 175:Drivers/STM32F7xx_HAL_Driver/Src/stm32f7xx_hal_hcd.c ****   *            EP_TYPE_ISOC: Isochronous type,
 176:Drivers/STM32F7xx_HAL_Driver/Src/stm32f7xx_hal_hcd.c ****   *            EP_TYPE_BULK: Bulk type,
 177:Drivers/STM32F7xx_HAL_Driver/Src/stm32f7xx_hal_hcd.c ****   *            EP_TYPE_INTR: Interrupt type
 178:Drivers/STM32F7xx_HAL_Driver/Src/stm32f7xx_hal_hcd.c ****   * @param  mps Max Packet Size.
 179:Drivers/STM32F7xx_HAL_Driver/Src/stm32f7xx_hal_hcd.c ****   *          This parameter can be a value from 0 to32K
 180:Drivers/STM32F7xx_HAL_Driver/Src/stm32f7xx_hal_hcd.c ****   * @retval HAL status
 181:Drivers/STM32F7xx_HAL_Driver/Src/stm32f7xx_hal_hcd.c ****   */
 182:Drivers/STM32F7xx_HAL_Driver/Src/stm32f7xx_hal_hcd.c **** HAL_StatusTypeDef HAL_HCD_HC_Init(HCD_HandleTypeDef *hhcd,
 183:Drivers/STM32F7xx_HAL_Driver/Src/stm32f7xx_hal_hcd.c ****                                   uint8_t ch_num,
 184:Drivers/STM32F7xx_HAL_Driver/Src/stm32f7xx_hal_hcd.c ****                                   uint8_t epnum,
 185:Drivers/STM32F7xx_HAL_Driver/Src/stm32f7xx_hal_hcd.c ****                                   uint8_t dev_address,
 186:Drivers/STM32F7xx_HAL_Driver/Src/stm32f7xx_hal_hcd.c ****                                   uint8_t speed,
 187:Drivers/STM32F7xx_HAL_Driver/Src/stm32f7xx_hal_hcd.c ****                                   uint8_t ep_type,
 188:Drivers/STM32F7xx_HAL_Driver/Src/stm32f7xx_hal_hcd.c ****                                   uint16_t mps)
 189:Drivers/STM32F7xx_HAL_Driver/Src/stm32f7xx_hal_hcd.c **** {
 190:Drivers/STM32F7xx_HAL_Driver/Src/stm32f7xx_hal_hcd.c ****   HAL_StatusTypeDef status = HAL_OK;
 191:Drivers/STM32F7xx_HAL_Driver/Src/stm32f7xx_hal_hcd.c **** 
 192:Drivers/STM32F7xx_HAL_Driver/Src/stm32f7xx_hal_hcd.c ****   __HAL_LOCK(hhcd);
 193:Drivers/STM32F7xx_HAL_Driver/Src/stm32f7xx_hal_hcd.c ****   hhcd->hc[ch_num].do_ping = 0;
 194:Drivers/STM32F7xx_HAL_Driver/Src/stm32f7xx_hal_hcd.c ****   hhcd->hc[ch_num].dev_addr = dev_address;
 195:Drivers/STM32F7xx_HAL_Driver/Src/stm32f7xx_hal_hcd.c ****   hhcd->hc[ch_num].max_packet = mps;
 196:Drivers/STM32F7xx_HAL_Driver/Src/stm32f7xx_hal_hcd.c ****   hhcd->hc[ch_num].ch_num = ch_num;
 197:Drivers/STM32F7xx_HAL_Driver/Src/stm32f7xx_hal_hcd.c ****   hhcd->hc[ch_num].ep_type = ep_type;
 198:Drivers/STM32F7xx_HAL_Driver/Src/stm32f7xx_hal_hcd.c ****   hhcd->hc[ch_num].ep_num = epnum & 0x7F;
 199:Drivers/STM32F7xx_HAL_Driver/Src/stm32f7xx_hal_hcd.c ****   hhcd->hc[ch_num].ep_is_in = ((epnum & 0x80) == 0x80);
 200:Drivers/STM32F7xx_HAL_Driver/Src/stm32f7xx_hal_hcd.c ****   hhcd->hc[ch_num].speed = speed;
 201:Drivers/STM32F7xx_HAL_Driver/Src/stm32f7xx_hal_hcd.c **** 
 202:Drivers/STM32F7xx_HAL_Driver/Src/stm32f7xx_hal_hcd.c ****   status =  USB_HC_Init(hhcd->Instance,
 203:Drivers/STM32F7xx_HAL_Driver/Src/stm32f7xx_hal_hcd.c ****                         ch_num,
ARM GAS  /tmp/ccGDlo4w.s 			page 5


 204:Drivers/STM32F7xx_HAL_Driver/Src/stm32f7xx_hal_hcd.c ****                         epnum,
 205:Drivers/STM32F7xx_HAL_Driver/Src/stm32f7xx_hal_hcd.c ****                         dev_address,
 206:Drivers/STM32F7xx_HAL_Driver/Src/stm32f7xx_hal_hcd.c ****                         speed,
 207:Drivers/STM32F7xx_HAL_Driver/Src/stm32f7xx_hal_hcd.c ****                         ep_type,
 208:Drivers/STM32F7xx_HAL_Driver/Src/stm32f7xx_hal_hcd.c ****                         mps);
 209:Drivers/STM32F7xx_HAL_Driver/Src/stm32f7xx_hal_hcd.c ****   __HAL_UNLOCK(hhcd);
 210:Drivers/STM32F7xx_HAL_Driver/Src/stm32f7xx_hal_hcd.c **** 
 211:Drivers/STM32F7xx_HAL_Driver/Src/stm32f7xx_hal_hcd.c ****   return status;
 212:Drivers/STM32F7xx_HAL_Driver/Src/stm32f7xx_hal_hcd.c **** }
 213:Drivers/STM32F7xx_HAL_Driver/Src/stm32f7xx_hal_hcd.c **** 
 214:Drivers/STM32F7xx_HAL_Driver/Src/stm32f7xx_hal_hcd.c **** /**
 215:Drivers/STM32F7xx_HAL_Driver/Src/stm32f7xx_hal_hcd.c ****   * @brief  Halt a host channel.
 216:Drivers/STM32F7xx_HAL_Driver/Src/stm32f7xx_hal_hcd.c ****   * @param  hhcd HCD handle
 217:Drivers/STM32F7xx_HAL_Driver/Src/stm32f7xx_hal_hcd.c ****   * @param  ch_num Channel number.
 218:Drivers/STM32F7xx_HAL_Driver/Src/stm32f7xx_hal_hcd.c ****   *         This parameter can be a value from 1 to 15
 219:Drivers/STM32F7xx_HAL_Driver/Src/stm32f7xx_hal_hcd.c ****   * @retval HAL status
 220:Drivers/STM32F7xx_HAL_Driver/Src/stm32f7xx_hal_hcd.c ****   */
 221:Drivers/STM32F7xx_HAL_Driver/Src/stm32f7xx_hal_hcd.c **** HAL_StatusTypeDef HAL_HCD_HC_Halt(HCD_HandleTypeDef *hhcd, uint8_t ch_num)
 222:Drivers/STM32F7xx_HAL_Driver/Src/stm32f7xx_hal_hcd.c **** {
 223:Drivers/STM32F7xx_HAL_Driver/Src/stm32f7xx_hal_hcd.c ****   HAL_StatusTypeDef status = HAL_OK;
 224:Drivers/STM32F7xx_HAL_Driver/Src/stm32f7xx_hal_hcd.c **** 
 225:Drivers/STM32F7xx_HAL_Driver/Src/stm32f7xx_hal_hcd.c ****   __HAL_LOCK(hhcd);
 226:Drivers/STM32F7xx_HAL_Driver/Src/stm32f7xx_hal_hcd.c ****   USB_HC_Halt(hhcd->Instance, ch_num);
 227:Drivers/STM32F7xx_HAL_Driver/Src/stm32f7xx_hal_hcd.c ****   __HAL_UNLOCK(hhcd);
 228:Drivers/STM32F7xx_HAL_Driver/Src/stm32f7xx_hal_hcd.c **** 
 229:Drivers/STM32F7xx_HAL_Driver/Src/stm32f7xx_hal_hcd.c ****   return status;
 230:Drivers/STM32F7xx_HAL_Driver/Src/stm32f7xx_hal_hcd.c **** }
 231:Drivers/STM32F7xx_HAL_Driver/Src/stm32f7xx_hal_hcd.c **** 
 232:Drivers/STM32F7xx_HAL_Driver/Src/stm32f7xx_hal_hcd.c **** /**
 233:Drivers/STM32F7xx_HAL_Driver/Src/stm32f7xx_hal_hcd.c ****   * @brief  DeInitialize the host driver.
 234:Drivers/STM32F7xx_HAL_Driver/Src/stm32f7xx_hal_hcd.c ****   * @param  hhcd HCD handle
 235:Drivers/STM32F7xx_HAL_Driver/Src/stm32f7xx_hal_hcd.c ****   * @retval HAL status
 236:Drivers/STM32F7xx_HAL_Driver/Src/stm32f7xx_hal_hcd.c ****   */
 237:Drivers/STM32F7xx_HAL_Driver/Src/stm32f7xx_hal_hcd.c **** HAL_StatusTypeDef HAL_HCD_DeInit(HCD_HandleTypeDef *hhcd)
 238:Drivers/STM32F7xx_HAL_Driver/Src/stm32f7xx_hal_hcd.c **** {
 239:Drivers/STM32F7xx_HAL_Driver/Src/stm32f7xx_hal_hcd.c ****   /* Check the HCD handle allocation */
 240:Drivers/STM32F7xx_HAL_Driver/Src/stm32f7xx_hal_hcd.c ****   if(hhcd == NULL)
 241:Drivers/STM32F7xx_HAL_Driver/Src/stm32f7xx_hal_hcd.c ****   {
 242:Drivers/STM32F7xx_HAL_Driver/Src/stm32f7xx_hal_hcd.c ****     return HAL_ERROR;
 243:Drivers/STM32F7xx_HAL_Driver/Src/stm32f7xx_hal_hcd.c ****   }
 244:Drivers/STM32F7xx_HAL_Driver/Src/stm32f7xx_hal_hcd.c **** 
 245:Drivers/STM32F7xx_HAL_Driver/Src/stm32f7xx_hal_hcd.c ****   hhcd->State = HAL_HCD_STATE_BUSY;
 246:Drivers/STM32F7xx_HAL_Driver/Src/stm32f7xx_hal_hcd.c **** 
 247:Drivers/STM32F7xx_HAL_Driver/Src/stm32f7xx_hal_hcd.c ****   /* DeInit the low level hardware */
 248:Drivers/STM32F7xx_HAL_Driver/Src/stm32f7xx_hal_hcd.c ****   HAL_HCD_MspDeInit(hhcd);
 249:Drivers/STM32F7xx_HAL_Driver/Src/stm32f7xx_hal_hcd.c **** 
 250:Drivers/STM32F7xx_HAL_Driver/Src/stm32f7xx_hal_hcd.c ****    __HAL_HCD_DISABLE(hhcd);
 251:Drivers/STM32F7xx_HAL_Driver/Src/stm32f7xx_hal_hcd.c **** 
 252:Drivers/STM32F7xx_HAL_Driver/Src/stm32f7xx_hal_hcd.c ****   hhcd->State = HAL_HCD_STATE_RESET;
 253:Drivers/STM32F7xx_HAL_Driver/Src/stm32f7xx_hal_hcd.c **** 
 254:Drivers/STM32F7xx_HAL_Driver/Src/stm32f7xx_hal_hcd.c ****   return HAL_OK;
 255:Drivers/STM32F7xx_HAL_Driver/Src/stm32f7xx_hal_hcd.c **** }
 256:Drivers/STM32F7xx_HAL_Driver/Src/stm32f7xx_hal_hcd.c **** 
 257:Drivers/STM32F7xx_HAL_Driver/Src/stm32f7xx_hal_hcd.c **** /**
 258:Drivers/STM32F7xx_HAL_Driver/Src/stm32f7xx_hal_hcd.c ****   * @brief  Initialize the HCD MSP.
 259:Drivers/STM32F7xx_HAL_Driver/Src/stm32f7xx_hal_hcd.c ****   * @param  hhcd HCD handle
 260:Drivers/STM32F7xx_HAL_Driver/Src/stm32f7xx_hal_hcd.c ****   * @retval None
ARM GAS  /tmp/ccGDlo4w.s 			page 6


 261:Drivers/STM32F7xx_HAL_Driver/Src/stm32f7xx_hal_hcd.c ****   */
 262:Drivers/STM32F7xx_HAL_Driver/Src/stm32f7xx_hal_hcd.c **** __weak void  HAL_HCD_MspInit(HCD_HandleTypeDef *hhcd)
 263:Drivers/STM32F7xx_HAL_Driver/Src/stm32f7xx_hal_hcd.c **** {
 264:Drivers/STM32F7xx_HAL_Driver/Src/stm32f7xx_hal_hcd.c ****   /* Prevent unused argument(s) compilation warning */
 265:Drivers/STM32F7xx_HAL_Driver/Src/stm32f7xx_hal_hcd.c ****   UNUSED(hhcd);
 266:Drivers/STM32F7xx_HAL_Driver/Src/stm32f7xx_hal_hcd.c **** 
 267:Drivers/STM32F7xx_HAL_Driver/Src/stm32f7xx_hal_hcd.c ****   /* NOTE : This function Should not be modified, when the callback is needed,
 268:Drivers/STM32F7xx_HAL_Driver/Src/stm32f7xx_hal_hcd.c ****             the HAL_HCD_MspInit could be implemented in the user file
 269:Drivers/STM32F7xx_HAL_Driver/Src/stm32f7xx_hal_hcd.c ****    */
 270:Drivers/STM32F7xx_HAL_Driver/Src/stm32f7xx_hal_hcd.c **** }
 271:Drivers/STM32F7xx_HAL_Driver/Src/stm32f7xx_hal_hcd.c **** 
 272:Drivers/STM32F7xx_HAL_Driver/Src/stm32f7xx_hal_hcd.c **** /**
 273:Drivers/STM32F7xx_HAL_Driver/Src/stm32f7xx_hal_hcd.c ****   * @brief  DeInitialize the HCD MSP.
 274:Drivers/STM32F7xx_HAL_Driver/Src/stm32f7xx_hal_hcd.c ****   * @param  hhcd HCD handle
 275:Drivers/STM32F7xx_HAL_Driver/Src/stm32f7xx_hal_hcd.c ****   * @retval None
 276:Drivers/STM32F7xx_HAL_Driver/Src/stm32f7xx_hal_hcd.c ****   */
 277:Drivers/STM32F7xx_HAL_Driver/Src/stm32f7xx_hal_hcd.c **** __weak void  HAL_HCD_MspDeInit(HCD_HandleTypeDef *hhcd)
 278:Drivers/STM32F7xx_HAL_Driver/Src/stm32f7xx_hal_hcd.c **** {
 279:Drivers/STM32F7xx_HAL_Driver/Src/stm32f7xx_hal_hcd.c ****   /* Prevent unused argument(s) compilation warning */
 280:Drivers/STM32F7xx_HAL_Driver/Src/stm32f7xx_hal_hcd.c ****   UNUSED(hhcd);
 281:Drivers/STM32F7xx_HAL_Driver/Src/stm32f7xx_hal_hcd.c **** 
 282:Drivers/STM32F7xx_HAL_Driver/Src/stm32f7xx_hal_hcd.c ****   /* NOTE : This function Should not be modified, when the callback is needed,
 283:Drivers/STM32F7xx_HAL_Driver/Src/stm32f7xx_hal_hcd.c ****             the HAL_HCD_MspDeInit could be implemented in the user file
 284:Drivers/STM32F7xx_HAL_Driver/Src/stm32f7xx_hal_hcd.c ****    */
 285:Drivers/STM32F7xx_HAL_Driver/Src/stm32f7xx_hal_hcd.c **** }
 286:Drivers/STM32F7xx_HAL_Driver/Src/stm32f7xx_hal_hcd.c **** 
 287:Drivers/STM32F7xx_HAL_Driver/Src/stm32f7xx_hal_hcd.c **** /**
 288:Drivers/STM32F7xx_HAL_Driver/Src/stm32f7xx_hal_hcd.c ****   * @}
 289:Drivers/STM32F7xx_HAL_Driver/Src/stm32f7xx_hal_hcd.c ****   */
 290:Drivers/STM32F7xx_HAL_Driver/Src/stm32f7xx_hal_hcd.c **** 
 291:Drivers/STM32F7xx_HAL_Driver/Src/stm32f7xx_hal_hcd.c **** /** @defgroup HCD_Exported_Functions_Group2 Input and Output operation functions
 292:Drivers/STM32F7xx_HAL_Driver/Src/stm32f7xx_hal_hcd.c ****   *  @brief   HCD IO operation functions
 293:Drivers/STM32F7xx_HAL_Driver/Src/stm32f7xx_hal_hcd.c ****   *
 294:Drivers/STM32F7xx_HAL_Driver/Src/stm32f7xx_hal_hcd.c **** @verbatim
 295:Drivers/STM32F7xx_HAL_Driver/Src/stm32f7xx_hal_hcd.c ****  ===============================================================================
 296:Drivers/STM32F7xx_HAL_Driver/Src/stm32f7xx_hal_hcd.c ****                       ##### IO operation functions #####
 297:Drivers/STM32F7xx_HAL_Driver/Src/stm32f7xx_hal_hcd.c ****  ===============================================================================
 298:Drivers/STM32F7xx_HAL_Driver/Src/stm32f7xx_hal_hcd.c ****  [..] This subsection provides a set of functions allowing to manage the USB Host Data
 299:Drivers/STM32F7xx_HAL_Driver/Src/stm32f7xx_hal_hcd.c ****     Transfer
 300:Drivers/STM32F7xx_HAL_Driver/Src/stm32f7xx_hal_hcd.c **** 
 301:Drivers/STM32F7xx_HAL_Driver/Src/stm32f7xx_hal_hcd.c **** @endverbatim
 302:Drivers/STM32F7xx_HAL_Driver/Src/stm32f7xx_hal_hcd.c ****   * @{
 303:Drivers/STM32F7xx_HAL_Driver/Src/stm32f7xx_hal_hcd.c ****   */
 304:Drivers/STM32F7xx_HAL_Driver/Src/stm32f7xx_hal_hcd.c **** 
 305:Drivers/STM32F7xx_HAL_Driver/Src/stm32f7xx_hal_hcd.c **** /**
 306:Drivers/STM32F7xx_HAL_Driver/Src/stm32f7xx_hal_hcd.c ****   * @brief  Submit a new URB for processing.
 307:Drivers/STM32F7xx_HAL_Driver/Src/stm32f7xx_hal_hcd.c ****   * @param  hhcd HCD handle
 308:Drivers/STM32F7xx_HAL_Driver/Src/stm32f7xx_hal_hcd.c ****   * @param  ch_num Channel number.
 309:Drivers/STM32F7xx_HAL_Driver/Src/stm32f7xx_hal_hcd.c ****   *         This parameter can be a value from 1 to 15
 310:Drivers/STM32F7xx_HAL_Driver/Src/stm32f7xx_hal_hcd.c ****   * @param  direction Channel number.
 311:Drivers/STM32F7xx_HAL_Driver/Src/stm32f7xx_hal_hcd.c ****   *          This parameter can be one of these values:
 312:Drivers/STM32F7xx_HAL_Driver/Src/stm32f7xx_hal_hcd.c ****   *           0 : Output / 1 : Input
 313:Drivers/STM32F7xx_HAL_Driver/Src/stm32f7xx_hal_hcd.c ****   * @param  ep_type Endpoint Type.
 314:Drivers/STM32F7xx_HAL_Driver/Src/stm32f7xx_hal_hcd.c ****   *          This parameter can be one of these values:
 315:Drivers/STM32F7xx_HAL_Driver/Src/stm32f7xx_hal_hcd.c ****   *            EP_TYPE_CTRL: Control type/
 316:Drivers/STM32F7xx_HAL_Driver/Src/stm32f7xx_hal_hcd.c ****   *            EP_TYPE_ISOC: Isochronous type/
 317:Drivers/STM32F7xx_HAL_Driver/Src/stm32f7xx_hal_hcd.c ****   *            EP_TYPE_BULK: Bulk type/
ARM GAS  /tmp/ccGDlo4w.s 			page 7


 318:Drivers/STM32F7xx_HAL_Driver/Src/stm32f7xx_hal_hcd.c ****   *            EP_TYPE_INTR: Interrupt type/
 319:Drivers/STM32F7xx_HAL_Driver/Src/stm32f7xx_hal_hcd.c ****   * @param  token Endpoint Type.
 320:Drivers/STM32F7xx_HAL_Driver/Src/stm32f7xx_hal_hcd.c ****   *          This parameter can be one of these values:
 321:Drivers/STM32F7xx_HAL_Driver/Src/stm32f7xx_hal_hcd.c ****   *            0: HC_PID_SETUP / 1: HC_PID_DATA1
 322:Drivers/STM32F7xx_HAL_Driver/Src/stm32f7xx_hal_hcd.c ****   * @param  pbuff pointer to URB data
 323:Drivers/STM32F7xx_HAL_Driver/Src/stm32f7xx_hal_hcd.c ****   * @param  length Length of URB data
 324:Drivers/STM32F7xx_HAL_Driver/Src/stm32f7xx_hal_hcd.c ****   * @param  do_ping activate do ping protocol (for high speed only).
 325:Drivers/STM32F7xx_HAL_Driver/Src/stm32f7xx_hal_hcd.c ****   *          This parameter can be one of these values:
 326:Drivers/STM32F7xx_HAL_Driver/Src/stm32f7xx_hal_hcd.c ****   *           0 : do ping inactive / 1 : do ping active
 327:Drivers/STM32F7xx_HAL_Driver/Src/stm32f7xx_hal_hcd.c ****   * @retval HAL status
 328:Drivers/STM32F7xx_HAL_Driver/Src/stm32f7xx_hal_hcd.c ****   */
 329:Drivers/STM32F7xx_HAL_Driver/Src/stm32f7xx_hal_hcd.c **** HAL_StatusTypeDef HAL_HCD_HC_SubmitRequest(HCD_HandleTypeDef *hhcd,
 330:Drivers/STM32F7xx_HAL_Driver/Src/stm32f7xx_hal_hcd.c ****                                             uint8_t ch_num,
 331:Drivers/STM32F7xx_HAL_Driver/Src/stm32f7xx_hal_hcd.c ****                                             uint8_t direction ,
 332:Drivers/STM32F7xx_HAL_Driver/Src/stm32f7xx_hal_hcd.c ****                                             uint8_t ep_type,
 333:Drivers/STM32F7xx_HAL_Driver/Src/stm32f7xx_hal_hcd.c ****                                             uint8_t token,
 334:Drivers/STM32F7xx_HAL_Driver/Src/stm32f7xx_hal_hcd.c ****                                             uint8_t* pbuff,
 335:Drivers/STM32F7xx_HAL_Driver/Src/stm32f7xx_hal_hcd.c ****                                             uint16_t length,
 336:Drivers/STM32F7xx_HAL_Driver/Src/stm32f7xx_hal_hcd.c ****                                             uint8_t do_ping)
 337:Drivers/STM32F7xx_HAL_Driver/Src/stm32f7xx_hal_hcd.c **** {
 338:Drivers/STM32F7xx_HAL_Driver/Src/stm32f7xx_hal_hcd.c ****   hhcd->hc[ch_num].ep_is_in = direction;
 339:Drivers/STM32F7xx_HAL_Driver/Src/stm32f7xx_hal_hcd.c ****   hhcd->hc[ch_num].ep_type  = ep_type;
 340:Drivers/STM32F7xx_HAL_Driver/Src/stm32f7xx_hal_hcd.c **** 
 341:Drivers/STM32F7xx_HAL_Driver/Src/stm32f7xx_hal_hcd.c ****   if(token == 0)
 342:Drivers/STM32F7xx_HAL_Driver/Src/stm32f7xx_hal_hcd.c ****   {
 343:Drivers/STM32F7xx_HAL_Driver/Src/stm32f7xx_hal_hcd.c ****     hhcd->hc[ch_num].data_pid = HC_PID_SETUP;
 344:Drivers/STM32F7xx_HAL_Driver/Src/stm32f7xx_hal_hcd.c ****   }
 345:Drivers/STM32F7xx_HAL_Driver/Src/stm32f7xx_hal_hcd.c ****   else
 346:Drivers/STM32F7xx_HAL_Driver/Src/stm32f7xx_hal_hcd.c ****   {
 347:Drivers/STM32F7xx_HAL_Driver/Src/stm32f7xx_hal_hcd.c ****     hhcd->hc[ch_num].data_pid = HC_PID_DATA1;
 348:Drivers/STM32F7xx_HAL_Driver/Src/stm32f7xx_hal_hcd.c ****   }
 349:Drivers/STM32F7xx_HAL_Driver/Src/stm32f7xx_hal_hcd.c **** 
 350:Drivers/STM32F7xx_HAL_Driver/Src/stm32f7xx_hal_hcd.c ****   /* Manage Data Toggle */
 351:Drivers/STM32F7xx_HAL_Driver/Src/stm32f7xx_hal_hcd.c ****   switch(ep_type)
 352:Drivers/STM32F7xx_HAL_Driver/Src/stm32f7xx_hal_hcd.c ****   {
 353:Drivers/STM32F7xx_HAL_Driver/Src/stm32f7xx_hal_hcd.c ****   case EP_TYPE_CTRL:
 354:Drivers/STM32F7xx_HAL_Driver/Src/stm32f7xx_hal_hcd.c ****     if((token == 1) && (direction == 0)) /*send data */
 355:Drivers/STM32F7xx_HAL_Driver/Src/stm32f7xx_hal_hcd.c ****     {
 356:Drivers/STM32F7xx_HAL_Driver/Src/stm32f7xx_hal_hcd.c ****       if ( length == 0 )
 357:Drivers/STM32F7xx_HAL_Driver/Src/stm32f7xx_hal_hcd.c ****       { /* For Status OUT stage, Length==0, Status Out PID = 1 */
 358:Drivers/STM32F7xx_HAL_Driver/Src/stm32f7xx_hal_hcd.c ****         hhcd->hc[ch_num].toggle_out = 1;
 359:Drivers/STM32F7xx_HAL_Driver/Src/stm32f7xx_hal_hcd.c ****       }
 360:Drivers/STM32F7xx_HAL_Driver/Src/stm32f7xx_hal_hcd.c **** 
 361:Drivers/STM32F7xx_HAL_Driver/Src/stm32f7xx_hal_hcd.c ****       /* Set the Data Toggle bit as per the Flag */
 362:Drivers/STM32F7xx_HAL_Driver/Src/stm32f7xx_hal_hcd.c ****       if ( hhcd->hc[ch_num].toggle_out == 0)
 363:Drivers/STM32F7xx_HAL_Driver/Src/stm32f7xx_hal_hcd.c ****       { /* Put the PID 0 */
 364:Drivers/STM32F7xx_HAL_Driver/Src/stm32f7xx_hal_hcd.c ****         hhcd->hc[ch_num].data_pid = HC_PID_DATA0;
 365:Drivers/STM32F7xx_HAL_Driver/Src/stm32f7xx_hal_hcd.c ****       }
 366:Drivers/STM32F7xx_HAL_Driver/Src/stm32f7xx_hal_hcd.c ****       else
 367:Drivers/STM32F7xx_HAL_Driver/Src/stm32f7xx_hal_hcd.c ****       { /* Put the PID 1 */
 368:Drivers/STM32F7xx_HAL_Driver/Src/stm32f7xx_hal_hcd.c ****         hhcd->hc[ch_num].data_pid = HC_PID_DATA1;
 369:Drivers/STM32F7xx_HAL_Driver/Src/stm32f7xx_hal_hcd.c ****       }
 370:Drivers/STM32F7xx_HAL_Driver/Src/stm32f7xx_hal_hcd.c ****     }
 371:Drivers/STM32F7xx_HAL_Driver/Src/stm32f7xx_hal_hcd.c ****     break;
 372:Drivers/STM32F7xx_HAL_Driver/Src/stm32f7xx_hal_hcd.c **** 
 373:Drivers/STM32F7xx_HAL_Driver/Src/stm32f7xx_hal_hcd.c ****   case EP_TYPE_BULK:
 374:Drivers/STM32F7xx_HAL_Driver/Src/stm32f7xx_hal_hcd.c ****     if(direction == 0)
ARM GAS  /tmp/ccGDlo4w.s 			page 8


 375:Drivers/STM32F7xx_HAL_Driver/Src/stm32f7xx_hal_hcd.c ****     {
 376:Drivers/STM32F7xx_HAL_Driver/Src/stm32f7xx_hal_hcd.c ****       /* Set the Data Toggle bit as per the Flag */
 377:Drivers/STM32F7xx_HAL_Driver/Src/stm32f7xx_hal_hcd.c ****       if ( hhcd->hc[ch_num].toggle_out == 0)
 378:Drivers/STM32F7xx_HAL_Driver/Src/stm32f7xx_hal_hcd.c ****       { /* Put the PID 0 */
 379:Drivers/STM32F7xx_HAL_Driver/Src/stm32f7xx_hal_hcd.c ****         hhcd->hc[ch_num].data_pid = HC_PID_DATA0;
 380:Drivers/STM32F7xx_HAL_Driver/Src/stm32f7xx_hal_hcd.c ****       }
 381:Drivers/STM32F7xx_HAL_Driver/Src/stm32f7xx_hal_hcd.c ****       else
 382:Drivers/STM32F7xx_HAL_Driver/Src/stm32f7xx_hal_hcd.c ****       { /* Put the PID 1 */
 383:Drivers/STM32F7xx_HAL_Driver/Src/stm32f7xx_hal_hcd.c ****         hhcd->hc[ch_num].data_pid = HC_PID_DATA1;
 384:Drivers/STM32F7xx_HAL_Driver/Src/stm32f7xx_hal_hcd.c ****       }
 385:Drivers/STM32F7xx_HAL_Driver/Src/stm32f7xx_hal_hcd.c ****     }
 386:Drivers/STM32F7xx_HAL_Driver/Src/stm32f7xx_hal_hcd.c ****     else
 387:Drivers/STM32F7xx_HAL_Driver/Src/stm32f7xx_hal_hcd.c ****     {
 388:Drivers/STM32F7xx_HAL_Driver/Src/stm32f7xx_hal_hcd.c ****       if( hhcd->hc[ch_num].toggle_in == 0)
 389:Drivers/STM32F7xx_HAL_Driver/Src/stm32f7xx_hal_hcd.c ****       {
 390:Drivers/STM32F7xx_HAL_Driver/Src/stm32f7xx_hal_hcd.c ****         hhcd->hc[ch_num].data_pid = HC_PID_DATA0;
 391:Drivers/STM32F7xx_HAL_Driver/Src/stm32f7xx_hal_hcd.c ****       }
 392:Drivers/STM32F7xx_HAL_Driver/Src/stm32f7xx_hal_hcd.c ****       else
 393:Drivers/STM32F7xx_HAL_Driver/Src/stm32f7xx_hal_hcd.c ****       {
 394:Drivers/STM32F7xx_HAL_Driver/Src/stm32f7xx_hal_hcd.c ****         hhcd->hc[ch_num].data_pid = HC_PID_DATA1;
 395:Drivers/STM32F7xx_HAL_Driver/Src/stm32f7xx_hal_hcd.c ****       }
 396:Drivers/STM32F7xx_HAL_Driver/Src/stm32f7xx_hal_hcd.c ****     }
 397:Drivers/STM32F7xx_HAL_Driver/Src/stm32f7xx_hal_hcd.c **** 
 398:Drivers/STM32F7xx_HAL_Driver/Src/stm32f7xx_hal_hcd.c ****     break;
 399:Drivers/STM32F7xx_HAL_Driver/Src/stm32f7xx_hal_hcd.c ****   case EP_TYPE_INTR:
 400:Drivers/STM32F7xx_HAL_Driver/Src/stm32f7xx_hal_hcd.c ****     if(direction == 0)
 401:Drivers/STM32F7xx_HAL_Driver/Src/stm32f7xx_hal_hcd.c ****     {
 402:Drivers/STM32F7xx_HAL_Driver/Src/stm32f7xx_hal_hcd.c ****       /* Set the Data Toggle bit as per the Flag */
 403:Drivers/STM32F7xx_HAL_Driver/Src/stm32f7xx_hal_hcd.c ****       if ( hhcd->hc[ch_num].toggle_out == 0)
 404:Drivers/STM32F7xx_HAL_Driver/Src/stm32f7xx_hal_hcd.c ****       { /* Put the PID 0 */
 405:Drivers/STM32F7xx_HAL_Driver/Src/stm32f7xx_hal_hcd.c ****         hhcd->hc[ch_num].data_pid = HC_PID_DATA0;
 406:Drivers/STM32F7xx_HAL_Driver/Src/stm32f7xx_hal_hcd.c ****       }
 407:Drivers/STM32F7xx_HAL_Driver/Src/stm32f7xx_hal_hcd.c ****       else
 408:Drivers/STM32F7xx_HAL_Driver/Src/stm32f7xx_hal_hcd.c ****       { /* Put the PID 1 */
 409:Drivers/STM32F7xx_HAL_Driver/Src/stm32f7xx_hal_hcd.c ****         hhcd->hc[ch_num].data_pid = HC_PID_DATA1 ;
 410:Drivers/STM32F7xx_HAL_Driver/Src/stm32f7xx_hal_hcd.c ****       }
 411:Drivers/STM32F7xx_HAL_Driver/Src/stm32f7xx_hal_hcd.c ****     }
 412:Drivers/STM32F7xx_HAL_Driver/Src/stm32f7xx_hal_hcd.c ****     else
 413:Drivers/STM32F7xx_HAL_Driver/Src/stm32f7xx_hal_hcd.c ****     {
 414:Drivers/STM32F7xx_HAL_Driver/Src/stm32f7xx_hal_hcd.c ****       if( hhcd->hc[ch_num].toggle_in == 0)
 415:Drivers/STM32F7xx_HAL_Driver/Src/stm32f7xx_hal_hcd.c ****       {
 416:Drivers/STM32F7xx_HAL_Driver/Src/stm32f7xx_hal_hcd.c ****         hhcd->hc[ch_num].data_pid = HC_PID_DATA0;
 417:Drivers/STM32F7xx_HAL_Driver/Src/stm32f7xx_hal_hcd.c ****       }
 418:Drivers/STM32F7xx_HAL_Driver/Src/stm32f7xx_hal_hcd.c ****       else
 419:Drivers/STM32F7xx_HAL_Driver/Src/stm32f7xx_hal_hcd.c ****       {
 420:Drivers/STM32F7xx_HAL_Driver/Src/stm32f7xx_hal_hcd.c ****         hhcd->hc[ch_num].data_pid = HC_PID_DATA1;
 421:Drivers/STM32F7xx_HAL_Driver/Src/stm32f7xx_hal_hcd.c ****       }
 422:Drivers/STM32F7xx_HAL_Driver/Src/stm32f7xx_hal_hcd.c ****     }
 423:Drivers/STM32F7xx_HAL_Driver/Src/stm32f7xx_hal_hcd.c ****     break;
 424:Drivers/STM32F7xx_HAL_Driver/Src/stm32f7xx_hal_hcd.c **** 
 425:Drivers/STM32F7xx_HAL_Driver/Src/stm32f7xx_hal_hcd.c ****   case EP_TYPE_ISOC:
 426:Drivers/STM32F7xx_HAL_Driver/Src/stm32f7xx_hal_hcd.c ****     hhcd->hc[ch_num].data_pid = HC_PID_DATA0;
 427:Drivers/STM32F7xx_HAL_Driver/Src/stm32f7xx_hal_hcd.c ****     break;
 428:Drivers/STM32F7xx_HAL_Driver/Src/stm32f7xx_hal_hcd.c ****   }
 429:Drivers/STM32F7xx_HAL_Driver/Src/stm32f7xx_hal_hcd.c **** 
 430:Drivers/STM32F7xx_HAL_Driver/Src/stm32f7xx_hal_hcd.c ****   hhcd->hc[ch_num].xfer_buff = pbuff;
 431:Drivers/STM32F7xx_HAL_Driver/Src/stm32f7xx_hal_hcd.c ****   hhcd->hc[ch_num].xfer_len  = length;
ARM GAS  /tmp/ccGDlo4w.s 			page 9


 432:Drivers/STM32F7xx_HAL_Driver/Src/stm32f7xx_hal_hcd.c ****   hhcd->hc[ch_num].urb_state =   URB_IDLE;
 433:Drivers/STM32F7xx_HAL_Driver/Src/stm32f7xx_hal_hcd.c ****   hhcd->hc[ch_num].xfer_count = 0 ;
 434:Drivers/STM32F7xx_HAL_Driver/Src/stm32f7xx_hal_hcd.c ****   hhcd->hc[ch_num].ch_num = ch_num;
 435:Drivers/STM32F7xx_HAL_Driver/Src/stm32f7xx_hal_hcd.c ****   hhcd->hc[ch_num].state = HC_IDLE;
 436:Drivers/STM32F7xx_HAL_Driver/Src/stm32f7xx_hal_hcd.c **** 
 437:Drivers/STM32F7xx_HAL_Driver/Src/stm32f7xx_hal_hcd.c ****   return USB_HC_StartXfer(hhcd->Instance, &(hhcd->hc[ch_num]), hhcd->Init.dma_enable);
 438:Drivers/STM32F7xx_HAL_Driver/Src/stm32f7xx_hal_hcd.c **** }
 439:Drivers/STM32F7xx_HAL_Driver/Src/stm32f7xx_hal_hcd.c **** 
 440:Drivers/STM32F7xx_HAL_Driver/Src/stm32f7xx_hal_hcd.c **** /**
 441:Drivers/STM32F7xx_HAL_Driver/Src/stm32f7xx_hal_hcd.c ****   * @brief  Handle HCD interrupt request.
 442:Drivers/STM32F7xx_HAL_Driver/Src/stm32f7xx_hal_hcd.c ****   * @param  hhcd HCD handle
 443:Drivers/STM32F7xx_HAL_Driver/Src/stm32f7xx_hal_hcd.c ****   * @retval None
 444:Drivers/STM32F7xx_HAL_Driver/Src/stm32f7xx_hal_hcd.c ****   */
 445:Drivers/STM32F7xx_HAL_Driver/Src/stm32f7xx_hal_hcd.c **** void HAL_HCD_IRQHandler(HCD_HandleTypeDef *hhcd)
 446:Drivers/STM32F7xx_HAL_Driver/Src/stm32f7xx_hal_hcd.c **** {
 447:Drivers/STM32F7xx_HAL_Driver/Src/stm32f7xx_hal_hcd.c ****   USB_OTG_GlobalTypeDef *USBx = hhcd->Instance;
 448:Drivers/STM32F7xx_HAL_Driver/Src/stm32f7xx_hal_hcd.c ****   uint32_t i = 0 , interrupt = 0;
 449:Drivers/STM32F7xx_HAL_Driver/Src/stm32f7xx_hal_hcd.c **** 
 450:Drivers/STM32F7xx_HAL_Driver/Src/stm32f7xx_hal_hcd.c ****   /* ensure that we are in device mode */
 451:Drivers/STM32F7xx_HAL_Driver/Src/stm32f7xx_hal_hcd.c ****   if (USB_GetMode(hhcd->Instance) == USB_OTG_MODE_HOST)
 452:Drivers/STM32F7xx_HAL_Driver/Src/stm32f7xx_hal_hcd.c ****   {
 453:Drivers/STM32F7xx_HAL_Driver/Src/stm32f7xx_hal_hcd.c ****     /* avoid spurious interrupt */
 454:Drivers/STM32F7xx_HAL_Driver/Src/stm32f7xx_hal_hcd.c ****     if(__HAL_HCD_IS_INVALID_INTERRUPT(hhcd))
 455:Drivers/STM32F7xx_HAL_Driver/Src/stm32f7xx_hal_hcd.c ****     {
 456:Drivers/STM32F7xx_HAL_Driver/Src/stm32f7xx_hal_hcd.c ****       return;
 457:Drivers/STM32F7xx_HAL_Driver/Src/stm32f7xx_hal_hcd.c ****     }
 458:Drivers/STM32F7xx_HAL_Driver/Src/stm32f7xx_hal_hcd.c **** 
 459:Drivers/STM32F7xx_HAL_Driver/Src/stm32f7xx_hal_hcd.c ****     if(__HAL_HCD_GET_FLAG(hhcd, USB_OTG_GINTSTS_PXFR_INCOMPISOOUT))
 460:Drivers/STM32F7xx_HAL_Driver/Src/stm32f7xx_hal_hcd.c ****     {
 461:Drivers/STM32F7xx_HAL_Driver/Src/stm32f7xx_hal_hcd.c ****      /* incorrect mode, acknowledge the interrupt */
 462:Drivers/STM32F7xx_HAL_Driver/Src/stm32f7xx_hal_hcd.c ****       __HAL_HCD_CLEAR_FLAG(hhcd, USB_OTG_GINTSTS_PXFR_INCOMPISOOUT);
 463:Drivers/STM32F7xx_HAL_Driver/Src/stm32f7xx_hal_hcd.c ****     }
 464:Drivers/STM32F7xx_HAL_Driver/Src/stm32f7xx_hal_hcd.c **** 
 465:Drivers/STM32F7xx_HAL_Driver/Src/stm32f7xx_hal_hcd.c ****     if(__HAL_HCD_GET_FLAG(hhcd, USB_OTG_GINTSTS_IISOIXFR))
 466:Drivers/STM32F7xx_HAL_Driver/Src/stm32f7xx_hal_hcd.c ****     {
 467:Drivers/STM32F7xx_HAL_Driver/Src/stm32f7xx_hal_hcd.c ****      /* incorrect mode, acknowledge the interrupt */
 468:Drivers/STM32F7xx_HAL_Driver/Src/stm32f7xx_hal_hcd.c ****       __HAL_HCD_CLEAR_FLAG(hhcd, USB_OTG_GINTSTS_IISOIXFR);
 469:Drivers/STM32F7xx_HAL_Driver/Src/stm32f7xx_hal_hcd.c ****     }
 470:Drivers/STM32F7xx_HAL_Driver/Src/stm32f7xx_hal_hcd.c **** 
 471:Drivers/STM32F7xx_HAL_Driver/Src/stm32f7xx_hal_hcd.c ****     if(__HAL_HCD_GET_FLAG(hhcd, USB_OTG_GINTSTS_PTXFE))
 472:Drivers/STM32F7xx_HAL_Driver/Src/stm32f7xx_hal_hcd.c ****     {
 473:Drivers/STM32F7xx_HAL_Driver/Src/stm32f7xx_hal_hcd.c ****      /* incorrect mode, acknowledge the interrupt */
 474:Drivers/STM32F7xx_HAL_Driver/Src/stm32f7xx_hal_hcd.c ****       __HAL_HCD_CLEAR_FLAG(hhcd, USB_OTG_GINTSTS_PTXFE);
 475:Drivers/STM32F7xx_HAL_Driver/Src/stm32f7xx_hal_hcd.c ****     }
 476:Drivers/STM32F7xx_HAL_Driver/Src/stm32f7xx_hal_hcd.c **** 
 477:Drivers/STM32F7xx_HAL_Driver/Src/stm32f7xx_hal_hcd.c ****     if(__HAL_HCD_GET_FLAG(hhcd, USB_OTG_GINTSTS_MMIS))
 478:Drivers/STM32F7xx_HAL_Driver/Src/stm32f7xx_hal_hcd.c ****     {
 479:Drivers/STM32F7xx_HAL_Driver/Src/stm32f7xx_hal_hcd.c ****      /* incorrect mode, acknowledge the interrupt */
 480:Drivers/STM32F7xx_HAL_Driver/Src/stm32f7xx_hal_hcd.c ****       __HAL_HCD_CLEAR_FLAG(hhcd, USB_OTG_GINTSTS_MMIS);
 481:Drivers/STM32F7xx_HAL_Driver/Src/stm32f7xx_hal_hcd.c ****     }
 482:Drivers/STM32F7xx_HAL_Driver/Src/stm32f7xx_hal_hcd.c **** 
 483:Drivers/STM32F7xx_HAL_Driver/Src/stm32f7xx_hal_hcd.c ****     /* Handle Host Disconnect Interrupts */
 484:Drivers/STM32F7xx_HAL_Driver/Src/stm32f7xx_hal_hcd.c ****     if(__HAL_HCD_GET_FLAG(hhcd, USB_OTG_GINTSTS_DISCINT))
 485:Drivers/STM32F7xx_HAL_Driver/Src/stm32f7xx_hal_hcd.c ****     {
 486:Drivers/STM32F7xx_HAL_Driver/Src/stm32f7xx_hal_hcd.c **** 
 487:Drivers/STM32F7xx_HAL_Driver/Src/stm32f7xx_hal_hcd.c ****       /* Cleanup HPRT */
 488:Drivers/STM32F7xx_HAL_Driver/Src/stm32f7xx_hal_hcd.c ****       USBx_HPRT0 &= ~(USB_OTG_HPRT_PENA | USB_OTG_HPRT_PCDET |\
ARM GAS  /tmp/ccGDlo4w.s 			page 10


 489:Drivers/STM32F7xx_HAL_Driver/Src/stm32f7xx_hal_hcd.c ****         USB_OTG_HPRT_PENCHNG | USB_OTG_HPRT_POCCHNG );
 490:Drivers/STM32F7xx_HAL_Driver/Src/stm32f7xx_hal_hcd.c **** 
 491:Drivers/STM32F7xx_HAL_Driver/Src/stm32f7xx_hal_hcd.c ****       /* Handle Host Port Interrupts */
 492:Drivers/STM32F7xx_HAL_Driver/Src/stm32f7xx_hal_hcd.c ****       HAL_HCD_Disconnect_Callback(hhcd);
 493:Drivers/STM32F7xx_HAL_Driver/Src/stm32f7xx_hal_hcd.c ****        USB_InitFSLSPClkSel(hhcd->Instance ,HCFG_48_MHZ );
 494:Drivers/STM32F7xx_HAL_Driver/Src/stm32f7xx_hal_hcd.c ****       __HAL_HCD_CLEAR_FLAG(hhcd, USB_OTG_GINTSTS_DISCINT);
 495:Drivers/STM32F7xx_HAL_Driver/Src/stm32f7xx_hal_hcd.c ****     }
 496:Drivers/STM32F7xx_HAL_Driver/Src/stm32f7xx_hal_hcd.c **** 
 497:Drivers/STM32F7xx_HAL_Driver/Src/stm32f7xx_hal_hcd.c ****     /* Handle Host Port Interrupts */
 498:Drivers/STM32F7xx_HAL_Driver/Src/stm32f7xx_hal_hcd.c ****     if(__HAL_HCD_GET_FLAG(hhcd, USB_OTG_GINTSTS_HPRTINT))
 499:Drivers/STM32F7xx_HAL_Driver/Src/stm32f7xx_hal_hcd.c ****     {
 500:Drivers/STM32F7xx_HAL_Driver/Src/stm32f7xx_hal_hcd.c ****       HCD_Port_IRQHandler (hhcd);
 501:Drivers/STM32F7xx_HAL_Driver/Src/stm32f7xx_hal_hcd.c ****     }
 502:Drivers/STM32F7xx_HAL_Driver/Src/stm32f7xx_hal_hcd.c **** 
 503:Drivers/STM32F7xx_HAL_Driver/Src/stm32f7xx_hal_hcd.c ****     /* Handle Host SOF Interrupts */
 504:Drivers/STM32F7xx_HAL_Driver/Src/stm32f7xx_hal_hcd.c ****     if(__HAL_HCD_GET_FLAG(hhcd, USB_OTG_GINTSTS_SOF))
 505:Drivers/STM32F7xx_HAL_Driver/Src/stm32f7xx_hal_hcd.c ****     {
 506:Drivers/STM32F7xx_HAL_Driver/Src/stm32f7xx_hal_hcd.c ****       HAL_HCD_SOF_Callback(hhcd);
 507:Drivers/STM32F7xx_HAL_Driver/Src/stm32f7xx_hal_hcd.c ****       __HAL_HCD_CLEAR_FLAG(hhcd, USB_OTG_GINTSTS_SOF);
 508:Drivers/STM32F7xx_HAL_Driver/Src/stm32f7xx_hal_hcd.c ****     }
 509:Drivers/STM32F7xx_HAL_Driver/Src/stm32f7xx_hal_hcd.c **** 
 510:Drivers/STM32F7xx_HAL_Driver/Src/stm32f7xx_hal_hcd.c ****     /* Handle Host channel Interrupts */
 511:Drivers/STM32F7xx_HAL_Driver/Src/stm32f7xx_hal_hcd.c ****     if(__HAL_HCD_GET_FLAG(hhcd, USB_OTG_GINTSTS_HCINT))
 512:Drivers/STM32F7xx_HAL_Driver/Src/stm32f7xx_hal_hcd.c ****     {
 513:Drivers/STM32F7xx_HAL_Driver/Src/stm32f7xx_hal_hcd.c ****       interrupt = USB_HC_ReadInterrupt(hhcd->Instance);
 514:Drivers/STM32F7xx_HAL_Driver/Src/stm32f7xx_hal_hcd.c ****       for (i = 0; i < hhcd->Init.Host_channels ; i++)
 515:Drivers/STM32F7xx_HAL_Driver/Src/stm32f7xx_hal_hcd.c ****       {
 516:Drivers/STM32F7xx_HAL_Driver/Src/stm32f7xx_hal_hcd.c ****         if (interrupt & (1 << i))
 517:Drivers/STM32F7xx_HAL_Driver/Src/stm32f7xx_hal_hcd.c ****         {
 518:Drivers/STM32F7xx_HAL_Driver/Src/stm32f7xx_hal_hcd.c ****           if ((USBx_HC(i)->HCCHAR) &  USB_OTG_HCCHAR_EPDIR)
 519:Drivers/STM32F7xx_HAL_Driver/Src/stm32f7xx_hal_hcd.c ****           {
 520:Drivers/STM32F7xx_HAL_Driver/Src/stm32f7xx_hal_hcd.c ****             HCD_HC_IN_IRQHandler (hhcd, i);
 521:Drivers/STM32F7xx_HAL_Driver/Src/stm32f7xx_hal_hcd.c ****           }
 522:Drivers/STM32F7xx_HAL_Driver/Src/stm32f7xx_hal_hcd.c ****           else
 523:Drivers/STM32F7xx_HAL_Driver/Src/stm32f7xx_hal_hcd.c ****           {
 524:Drivers/STM32F7xx_HAL_Driver/Src/stm32f7xx_hal_hcd.c ****             HCD_HC_OUT_IRQHandler (hhcd, i);
 525:Drivers/STM32F7xx_HAL_Driver/Src/stm32f7xx_hal_hcd.c ****           }
 526:Drivers/STM32F7xx_HAL_Driver/Src/stm32f7xx_hal_hcd.c ****         }
 527:Drivers/STM32F7xx_HAL_Driver/Src/stm32f7xx_hal_hcd.c ****       }
 528:Drivers/STM32F7xx_HAL_Driver/Src/stm32f7xx_hal_hcd.c ****       __HAL_HCD_CLEAR_FLAG(hhcd, USB_OTG_GINTSTS_HCINT);
 529:Drivers/STM32F7xx_HAL_Driver/Src/stm32f7xx_hal_hcd.c ****     }
 530:Drivers/STM32F7xx_HAL_Driver/Src/stm32f7xx_hal_hcd.c **** 
 531:Drivers/STM32F7xx_HAL_Driver/Src/stm32f7xx_hal_hcd.c ****         /* Handle Rx Queue Level Interrupts */
 532:Drivers/STM32F7xx_HAL_Driver/Src/stm32f7xx_hal_hcd.c ****     if(__HAL_HCD_GET_FLAG(hhcd, USB_OTG_GINTSTS_RXFLVL))
 533:Drivers/STM32F7xx_HAL_Driver/Src/stm32f7xx_hal_hcd.c ****     {
 534:Drivers/STM32F7xx_HAL_Driver/Src/stm32f7xx_hal_hcd.c ****       USB_MASK_INTERRUPT(hhcd->Instance, USB_OTG_GINTSTS_RXFLVL);
 535:Drivers/STM32F7xx_HAL_Driver/Src/stm32f7xx_hal_hcd.c **** 
 536:Drivers/STM32F7xx_HAL_Driver/Src/stm32f7xx_hal_hcd.c ****       HCD_RXQLVL_IRQHandler (hhcd);
 537:Drivers/STM32F7xx_HAL_Driver/Src/stm32f7xx_hal_hcd.c **** 
 538:Drivers/STM32F7xx_HAL_Driver/Src/stm32f7xx_hal_hcd.c ****       USB_UNMASK_INTERRUPT(hhcd->Instance, USB_OTG_GINTSTS_RXFLVL);
 539:Drivers/STM32F7xx_HAL_Driver/Src/stm32f7xx_hal_hcd.c ****     }
 540:Drivers/STM32F7xx_HAL_Driver/Src/stm32f7xx_hal_hcd.c ****   }
 541:Drivers/STM32F7xx_HAL_Driver/Src/stm32f7xx_hal_hcd.c **** }
 542:Drivers/STM32F7xx_HAL_Driver/Src/stm32f7xx_hal_hcd.c **** 
 543:Drivers/STM32F7xx_HAL_Driver/Src/stm32f7xx_hal_hcd.c **** /**
 544:Drivers/STM32F7xx_HAL_Driver/Src/stm32f7xx_hal_hcd.c ****   * @brief  SOF callback.
 545:Drivers/STM32F7xx_HAL_Driver/Src/stm32f7xx_hal_hcd.c ****   * @param  hhcd HCD handle
ARM GAS  /tmp/ccGDlo4w.s 			page 11


 546:Drivers/STM32F7xx_HAL_Driver/Src/stm32f7xx_hal_hcd.c ****   * @retval None
 547:Drivers/STM32F7xx_HAL_Driver/Src/stm32f7xx_hal_hcd.c ****   */
 548:Drivers/STM32F7xx_HAL_Driver/Src/stm32f7xx_hal_hcd.c **** __weak void HAL_HCD_SOF_Callback(HCD_HandleTypeDef *hhcd)
 549:Drivers/STM32F7xx_HAL_Driver/Src/stm32f7xx_hal_hcd.c **** {
 550:Drivers/STM32F7xx_HAL_Driver/Src/stm32f7xx_hal_hcd.c ****   /* Prevent unused argument(s) compilation warning */
 551:Drivers/STM32F7xx_HAL_Driver/Src/stm32f7xx_hal_hcd.c ****   UNUSED(hhcd);
 552:Drivers/STM32F7xx_HAL_Driver/Src/stm32f7xx_hal_hcd.c **** 
 553:Drivers/STM32F7xx_HAL_Driver/Src/stm32f7xx_hal_hcd.c ****   /* NOTE : This function Should not be modified, when the callback is needed,
 554:Drivers/STM32F7xx_HAL_Driver/Src/stm32f7xx_hal_hcd.c ****             the HAL_HCD_SOF_Callback could be implemented in the user file
 555:Drivers/STM32F7xx_HAL_Driver/Src/stm32f7xx_hal_hcd.c ****    */
 556:Drivers/STM32F7xx_HAL_Driver/Src/stm32f7xx_hal_hcd.c **** }
 557:Drivers/STM32F7xx_HAL_Driver/Src/stm32f7xx_hal_hcd.c **** 
 558:Drivers/STM32F7xx_HAL_Driver/Src/stm32f7xx_hal_hcd.c **** /**
 559:Drivers/STM32F7xx_HAL_Driver/Src/stm32f7xx_hal_hcd.c ****   * @brief Connection Event callback.
 560:Drivers/STM32F7xx_HAL_Driver/Src/stm32f7xx_hal_hcd.c ****   * @param  hhcd HCD handle
 561:Drivers/STM32F7xx_HAL_Driver/Src/stm32f7xx_hal_hcd.c ****   * @retval None
 562:Drivers/STM32F7xx_HAL_Driver/Src/stm32f7xx_hal_hcd.c ****   */
 563:Drivers/STM32F7xx_HAL_Driver/Src/stm32f7xx_hal_hcd.c **** __weak void HAL_HCD_Connect_Callback(HCD_HandleTypeDef *hhcd)
 564:Drivers/STM32F7xx_HAL_Driver/Src/stm32f7xx_hal_hcd.c **** {
 565:Drivers/STM32F7xx_HAL_Driver/Src/stm32f7xx_hal_hcd.c ****   /* Prevent unused argument(s) compilation warning */
 566:Drivers/STM32F7xx_HAL_Driver/Src/stm32f7xx_hal_hcd.c ****   UNUSED(hhcd);
 567:Drivers/STM32F7xx_HAL_Driver/Src/stm32f7xx_hal_hcd.c **** 
 568:Drivers/STM32F7xx_HAL_Driver/Src/stm32f7xx_hal_hcd.c ****   /* NOTE : This function Should not be modified, when the callback is needed,
 569:Drivers/STM32F7xx_HAL_Driver/Src/stm32f7xx_hal_hcd.c ****             the HAL_HCD_Connect_Callback could be implemented in the user file
 570:Drivers/STM32F7xx_HAL_Driver/Src/stm32f7xx_hal_hcd.c ****    */
 571:Drivers/STM32F7xx_HAL_Driver/Src/stm32f7xx_hal_hcd.c **** }
 572:Drivers/STM32F7xx_HAL_Driver/Src/stm32f7xx_hal_hcd.c **** 
 573:Drivers/STM32F7xx_HAL_Driver/Src/stm32f7xx_hal_hcd.c **** /**
 574:Drivers/STM32F7xx_HAL_Driver/Src/stm32f7xx_hal_hcd.c ****   * @brief  Disconnection Event callback.
 575:Drivers/STM32F7xx_HAL_Driver/Src/stm32f7xx_hal_hcd.c ****   * @param  hhcd HCD handle
 576:Drivers/STM32F7xx_HAL_Driver/Src/stm32f7xx_hal_hcd.c ****   * @retval None
 577:Drivers/STM32F7xx_HAL_Driver/Src/stm32f7xx_hal_hcd.c ****   */
 578:Drivers/STM32F7xx_HAL_Driver/Src/stm32f7xx_hal_hcd.c **** __weak void HAL_HCD_Disconnect_Callback(HCD_HandleTypeDef *hhcd)
 579:Drivers/STM32F7xx_HAL_Driver/Src/stm32f7xx_hal_hcd.c **** {
 580:Drivers/STM32F7xx_HAL_Driver/Src/stm32f7xx_hal_hcd.c ****   /* Prevent unused argument(s) compilation warning */
 581:Drivers/STM32F7xx_HAL_Driver/Src/stm32f7xx_hal_hcd.c ****   UNUSED(hhcd);
 582:Drivers/STM32F7xx_HAL_Driver/Src/stm32f7xx_hal_hcd.c **** 
 583:Drivers/STM32F7xx_HAL_Driver/Src/stm32f7xx_hal_hcd.c ****   /* NOTE : This function Should not be modified, when the callback is needed,
 584:Drivers/STM32F7xx_HAL_Driver/Src/stm32f7xx_hal_hcd.c ****             the HAL_HCD_Disconnect_Callback could be implemented in the user file
 585:Drivers/STM32F7xx_HAL_Driver/Src/stm32f7xx_hal_hcd.c ****    */
 586:Drivers/STM32F7xx_HAL_Driver/Src/stm32f7xx_hal_hcd.c **** }
 587:Drivers/STM32F7xx_HAL_Driver/Src/stm32f7xx_hal_hcd.c **** 
 588:Drivers/STM32F7xx_HAL_Driver/Src/stm32f7xx_hal_hcd.c **** /**
 589:Drivers/STM32F7xx_HAL_Driver/Src/stm32f7xx_hal_hcd.c ****   * @brief  Port Enabled  Event callback.
 590:Drivers/STM32F7xx_HAL_Driver/Src/stm32f7xx_hal_hcd.c ****   * @param  hhcd: HCD handle
 591:Drivers/STM32F7xx_HAL_Driver/Src/stm32f7xx_hal_hcd.c ****   * @retval None
 592:Drivers/STM32F7xx_HAL_Driver/Src/stm32f7xx_hal_hcd.c ****   */
 593:Drivers/STM32F7xx_HAL_Driver/Src/stm32f7xx_hal_hcd.c **** __weak void HAL_HCD_PortEnabled_Callback(HCD_HandleTypeDef *hhcd)
 594:Drivers/STM32F7xx_HAL_Driver/Src/stm32f7xx_hal_hcd.c **** {
 595:Drivers/STM32F7xx_HAL_Driver/Src/stm32f7xx_hal_hcd.c ****   /* Prevent unused argument(s) compilation warning */
 596:Drivers/STM32F7xx_HAL_Driver/Src/stm32f7xx_hal_hcd.c ****   UNUSED(hhcd);
 597:Drivers/STM32F7xx_HAL_Driver/Src/stm32f7xx_hal_hcd.c ****   /* NOTE : This function Should not be modified, when the callback is needed,
 598:Drivers/STM32F7xx_HAL_Driver/Src/stm32f7xx_hal_hcd.c ****             the HAL_HCD_Disconnect_Callback could be implemented in the user file
 599:Drivers/STM32F7xx_HAL_Driver/Src/stm32f7xx_hal_hcd.c ****    */
 600:Drivers/STM32F7xx_HAL_Driver/Src/stm32f7xx_hal_hcd.c **** }
 601:Drivers/STM32F7xx_HAL_Driver/Src/stm32f7xx_hal_hcd.c **** 
 602:Drivers/STM32F7xx_HAL_Driver/Src/stm32f7xx_hal_hcd.c **** /**
ARM GAS  /tmp/ccGDlo4w.s 			page 12


 603:Drivers/STM32F7xx_HAL_Driver/Src/stm32f7xx_hal_hcd.c ****   * @brief  Port Disabled  Event callback.
 604:Drivers/STM32F7xx_HAL_Driver/Src/stm32f7xx_hal_hcd.c ****   * @param  hhcd: HCD handle
 605:Drivers/STM32F7xx_HAL_Driver/Src/stm32f7xx_hal_hcd.c ****   * @retval None
 606:Drivers/STM32F7xx_HAL_Driver/Src/stm32f7xx_hal_hcd.c ****   */
 607:Drivers/STM32F7xx_HAL_Driver/Src/stm32f7xx_hal_hcd.c **** __weak void HAL_HCD_PortDisabled_Callback(HCD_HandleTypeDef *hhcd)
 608:Drivers/STM32F7xx_HAL_Driver/Src/stm32f7xx_hal_hcd.c **** {
 609:Drivers/STM32F7xx_HAL_Driver/Src/stm32f7xx_hal_hcd.c ****   /* Prevent unused argument(s) compilation warning */
 610:Drivers/STM32F7xx_HAL_Driver/Src/stm32f7xx_hal_hcd.c ****   UNUSED(hhcd);
 611:Drivers/STM32F7xx_HAL_Driver/Src/stm32f7xx_hal_hcd.c ****   /* NOTE : This function Should not be modified, when the callback is needed,
 612:Drivers/STM32F7xx_HAL_Driver/Src/stm32f7xx_hal_hcd.c ****             the HAL_HCD_Disconnect_Callback could be implemented in the user file
 613:Drivers/STM32F7xx_HAL_Driver/Src/stm32f7xx_hal_hcd.c ****    */
 614:Drivers/STM32F7xx_HAL_Driver/Src/stm32f7xx_hal_hcd.c **** }
 615:Drivers/STM32F7xx_HAL_Driver/Src/stm32f7xx_hal_hcd.c **** 
 616:Drivers/STM32F7xx_HAL_Driver/Src/stm32f7xx_hal_hcd.c **** /**
 617:Drivers/STM32F7xx_HAL_Driver/Src/stm32f7xx_hal_hcd.c ****   * @brief  Notify URB state change callback.
 618:Drivers/STM32F7xx_HAL_Driver/Src/stm32f7xx_hal_hcd.c ****   * @param  hhcd HCD handle
 619:Drivers/STM32F7xx_HAL_Driver/Src/stm32f7xx_hal_hcd.c ****   * @param  chnum Channel number.
 620:Drivers/STM32F7xx_HAL_Driver/Src/stm32f7xx_hal_hcd.c ****   *         This parameter can be a value from 1 to 15
 621:Drivers/STM32F7xx_HAL_Driver/Src/stm32f7xx_hal_hcd.c ****   * @param  urb_state:
 622:Drivers/STM32F7xx_HAL_Driver/Src/stm32f7xx_hal_hcd.c ****   *          This parameter can be one of these values:
 623:Drivers/STM32F7xx_HAL_Driver/Src/stm32f7xx_hal_hcd.c ****   *            URB_IDLE/
 624:Drivers/STM32F7xx_HAL_Driver/Src/stm32f7xx_hal_hcd.c ****   *            URB_DONE/
 625:Drivers/STM32F7xx_HAL_Driver/Src/stm32f7xx_hal_hcd.c ****   *            URB_NOTREADY/
 626:Drivers/STM32F7xx_HAL_Driver/Src/stm32f7xx_hal_hcd.c ****   *            URB_NYET/
 627:Drivers/STM32F7xx_HAL_Driver/Src/stm32f7xx_hal_hcd.c ****   *            URB_ERROR/
 628:Drivers/STM32F7xx_HAL_Driver/Src/stm32f7xx_hal_hcd.c ****   *            URB_STALL/
 629:Drivers/STM32F7xx_HAL_Driver/Src/stm32f7xx_hal_hcd.c ****   * @retval None
 630:Drivers/STM32F7xx_HAL_Driver/Src/stm32f7xx_hal_hcd.c ****   */
 631:Drivers/STM32F7xx_HAL_Driver/Src/stm32f7xx_hal_hcd.c **** __weak void HAL_HCD_HC_NotifyURBChange_Callback(HCD_HandleTypeDef *hhcd, uint8_t chnum, HCD_URBStat
 632:Drivers/STM32F7xx_HAL_Driver/Src/stm32f7xx_hal_hcd.c **** {
 633:Drivers/STM32F7xx_HAL_Driver/Src/stm32f7xx_hal_hcd.c ****   /* Prevent unused argument(s) compilation warning */
 634:Drivers/STM32F7xx_HAL_Driver/Src/stm32f7xx_hal_hcd.c ****   UNUSED(hhcd);
 635:Drivers/STM32F7xx_HAL_Driver/Src/stm32f7xx_hal_hcd.c **** 
 636:Drivers/STM32F7xx_HAL_Driver/Src/stm32f7xx_hal_hcd.c ****   /* NOTE : This function Should not be modified, when the callback is needed,
 637:Drivers/STM32F7xx_HAL_Driver/Src/stm32f7xx_hal_hcd.c ****             the HAL_HCD_HC_NotifyURBChange_Callback could be implemented in the user file
 638:Drivers/STM32F7xx_HAL_Driver/Src/stm32f7xx_hal_hcd.c ****    */
 639:Drivers/STM32F7xx_HAL_Driver/Src/stm32f7xx_hal_hcd.c **** }
 640:Drivers/STM32F7xx_HAL_Driver/Src/stm32f7xx_hal_hcd.c **** 
 641:Drivers/STM32F7xx_HAL_Driver/Src/stm32f7xx_hal_hcd.c **** /**
 642:Drivers/STM32F7xx_HAL_Driver/Src/stm32f7xx_hal_hcd.c ****   * @}
 643:Drivers/STM32F7xx_HAL_Driver/Src/stm32f7xx_hal_hcd.c ****   */
 644:Drivers/STM32F7xx_HAL_Driver/Src/stm32f7xx_hal_hcd.c **** 
 645:Drivers/STM32F7xx_HAL_Driver/Src/stm32f7xx_hal_hcd.c **** /** @defgroup HCD_Exported_Functions_Group3 Peripheral Control functions
 646:Drivers/STM32F7xx_HAL_Driver/Src/stm32f7xx_hal_hcd.c ****  *  @brief   Management functions
 647:Drivers/STM32F7xx_HAL_Driver/Src/stm32f7xx_hal_hcd.c ****  *
 648:Drivers/STM32F7xx_HAL_Driver/Src/stm32f7xx_hal_hcd.c **** @verbatim
 649:Drivers/STM32F7xx_HAL_Driver/Src/stm32f7xx_hal_hcd.c ****  ===============================================================================
 650:Drivers/STM32F7xx_HAL_Driver/Src/stm32f7xx_hal_hcd.c ****                       ##### Peripheral Control functions #####
 651:Drivers/STM32F7xx_HAL_Driver/Src/stm32f7xx_hal_hcd.c ****  ===============================================================================
 652:Drivers/STM32F7xx_HAL_Driver/Src/stm32f7xx_hal_hcd.c ****     [..]
 653:Drivers/STM32F7xx_HAL_Driver/Src/stm32f7xx_hal_hcd.c ****     This subsection provides a set of functions allowing to control the HCD data
 654:Drivers/STM32F7xx_HAL_Driver/Src/stm32f7xx_hal_hcd.c ****     transfers.
 655:Drivers/STM32F7xx_HAL_Driver/Src/stm32f7xx_hal_hcd.c **** 
 656:Drivers/STM32F7xx_HAL_Driver/Src/stm32f7xx_hal_hcd.c **** @endverbatim
 657:Drivers/STM32F7xx_HAL_Driver/Src/stm32f7xx_hal_hcd.c ****   * @{
 658:Drivers/STM32F7xx_HAL_Driver/Src/stm32f7xx_hal_hcd.c ****   */
 659:Drivers/STM32F7xx_HAL_Driver/Src/stm32f7xx_hal_hcd.c **** 
ARM GAS  /tmp/ccGDlo4w.s 			page 13


 660:Drivers/STM32F7xx_HAL_Driver/Src/stm32f7xx_hal_hcd.c **** /**
 661:Drivers/STM32F7xx_HAL_Driver/Src/stm32f7xx_hal_hcd.c ****   * @brief  Start the host driver.
 662:Drivers/STM32F7xx_HAL_Driver/Src/stm32f7xx_hal_hcd.c ****   * @param  hhcd HCD handle
 663:Drivers/STM32F7xx_HAL_Driver/Src/stm32f7xx_hal_hcd.c ****   * @retval HAL status
 664:Drivers/STM32F7xx_HAL_Driver/Src/stm32f7xx_hal_hcd.c ****   */
 665:Drivers/STM32F7xx_HAL_Driver/Src/stm32f7xx_hal_hcd.c **** HAL_StatusTypeDef HAL_HCD_Start(HCD_HandleTypeDef *hhcd)
 666:Drivers/STM32F7xx_HAL_Driver/Src/stm32f7xx_hal_hcd.c **** {
 667:Drivers/STM32F7xx_HAL_Driver/Src/stm32f7xx_hal_hcd.c ****   __HAL_LOCK(hhcd);
 668:Drivers/STM32F7xx_HAL_Driver/Src/stm32f7xx_hal_hcd.c ****   __HAL_HCD_ENABLE(hhcd);
 669:Drivers/STM32F7xx_HAL_Driver/Src/stm32f7xx_hal_hcd.c ****   USB_DriveVbus(hhcd->Instance, 1);
 670:Drivers/STM32F7xx_HAL_Driver/Src/stm32f7xx_hal_hcd.c ****   __HAL_UNLOCK(hhcd);
 671:Drivers/STM32F7xx_HAL_Driver/Src/stm32f7xx_hal_hcd.c ****   return HAL_OK;
 672:Drivers/STM32F7xx_HAL_Driver/Src/stm32f7xx_hal_hcd.c **** }
 673:Drivers/STM32F7xx_HAL_Driver/Src/stm32f7xx_hal_hcd.c **** 
 674:Drivers/STM32F7xx_HAL_Driver/Src/stm32f7xx_hal_hcd.c **** /**
 675:Drivers/STM32F7xx_HAL_Driver/Src/stm32f7xx_hal_hcd.c ****   * @brief  Stop the host driver.
 676:Drivers/STM32F7xx_HAL_Driver/Src/stm32f7xx_hal_hcd.c ****   * @param  hhcd HCD handle
 677:Drivers/STM32F7xx_HAL_Driver/Src/stm32f7xx_hal_hcd.c ****   * @retval HAL status
 678:Drivers/STM32F7xx_HAL_Driver/Src/stm32f7xx_hal_hcd.c ****   */
 679:Drivers/STM32F7xx_HAL_Driver/Src/stm32f7xx_hal_hcd.c **** 
 680:Drivers/STM32F7xx_HAL_Driver/Src/stm32f7xx_hal_hcd.c **** HAL_StatusTypeDef HAL_HCD_Stop(HCD_HandleTypeDef *hhcd)
 681:Drivers/STM32F7xx_HAL_Driver/Src/stm32f7xx_hal_hcd.c **** {
 682:Drivers/STM32F7xx_HAL_Driver/Src/stm32f7xx_hal_hcd.c ****   __HAL_LOCK(hhcd);
 683:Drivers/STM32F7xx_HAL_Driver/Src/stm32f7xx_hal_hcd.c ****   USB_StopHost(hhcd->Instance);
 684:Drivers/STM32F7xx_HAL_Driver/Src/stm32f7xx_hal_hcd.c ****   __HAL_UNLOCK(hhcd);
 685:Drivers/STM32F7xx_HAL_Driver/Src/stm32f7xx_hal_hcd.c ****   return HAL_OK;
 686:Drivers/STM32F7xx_HAL_Driver/Src/stm32f7xx_hal_hcd.c **** }
 687:Drivers/STM32F7xx_HAL_Driver/Src/stm32f7xx_hal_hcd.c **** 
 688:Drivers/STM32F7xx_HAL_Driver/Src/stm32f7xx_hal_hcd.c **** /**
 689:Drivers/STM32F7xx_HAL_Driver/Src/stm32f7xx_hal_hcd.c ****   * @brief  Reset the host port.
 690:Drivers/STM32F7xx_HAL_Driver/Src/stm32f7xx_hal_hcd.c ****   * @param  hhcd HCD handle
 691:Drivers/STM32F7xx_HAL_Driver/Src/stm32f7xx_hal_hcd.c ****   * @retval HAL status
 692:Drivers/STM32F7xx_HAL_Driver/Src/stm32f7xx_hal_hcd.c ****   */
 693:Drivers/STM32F7xx_HAL_Driver/Src/stm32f7xx_hal_hcd.c **** HAL_StatusTypeDef HAL_HCD_ResetPort(HCD_HandleTypeDef *hhcd)
 694:Drivers/STM32F7xx_HAL_Driver/Src/stm32f7xx_hal_hcd.c **** {
 695:Drivers/STM32F7xx_HAL_Driver/Src/stm32f7xx_hal_hcd.c ****   return (USB_ResetPort(hhcd->Instance));
 696:Drivers/STM32F7xx_HAL_Driver/Src/stm32f7xx_hal_hcd.c **** }
 697:Drivers/STM32F7xx_HAL_Driver/Src/stm32f7xx_hal_hcd.c **** 
 698:Drivers/STM32F7xx_HAL_Driver/Src/stm32f7xx_hal_hcd.c **** /**
 699:Drivers/STM32F7xx_HAL_Driver/Src/stm32f7xx_hal_hcd.c ****   * @}
 700:Drivers/STM32F7xx_HAL_Driver/Src/stm32f7xx_hal_hcd.c ****   */
 701:Drivers/STM32F7xx_HAL_Driver/Src/stm32f7xx_hal_hcd.c **** 
 702:Drivers/STM32F7xx_HAL_Driver/Src/stm32f7xx_hal_hcd.c **** /** @defgroup HCD_Exported_Functions_Group4 Peripheral State functions
 703:Drivers/STM32F7xx_HAL_Driver/Src/stm32f7xx_hal_hcd.c ****  *  @brief   Peripheral State functions
 704:Drivers/STM32F7xx_HAL_Driver/Src/stm32f7xx_hal_hcd.c ****  *
 705:Drivers/STM32F7xx_HAL_Driver/Src/stm32f7xx_hal_hcd.c **** @verbatim
 706:Drivers/STM32F7xx_HAL_Driver/Src/stm32f7xx_hal_hcd.c ****  ===============================================================================
 707:Drivers/STM32F7xx_HAL_Driver/Src/stm32f7xx_hal_hcd.c ****                       ##### Peripheral State functions #####
 708:Drivers/STM32F7xx_HAL_Driver/Src/stm32f7xx_hal_hcd.c ****  ===============================================================================
 709:Drivers/STM32F7xx_HAL_Driver/Src/stm32f7xx_hal_hcd.c ****     [..]
 710:Drivers/STM32F7xx_HAL_Driver/Src/stm32f7xx_hal_hcd.c ****     This subsection permits to get in run-time the status of the peripheral
 711:Drivers/STM32F7xx_HAL_Driver/Src/stm32f7xx_hal_hcd.c ****     and the data flow.
 712:Drivers/STM32F7xx_HAL_Driver/Src/stm32f7xx_hal_hcd.c **** 
 713:Drivers/STM32F7xx_HAL_Driver/Src/stm32f7xx_hal_hcd.c **** @endverbatim
 714:Drivers/STM32F7xx_HAL_Driver/Src/stm32f7xx_hal_hcd.c ****   * @{
 715:Drivers/STM32F7xx_HAL_Driver/Src/stm32f7xx_hal_hcd.c ****   */
 716:Drivers/STM32F7xx_HAL_Driver/Src/stm32f7xx_hal_hcd.c **** 
ARM GAS  /tmp/ccGDlo4w.s 			page 14


 717:Drivers/STM32F7xx_HAL_Driver/Src/stm32f7xx_hal_hcd.c **** /**
 718:Drivers/STM32F7xx_HAL_Driver/Src/stm32f7xx_hal_hcd.c ****   * @brief  Return the HCD handle state.
 719:Drivers/STM32F7xx_HAL_Driver/Src/stm32f7xx_hal_hcd.c ****   * @param  hhcd HCD handle
 720:Drivers/STM32F7xx_HAL_Driver/Src/stm32f7xx_hal_hcd.c ****   * @retval HAL state
 721:Drivers/STM32F7xx_HAL_Driver/Src/stm32f7xx_hal_hcd.c ****   */
 722:Drivers/STM32F7xx_HAL_Driver/Src/stm32f7xx_hal_hcd.c **** HCD_StateTypeDef HAL_HCD_GetState(HCD_HandleTypeDef *hhcd)
 723:Drivers/STM32F7xx_HAL_Driver/Src/stm32f7xx_hal_hcd.c **** {
 724:Drivers/STM32F7xx_HAL_Driver/Src/stm32f7xx_hal_hcd.c ****   return hhcd->State;
 725:Drivers/STM32F7xx_HAL_Driver/Src/stm32f7xx_hal_hcd.c **** }
 726:Drivers/STM32F7xx_HAL_Driver/Src/stm32f7xx_hal_hcd.c **** 
 727:Drivers/STM32F7xx_HAL_Driver/Src/stm32f7xx_hal_hcd.c **** /**
 728:Drivers/STM32F7xx_HAL_Driver/Src/stm32f7xx_hal_hcd.c ****   * @brief  Return  URB state for a channel.
 729:Drivers/STM32F7xx_HAL_Driver/Src/stm32f7xx_hal_hcd.c ****   * @param  hhcd HCD handle
 730:Drivers/STM32F7xx_HAL_Driver/Src/stm32f7xx_hal_hcd.c ****   * @param  chnum Channel number.
 731:Drivers/STM32F7xx_HAL_Driver/Src/stm32f7xx_hal_hcd.c ****   *         This parameter can be a value from 1 to 15
 732:Drivers/STM32F7xx_HAL_Driver/Src/stm32f7xx_hal_hcd.c ****   * @retval URB state.
 733:Drivers/STM32F7xx_HAL_Driver/Src/stm32f7xx_hal_hcd.c ****   *          This parameter can be one of these values:
 734:Drivers/STM32F7xx_HAL_Driver/Src/stm32f7xx_hal_hcd.c ****   *            URB_IDLE/
 735:Drivers/STM32F7xx_HAL_Driver/Src/stm32f7xx_hal_hcd.c ****   *            URB_DONE/
 736:Drivers/STM32F7xx_HAL_Driver/Src/stm32f7xx_hal_hcd.c ****   *            URB_NOTREADY/
 737:Drivers/STM32F7xx_HAL_Driver/Src/stm32f7xx_hal_hcd.c ****   *            URB_NYET/
 738:Drivers/STM32F7xx_HAL_Driver/Src/stm32f7xx_hal_hcd.c ****   *            URB_ERROR/
 739:Drivers/STM32F7xx_HAL_Driver/Src/stm32f7xx_hal_hcd.c ****   *            URB_STALL
 740:Drivers/STM32F7xx_HAL_Driver/Src/stm32f7xx_hal_hcd.c ****   */
 741:Drivers/STM32F7xx_HAL_Driver/Src/stm32f7xx_hal_hcd.c **** HCD_URBStateTypeDef HAL_HCD_HC_GetURBState(HCD_HandleTypeDef *hhcd, uint8_t chnum)
 742:Drivers/STM32F7xx_HAL_Driver/Src/stm32f7xx_hal_hcd.c **** {
 743:Drivers/STM32F7xx_HAL_Driver/Src/stm32f7xx_hal_hcd.c ****   return hhcd->hc[chnum].urb_state;
 744:Drivers/STM32F7xx_HAL_Driver/Src/stm32f7xx_hal_hcd.c **** }
 745:Drivers/STM32F7xx_HAL_Driver/Src/stm32f7xx_hal_hcd.c **** 
 746:Drivers/STM32F7xx_HAL_Driver/Src/stm32f7xx_hal_hcd.c **** 
 747:Drivers/STM32F7xx_HAL_Driver/Src/stm32f7xx_hal_hcd.c **** /**
 748:Drivers/STM32F7xx_HAL_Driver/Src/stm32f7xx_hal_hcd.c ****   * @brief  Return the last host transfer size.
 749:Drivers/STM32F7xx_HAL_Driver/Src/stm32f7xx_hal_hcd.c ****   * @param  hhcd HCD handle
 750:Drivers/STM32F7xx_HAL_Driver/Src/stm32f7xx_hal_hcd.c ****   * @param  chnum Channel number.
 751:Drivers/STM32F7xx_HAL_Driver/Src/stm32f7xx_hal_hcd.c ****   *         This parameter can be a value from 1 to 15
 752:Drivers/STM32F7xx_HAL_Driver/Src/stm32f7xx_hal_hcd.c ****   * @retval last transfer size in byte
 753:Drivers/STM32F7xx_HAL_Driver/Src/stm32f7xx_hal_hcd.c ****   */
 754:Drivers/STM32F7xx_HAL_Driver/Src/stm32f7xx_hal_hcd.c **** uint32_t HAL_HCD_HC_GetXferCount(HCD_HandleTypeDef *hhcd, uint8_t chnum)
 755:Drivers/STM32F7xx_HAL_Driver/Src/stm32f7xx_hal_hcd.c **** {
 756:Drivers/STM32F7xx_HAL_Driver/Src/stm32f7xx_hal_hcd.c ****   return hhcd->hc[chnum].xfer_count;
 757:Drivers/STM32F7xx_HAL_Driver/Src/stm32f7xx_hal_hcd.c **** }
 758:Drivers/STM32F7xx_HAL_Driver/Src/stm32f7xx_hal_hcd.c **** 
 759:Drivers/STM32F7xx_HAL_Driver/Src/stm32f7xx_hal_hcd.c **** /**
 760:Drivers/STM32F7xx_HAL_Driver/Src/stm32f7xx_hal_hcd.c ****   * @brief  Return the Host Channel state.
 761:Drivers/STM32F7xx_HAL_Driver/Src/stm32f7xx_hal_hcd.c ****   * @param  hhcd HCD handle
 762:Drivers/STM32F7xx_HAL_Driver/Src/stm32f7xx_hal_hcd.c ****   * @param  chnum Channel number.
 763:Drivers/STM32F7xx_HAL_Driver/Src/stm32f7xx_hal_hcd.c ****   *         This parameter can be a value from 1 to 15
 764:Drivers/STM32F7xx_HAL_Driver/Src/stm32f7xx_hal_hcd.c ****   * @retval Host channel state
 765:Drivers/STM32F7xx_HAL_Driver/Src/stm32f7xx_hal_hcd.c ****   *          This parameter can be one of these values:
 766:Drivers/STM32F7xx_HAL_Driver/Src/stm32f7xx_hal_hcd.c ****   *            HC_IDLE/
 767:Drivers/STM32F7xx_HAL_Driver/Src/stm32f7xx_hal_hcd.c ****   *            HC_XFRC/
 768:Drivers/STM32F7xx_HAL_Driver/Src/stm32f7xx_hal_hcd.c ****   *            HC_HALTED/
 769:Drivers/STM32F7xx_HAL_Driver/Src/stm32f7xx_hal_hcd.c ****   *            HC_NYET/
 770:Drivers/STM32F7xx_HAL_Driver/Src/stm32f7xx_hal_hcd.c ****   *            HC_NAK/
 771:Drivers/STM32F7xx_HAL_Driver/Src/stm32f7xx_hal_hcd.c ****   *            HC_STALL/
 772:Drivers/STM32F7xx_HAL_Driver/Src/stm32f7xx_hal_hcd.c ****   *            HC_XACTERR/
 773:Drivers/STM32F7xx_HAL_Driver/Src/stm32f7xx_hal_hcd.c ****   *            HC_BBLERR/
ARM GAS  /tmp/ccGDlo4w.s 			page 15


 774:Drivers/STM32F7xx_HAL_Driver/Src/stm32f7xx_hal_hcd.c ****   *            HC_DATATGLERR
 775:Drivers/STM32F7xx_HAL_Driver/Src/stm32f7xx_hal_hcd.c ****   */
 776:Drivers/STM32F7xx_HAL_Driver/Src/stm32f7xx_hal_hcd.c **** HCD_HCStateTypeDef  HAL_HCD_HC_GetState(HCD_HandleTypeDef *hhcd, uint8_t chnum)
 777:Drivers/STM32F7xx_HAL_Driver/Src/stm32f7xx_hal_hcd.c **** {
 778:Drivers/STM32F7xx_HAL_Driver/Src/stm32f7xx_hal_hcd.c ****   return hhcd->hc[chnum].state;
 779:Drivers/STM32F7xx_HAL_Driver/Src/stm32f7xx_hal_hcd.c **** }
 780:Drivers/STM32F7xx_HAL_Driver/Src/stm32f7xx_hal_hcd.c **** 
 781:Drivers/STM32F7xx_HAL_Driver/Src/stm32f7xx_hal_hcd.c **** /**
 782:Drivers/STM32F7xx_HAL_Driver/Src/stm32f7xx_hal_hcd.c ****   * @brief  Return the current Host frame number.
 783:Drivers/STM32F7xx_HAL_Driver/Src/stm32f7xx_hal_hcd.c ****   * @param  hhcd HCD handle
 784:Drivers/STM32F7xx_HAL_Driver/Src/stm32f7xx_hal_hcd.c ****   * @retval Current Host frame number
 785:Drivers/STM32F7xx_HAL_Driver/Src/stm32f7xx_hal_hcd.c ****   */
 786:Drivers/STM32F7xx_HAL_Driver/Src/stm32f7xx_hal_hcd.c **** uint32_t HAL_HCD_GetCurrentFrame(HCD_HandleTypeDef *hhcd)
 787:Drivers/STM32F7xx_HAL_Driver/Src/stm32f7xx_hal_hcd.c **** {
 788:Drivers/STM32F7xx_HAL_Driver/Src/stm32f7xx_hal_hcd.c ****   return (USB_GetCurrentFrame(hhcd->Instance));
 789:Drivers/STM32F7xx_HAL_Driver/Src/stm32f7xx_hal_hcd.c **** }
 790:Drivers/STM32F7xx_HAL_Driver/Src/stm32f7xx_hal_hcd.c **** 
 791:Drivers/STM32F7xx_HAL_Driver/Src/stm32f7xx_hal_hcd.c **** /**
 792:Drivers/STM32F7xx_HAL_Driver/Src/stm32f7xx_hal_hcd.c ****   * @brief  Return the Host enumeration speed.
 793:Drivers/STM32F7xx_HAL_Driver/Src/stm32f7xx_hal_hcd.c ****   * @param  hhcd HCD handle
 794:Drivers/STM32F7xx_HAL_Driver/Src/stm32f7xx_hal_hcd.c ****   * @retval Enumeration speed
 795:Drivers/STM32F7xx_HAL_Driver/Src/stm32f7xx_hal_hcd.c ****   */
 796:Drivers/STM32F7xx_HAL_Driver/Src/stm32f7xx_hal_hcd.c **** uint32_t HAL_HCD_GetCurrentSpeed(HCD_HandleTypeDef *hhcd)
 797:Drivers/STM32F7xx_HAL_Driver/Src/stm32f7xx_hal_hcd.c **** {
 798:Drivers/STM32F7xx_HAL_Driver/Src/stm32f7xx_hal_hcd.c ****   return (USB_GetHostSpeed(hhcd->Instance));
 799:Drivers/STM32F7xx_HAL_Driver/Src/stm32f7xx_hal_hcd.c **** }
 800:Drivers/STM32F7xx_HAL_Driver/Src/stm32f7xx_hal_hcd.c **** 
 801:Drivers/STM32F7xx_HAL_Driver/Src/stm32f7xx_hal_hcd.c **** /**
 802:Drivers/STM32F7xx_HAL_Driver/Src/stm32f7xx_hal_hcd.c ****   * @}
 803:Drivers/STM32F7xx_HAL_Driver/Src/stm32f7xx_hal_hcd.c ****   */
 804:Drivers/STM32F7xx_HAL_Driver/Src/stm32f7xx_hal_hcd.c **** 
 805:Drivers/STM32F7xx_HAL_Driver/Src/stm32f7xx_hal_hcd.c **** /**
 806:Drivers/STM32F7xx_HAL_Driver/Src/stm32f7xx_hal_hcd.c ****   * @}
 807:Drivers/STM32F7xx_HAL_Driver/Src/stm32f7xx_hal_hcd.c ****   */
 808:Drivers/STM32F7xx_HAL_Driver/Src/stm32f7xx_hal_hcd.c **** 
 809:Drivers/STM32F7xx_HAL_Driver/Src/stm32f7xx_hal_hcd.c **** /** @addtogroup HCD_Private_Functions
 810:Drivers/STM32F7xx_HAL_Driver/Src/stm32f7xx_hal_hcd.c ****   * @{
 811:Drivers/STM32F7xx_HAL_Driver/Src/stm32f7xx_hal_hcd.c ****   */
 812:Drivers/STM32F7xx_HAL_Driver/Src/stm32f7xx_hal_hcd.c **** /**
 813:Drivers/STM32F7xx_HAL_Driver/Src/stm32f7xx_hal_hcd.c ****   * @brief  Handle Host Channel IN interrupt requests.
 814:Drivers/STM32F7xx_HAL_Driver/Src/stm32f7xx_hal_hcd.c ****   * @param  hhcd HCD handle
 815:Drivers/STM32F7xx_HAL_Driver/Src/stm32f7xx_hal_hcd.c ****   * @param  chnum Channel number.
 816:Drivers/STM32F7xx_HAL_Driver/Src/stm32f7xx_hal_hcd.c ****   *         This parameter can be a value from 1 to 15
 817:Drivers/STM32F7xx_HAL_Driver/Src/stm32f7xx_hal_hcd.c ****   * @retval none
 818:Drivers/STM32F7xx_HAL_Driver/Src/stm32f7xx_hal_hcd.c ****   */
 819:Drivers/STM32F7xx_HAL_Driver/Src/stm32f7xx_hal_hcd.c **** static void HCD_HC_IN_IRQHandler   (HCD_HandleTypeDef *hhcd, uint8_t chnum)
 820:Drivers/STM32F7xx_HAL_Driver/Src/stm32f7xx_hal_hcd.c **** {
 821:Drivers/STM32F7xx_HAL_Driver/Src/stm32f7xx_hal_hcd.c ****   USB_OTG_GlobalTypeDef *USBx = hhcd->Instance;
 822:Drivers/STM32F7xx_HAL_Driver/Src/stm32f7xx_hal_hcd.c ****   uint32_t tmpreg = 0;
 823:Drivers/STM32F7xx_HAL_Driver/Src/stm32f7xx_hal_hcd.c **** 
 824:Drivers/STM32F7xx_HAL_Driver/Src/stm32f7xx_hal_hcd.c ****   if ((USBx_HC(chnum)->HCINT) &  USB_OTG_HCINT_AHBERR)
 825:Drivers/STM32F7xx_HAL_Driver/Src/stm32f7xx_hal_hcd.c ****   {
 826:Drivers/STM32F7xx_HAL_Driver/Src/stm32f7xx_hal_hcd.c ****     __HAL_HCD_CLEAR_HC_INT(chnum, USB_OTG_HCINT_AHBERR);
 827:Drivers/STM32F7xx_HAL_Driver/Src/stm32f7xx_hal_hcd.c ****     __HAL_HCD_UNMASK_HALT_HC_INT(chnum);
 828:Drivers/STM32F7xx_HAL_Driver/Src/stm32f7xx_hal_hcd.c ****   }
 829:Drivers/STM32F7xx_HAL_Driver/Src/stm32f7xx_hal_hcd.c ****   else if ((USBx_HC(chnum)->HCINT) &  USB_OTG_HCINT_ACK)
 830:Drivers/STM32F7xx_HAL_Driver/Src/stm32f7xx_hal_hcd.c ****   {
ARM GAS  /tmp/ccGDlo4w.s 			page 16


 831:Drivers/STM32F7xx_HAL_Driver/Src/stm32f7xx_hal_hcd.c ****     __HAL_HCD_CLEAR_HC_INT(chnum, USB_OTG_HCINT_ACK);
 832:Drivers/STM32F7xx_HAL_Driver/Src/stm32f7xx_hal_hcd.c ****   }
 833:Drivers/STM32F7xx_HAL_Driver/Src/stm32f7xx_hal_hcd.c **** 
 834:Drivers/STM32F7xx_HAL_Driver/Src/stm32f7xx_hal_hcd.c ****   else if ((USBx_HC(chnum)->HCINT) &  USB_OTG_HCINT_STALL)
 835:Drivers/STM32F7xx_HAL_Driver/Src/stm32f7xx_hal_hcd.c ****   {
 836:Drivers/STM32F7xx_HAL_Driver/Src/stm32f7xx_hal_hcd.c ****     __HAL_HCD_UNMASK_HALT_HC_INT(chnum);
 837:Drivers/STM32F7xx_HAL_Driver/Src/stm32f7xx_hal_hcd.c ****     hhcd->hc[chnum].state = HC_STALL;
 838:Drivers/STM32F7xx_HAL_Driver/Src/stm32f7xx_hal_hcd.c ****     __HAL_HCD_CLEAR_HC_INT(chnum, USB_OTG_HCINT_NAK);
 839:Drivers/STM32F7xx_HAL_Driver/Src/stm32f7xx_hal_hcd.c ****     __HAL_HCD_CLEAR_HC_INT(chnum, USB_OTG_HCINT_STALL);
 840:Drivers/STM32F7xx_HAL_Driver/Src/stm32f7xx_hal_hcd.c ****     USB_HC_Halt(hhcd->Instance, chnum);
 841:Drivers/STM32F7xx_HAL_Driver/Src/stm32f7xx_hal_hcd.c ****   }
 842:Drivers/STM32F7xx_HAL_Driver/Src/stm32f7xx_hal_hcd.c ****   else if ((USBx_HC(chnum)->HCINT) &  USB_OTG_HCINT_DTERR)
 843:Drivers/STM32F7xx_HAL_Driver/Src/stm32f7xx_hal_hcd.c ****   {
 844:Drivers/STM32F7xx_HAL_Driver/Src/stm32f7xx_hal_hcd.c ****     __HAL_HCD_UNMASK_HALT_HC_INT(chnum);
 845:Drivers/STM32F7xx_HAL_Driver/Src/stm32f7xx_hal_hcd.c ****     USB_HC_Halt(hhcd->Instance, chnum);
 846:Drivers/STM32F7xx_HAL_Driver/Src/stm32f7xx_hal_hcd.c ****     __HAL_HCD_CLEAR_HC_INT(chnum, USB_OTG_HCINT_NAK);
 847:Drivers/STM32F7xx_HAL_Driver/Src/stm32f7xx_hal_hcd.c ****     hhcd->hc[chnum].state = HC_DATATGLERR;
 848:Drivers/STM32F7xx_HAL_Driver/Src/stm32f7xx_hal_hcd.c ****     __HAL_HCD_CLEAR_HC_INT(chnum, USB_OTG_HCINT_DTERR);
 849:Drivers/STM32F7xx_HAL_Driver/Src/stm32f7xx_hal_hcd.c ****   }
 850:Drivers/STM32F7xx_HAL_Driver/Src/stm32f7xx_hal_hcd.c **** 
 851:Drivers/STM32F7xx_HAL_Driver/Src/stm32f7xx_hal_hcd.c ****   if ((USBx_HC(chnum)->HCINT) &  USB_OTG_HCINT_FRMOR)
 852:Drivers/STM32F7xx_HAL_Driver/Src/stm32f7xx_hal_hcd.c ****   {
 853:Drivers/STM32F7xx_HAL_Driver/Src/stm32f7xx_hal_hcd.c ****     __HAL_HCD_UNMASK_HALT_HC_INT(chnum);
 854:Drivers/STM32F7xx_HAL_Driver/Src/stm32f7xx_hal_hcd.c ****     USB_HC_Halt(hhcd->Instance, chnum);
 855:Drivers/STM32F7xx_HAL_Driver/Src/stm32f7xx_hal_hcd.c ****     __HAL_HCD_CLEAR_HC_INT(chnum, USB_OTG_HCINT_FRMOR);
 856:Drivers/STM32F7xx_HAL_Driver/Src/stm32f7xx_hal_hcd.c ****   }
 857:Drivers/STM32F7xx_HAL_Driver/Src/stm32f7xx_hal_hcd.c **** 
 858:Drivers/STM32F7xx_HAL_Driver/Src/stm32f7xx_hal_hcd.c ****   else if ((USBx_HC(chnum)->HCINT) &  USB_OTG_HCINT_XFRC)
 859:Drivers/STM32F7xx_HAL_Driver/Src/stm32f7xx_hal_hcd.c ****   {
 860:Drivers/STM32F7xx_HAL_Driver/Src/stm32f7xx_hal_hcd.c **** 
 861:Drivers/STM32F7xx_HAL_Driver/Src/stm32f7xx_hal_hcd.c ****     if (hhcd->Init.dma_enable)
 862:Drivers/STM32F7xx_HAL_Driver/Src/stm32f7xx_hal_hcd.c ****     {
 863:Drivers/STM32F7xx_HAL_Driver/Src/stm32f7xx_hal_hcd.c ****       hhcd->hc[chnum].xfer_count = hhcd->hc[chnum].xfer_len - \
 864:Drivers/STM32F7xx_HAL_Driver/Src/stm32f7xx_hal_hcd.c ****                                (USBx_HC(chnum)->HCTSIZ & USB_OTG_HCTSIZ_XFRSIZ);
 865:Drivers/STM32F7xx_HAL_Driver/Src/stm32f7xx_hal_hcd.c ****     }
 866:Drivers/STM32F7xx_HAL_Driver/Src/stm32f7xx_hal_hcd.c **** 
 867:Drivers/STM32F7xx_HAL_Driver/Src/stm32f7xx_hal_hcd.c ****     hhcd->hc[chnum].state = HC_XFRC;
 868:Drivers/STM32F7xx_HAL_Driver/Src/stm32f7xx_hal_hcd.c ****     hhcd->hc[chnum].ErrCnt = 0;
 869:Drivers/STM32F7xx_HAL_Driver/Src/stm32f7xx_hal_hcd.c ****     __HAL_HCD_CLEAR_HC_INT(chnum, USB_OTG_HCINT_XFRC);
 870:Drivers/STM32F7xx_HAL_Driver/Src/stm32f7xx_hal_hcd.c **** 
 871:Drivers/STM32F7xx_HAL_Driver/Src/stm32f7xx_hal_hcd.c **** 
 872:Drivers/STM32F7xx_HAL_Driver/Src/stm32f7xx_hal_hcd.c ****     if ((hhcd->hc[chnum].ep_type == EP_TYPE_CTRL)||
 873:Drivers/STM32F7xx_HAL_Driver/Src/stm32f7xx_hal_hcd.c ****         (hhcd->hc[chnum].ep_type == EP_TYPE_BULK))
 874:Drivers/STM32F7xx_HAL_Driver/Src/stm32f7xx_hal_hcd.c ****     {
 875:Drivers/STM32F7xx_HAL_Driver/Src/stm32f7xx_hal_hcd.c ****       __HAL_HCD_UNMASK_HALT_HC_INT(chnum);
 876:Drivers/STM32F7xx_HAL_Driver/Src/stm32f7xx_hal_hcd.c ****       USB_HC_Halt(hhcd->Instance, chnum);
 877:Drivers/STM32F7xx_HAL_Driver/Src/stm32f7xx_hal_hcd.c ****       __HAL_HCD_CLEAR_HC_INT(chnum, USB_OTG_HCINT_NAK);
 878:Drivers/STM32F7xx_HAL_Driver/Src/stm32f7xx_hal_hcd.c **** 
 879:Drivers/STM32F7xx_HAL_Driver/Src/stm32f7xx_hal_hcd.c ****     }
 880:Drivers/STM32F7xx_HAL_Driver/Src/stm32f7xx_hal_hcd.c ****     else if(hhcd->hc[chnum].ep_type == EP_TYPE_INTR)
 881:Drivers/STM32F7xx_HAL_Driver/Src/stm32f7xx_hal_hcd.c ****     {
 882:Drivers/STM32F7xx_HAL_Driver/Src/stm32f7xx_hal_hcd.c ****       USBx_HC(chnum)->HCCHAR |= USB_OTG_HCCHAR_ODDFRM;
 883:Drivers/STM32F7xx_HAL_Driver/Src/stm32f7xx_hal_hcd.c ****       hhcd->hc[chnum].urb_state = URB_DONE;
 884:Drivers/STM32F7xx_HAL_Driver/Src/stm32f7xx_hal_hcd.c ****       HAL_HCD_HC_NotifyURBChange_Callback(hhcd, chnum, hhcd->hc[chnum].urb_state);
 885:Drivers/STM32F7xx_HAL_Driver/Src/stm32f7xx_hal_hcd.c ****     }
 886:Drivers/STM32F7xx_HAL_Driver/Src/stm32f7xx_hal_hcd.c ****     hhcd->hc[chnum].toggle_in ^= 1;
 887:Drivers/STM32F7xx_HAL_Driver/Src/stm32f7xx_hal_hcd.c **** 
ARM GAS  /tmp/ccGDlo4w.s 			page 17


 888:Drivers/STM32F7xx_HAL_Driver/Src/stm32f7xx_hal_hcd.c ****   }
 889:Drivers/STM32F7xx_HAL_Driver/Src/stm32f7xx_hal_hcd.c ****   else if ((USBx_HC(chnum)->HCINT) &  USB_OTG_HCINT_CHH)
 890:Drivers/STM32F7xx_HAL_Driver/Src/stm32f7xx_hal_hcd.c ****   {
 891:Drivers/STM32F7xx_HAL_Driver/Src/stm32f7xx_hal_hcd.c ****     __HAL_HCD_MASK_HALT_HC_INT(chnum);
 892:Drivers/STM32F7xx_HAL_Driver/Src/stm32f7xx_hal_hcd.c **** 
 893:Drivers/STM32F7xx_HAL_Driver/Src/stm32f7xx_hal_hcd.c ****     if(hhcd->hc[chnum].state == HC_XFRC)
 894:Drivers/STM32F7xx_HAL_Driver/Src/stm32f7xx_hal_hcd.c ****     {
 895:Drivers/STM32F7xx_HAL_Driver/Src/stm32f7xx_hal_hcd.c ****       hhcd->hc[chnum].urb_state  = URB_DONE;
 896:Drivers/STM32F7xx_HAL_Driver/Src/stm32f7xx_hal_hcd.c ****     }
 897:Drivers/STM32F7xx_HAL_Driver/Src/stm32f7xx_hal_hcd.c **** 
 898:Drivers/STM32F7xx_HAL_Driver/Src/stm32f7xx_hal_hcd.c ****     else if (hhcd->hc[chnum].state == HC_STALL)
 899:Drivers/STM32F7xx_HAL_Driver/Src/stm32f7xx_hal_hcd.c ****     {
 900:Drivers/STM32F7xx_HAL_Driver/Src/stm32f7xx_hal_hcd.c ****       hhcd->hc[chnum].urb_state  = URB_STALL;
 901:Drivers/STM32F7xx_HAL_Driver/Src/stm32f7xx_hal_hcd.c ****     }
 902:Drivers/STM32F7xx_HAL_Driver/Src/stm32f7xx_hal_hcd.c **** 
 903:Drivers/STM32F7xx_HAL_Driver/Src/stm32f7xx_hal_hcd.c ****     else if((hhcd->hc[chnum].state == HC_XACTERR) ||
 904:Drivers/STM32F7xx_HAL_Driver/Src/stm32f7xx_hal_hcd.c ****             (hhcd->hc[chnum].state == HC_DATATGLERR))
 905:Drivers/STM32F7xx_HAL_Driver/Src/stm32f7xx_hal_hcd.c ****     {
 906:Drivers/STM32F7xx_HAL_Driver/Src/stm32f7xx_hal_hcd.c ****       if(hhcd->hc[chnum].ErrCnt++ > 3)
 907:Drivers/STM32F7xx_HAL_Driver/Src/stm32f7xx_hal_hcd.c ****       {
 908:Drivers/STM32F7xx_HAL_Driver/Src/stm32f7xx_hal_hcd.c ****         hhcd->hc[chnum].ErrCnt = 0;
 909:Drivers/STM32F7xx_HAL_Driver/Src/stm32f7xx_hal_hcd.c ****         hhcd->hc[chnum].urb_state = URB_ERROR;
 910:Drivers/STM32F7xx_HAL_Driver/Src/stm32f7xx_hal_hcd.c ****       }
 911:Drivers/STM32F7xx_HAL_Driver/Src/stm32f7xx_hal_hcd.c ****       else
 912:Drivers/STM32F7xx_HAL_Driver/Src/stm32f7xx_hal_hcd.c ****       {
 913:Drivers/STM32F7xx_HAL_Driver/Src/stm32f7xx_hal_hcd.c ****         hhcd->hc[chnum].urb_state = URB_NOTREADY;
 914:Drivers/STM32F7xx_HAL_Driver/Src/stm32f7xx_hal_hcd.c ****       }
 915:Drivers/STM32F7xx_HAL_Driver/Src/stm32f7xx_hal_hcd.c **** 
 916:Drivers/STM32F7xx_HAL_Driver/Src/stm32f7xx_hal_hcd.c ****       /* re-activate the channel  */
 917:Drivers/STM32F7xx_HAL_Driver/Src/stm32f7xx_hal_hcd.c ****       tmpreg = USBx_HC(chnum)->HCCHAR;
 918:Drivers/STM32F7xx_HAL_Driver/Src/stm32f7xx_hal_hcd.c ****       tmpreg &= ~USB_OTG_HCCHAR_CHDIS;
 919:Drivers/STM32F7xx_HAL_Driver/Src/stm32f7xx_hal_hcd.c ****       tmpreg |= USB_OTG_HCCHAR_CHENA;
 920:Drivers/STM32F7xx_HAL_Driver/Src/stm32f7xx_hal_hcd.c ****       USBx_HC(chnum)->HCCHAR = tmpreg;
 921:Drivers/STM32F7xx_HAL_Driver/Src/stm32f7xx_hal_hcd.c ****     }
 922:Drivers/STM32F7xx_HAL_Driver/Src/stm32f7xx_hal_hcd.c ****     else if (hhcd->hc[chnum].state == HC_NAK)
 923:Drivers/STM32F7xx_HAL_Driver/Src/stm32f7xx_hal_hcd.c ****     {
 924:Drivers/STM32F7xx_HAL_Driver/Src/stm32f7xx_hal_hcd.c ****       hhcd->hc[chnum].urb_state  = URB_NOTREADY;
 925:Drivers/STM32F7xx_HAL_Driver/Src/stm32f7xx_hal_hcd.c ****        /* re-activate the channel  */
 926:Drivers/STM32F7xx_HAL_Driver/Src/stm32f7xx_hal_hcd.c ****       tmpreg = USBx_HC(chnum)->HCCHAR;
 927:Drivers/STM32F7xx_HAL_Driver/Src/stm32f7xx_hal_hcd.c ****       tmpreg &= ~USB_OTG_HCCHAR_CHDIS;
 928:Drivers/STM32F7xx_HAL_Driver/Src/stm32f7xx_hal_hcd.c ****       tmpreg |= USB_OTG_HCCHAR_CHENA;
 929:Drivers/STM32F7xx_HAL_Driver/Src/stm32f7xx_hal_hcd.c ****       USBx_HC(chnum)->HCCHAR = tmpreg;
 930:Drivers/STM32F7xx_HAL_Driver/Src/stm32f7xx_hal_hcd.c ****     }
 931:Drivers/STM32F7xx_HAL_Driver/Src/stm32f7xx_hal_hcd.c ****     __HAL_HCD_CLEAR_HC_INT(chnum, USB_OTG_HCINT_CHH);
 932:Drivers/STM32F7xx_HAL_Driver/Src/stm32f7xx_hal_hcd.c ****     HAL_HCD_HC_NotifyURBChange_Callback(hhcd, chnum, hhcd->hc[chnum].urb_state);
 933:Drivers/STM32F7xx_HAL_Driver/Src/stm32f7xx_hal_hcd.c ****   }
 934:Drivers/STM32F7xx_HAL_Driver/Src/stm32f7xx_hal_hcd.c **** 
 935:Drivers/STM32F7xx_HAL_Driver/Src/stm32f7xx_hal_hcd.c ****   else if ((USBx_HC(chnum)->HCINT) &  USB_OTG_HCINT_TXERR)
 936:Drivers/STM32F7xx_HAL_Driver/Src/stm32f7xx_hal_hcd.c ****   {
 937:Drivers/STM32F7xx_HAL_Driver/Src/stm32f7xx_hal_hcd.c ****     __HAL_HCD_UNMASK_HALT_HC_INT(chnum);
 938:Drivers/STM32F7xx_HAL_Driver/Src/stm32f7xx_hal_hcd.c ****      hhcd->hc[chnum].ErrCnt++;
 939:Drivers/STM32F7xx_HAL_Driver/Src/stm32f7xx_hal_hcd.c ****      hhcd->hc[chnum].state = HC_XACTERR;
 940:Drivers/STM32F7xx_HAL_Driver/Src/stm32f7xx_hal_hcd.c ****      USB_HC_Halt(hhcd->Instance, chnum);
 941:Drivers/STM32F7xx_HAL_Driver/Src/stm32f7xx_hal_hcd.c ****      __HAL_HCD_CLEAR_HC_INT(chnum, USB_OTG_HCINT_TXERR);
 942:Drivers/STM32F7xx_HAL_Driver/Src/stm32f7xx_hal_hcd.c ****   }
 943:Drivers/STM32F7xx_HAL_Driver/Src/stm32f7xx_hal_hcd.c ****   else if ((USBx_HC(chnum)->HCINT) &  USB_OTG_HCINT_NAK)
 944:Drivers/STM32F7xx_HAL_Driver/Src/stm32f7xx_hal_hcd.c ****   {
ARM GAS  /tmp/ccGDlo4w.s 			page 18


 945:Drivers/STM32F7xx_HAL_Driver/Src/stm32f7xx_hal_hcd.c ****     if(hhcd->hc[chnum].ep_type == EP_TYPE_INTR)
 946:Drivers/STM32F7xx_HAL_Driver/Src/stm32f7xx_hal_hcd.c ****     {
 947:Drivers/STM32F7xx_HAL_Driver/Src/stm32f7xx_hal_hcd.c ****        hhcd->hc[chnum].ErrCnt = 0;
 948:Drivers/STM32F7xx_HAL_Driver/Src/stm32f7xx_hal_hcd.c ****       __HAL_HCD_UNMASK_HALT_HC_INT(chnum);
 949:Drivers/STM32F7xx_HAL_Driver/Src/stm32f7xx_hal_hcd.c ****       USB_HC_Halt(hhcd->Instance, chnum);
 950:Drivers/STM32F7xx_HAL_Driver/Src/stm32f7xx_hal_hcd.c ****     }
 951:Drivers/STM32F7xx_HAL_Driver/Src/stm32f7xx_hal_hcd.c ****     else if ((hhcd->hc[chnum].ep_type == EP_TYPE_CTRL)||
 952:Drivers/STM32F7xx_HAL_Driver/Src/stm32f7xx_hal_hcd.c ****              (hhcd->hc[chnum].ep_type == EP_TYPE_BULK))
 953:Drivers/STM32F7xx_HAL_Driver/Src/stm32f7xx_hal_hcd.c ****     {
 954:Drivers/STM32F7xx_HAL_Driver/Src/stm32f7xx_hal_hcd.c ****        hhcd->hc[chnum].ErrCnt = 0;
 955:Drivers/STM32F7xx_HAL_Driver/Src/stm32f7xx_hal_hcd.c ****        if (!hhcd->Init.dma_enable)
 956:Drivers/STM32F7xx_HAL_Driver/Src/stm32f7xx_hal_hcd.c ****        {
 957:Drivers/STM32F7xx_HAL_Driver/Src/stm32f7xx_hal_hcd.c ****          hhcd->hc[chnum].state = HC_NAK;
 958:Drivers/STM32F7xx_HAL_Driver/Src/stm32f7xx_hal_hcd.c ****          __HAL_HCD_UNMASK_HALT_HC_INT(chnum);
 959:Drivers/STM32F7xx_HAL_Driver/Src/stm32f7xx_hal_hcd.c ****          USB_HC_Halt(hhcd->Instance, chnum);
 960:Drivers/STM32F7xx_HAL_Driver/Src/stm32f7xx_hal_hcd.c ****        }
 961:Drivers/STM32F7xx_HAL_Driver/Src/stm32f7xx_hal_hcd.c ****     }
 962:Drivers/STM32F7xx_HAL_Driver/Src/stm32f7xx_hal_hcd.c ****     __HAL_HCD_CLEAR_HC_INT(chnum, USB_OTG_HCINT_NAK);
 963:Drivers/STM32F7xx_HAL_Driver/Src/stm32f7xx_hal_hcd.c ****   }
 964:Drivers/STM32F7xx_HAL_Driver/Src/stm32f7xx_hal_hcd.c **** }
 965:Drivers/STM32F7xx_HAL_Driver/Src/stm32f7xx_hal_hcd.c **** 
 966:Drivers/STM32F7xx_HAL_Driver/Src/stm32f7xx_hal_hcd.c **** /**
 967:Drivers/STM32F7xx_HAL_Driver/Src/stm32f7xx_hal_hcd.c ****   * @brief  Handle Host Channel OUT interrupt requests.
 968:Drivers/STM32F7xx_HAL_Driver/Src/stm32f7xx_hal_hcd.c ****   * @param  hhcd HCD handle
 969:Drivers/STM32F7xx_HAL_Driver/Src/stm32f7xx_hal_hcd.c ****   * @param  chnum Channel number.
 970:Drivers/STM32F7xx_HAL_Driver/Src/stm32f7xx_hal_hcd.c ****   *         This parameter can be a value from 1 to 15
 971:Drivers/STM32F7xx_HAL_Driver/Src/stm32f7xx_hal_hcd.c ****   * @retval none
 972:Drivers/STM32F7xx_HAL_Driver/Src/stm32f7xx_hal_hcd.c ****   */
 973:Drivers/STM32F7xx_HAL_Driver/Src/stm32f7xx_hal_hcd.c **** static void HCD_HC_OUT_IRQHandler  (HCD_HandleTypeDef *hhcd, uint8_t chnum)
 974:Drivers/STM32F7xx_HAL_Driver/Src/stm32f7xx_hal_hcd.c **** {
 975:Drivers/STM32F7xx_HAL_Driver/Src/stm32f7xx_hal_hcd.c ****   USB_OTG_GlobalTypeDef *USBx = hhcd->Instance;
 976:Drivers/STM32F7xx_HAL_Driver/Src/stm32f7xx_hal_hcd.c ****   uint32_t tmpreg = 0;
 977:Drivers/STM32F7xx_HAL_Driver/Src/stm32f7xx_hal_hcd.c **** 
 978:Drivers/STM32F7xx_HAL_Driver/Src/stm32f7xx_hal_hcd.c ****   if ((USBx_HC(chnum)->HCINT) &  USB_OTG_HCINT_AHBERR)
 979:Drivers/STM32F7xx_HAL_Driver/Src/stm32f7xx_hal_hcd.c ****   {
 980:Drivers/STM32F7xx_HAL_Driver/Src/stm32f7xx_hal_hcd.c ****     __HAL_HCD_CLEAR_HC_INT(chnum, USB_OTG_HCINT_AHBERR);
 981:Drivers/STM32F7xx_HAL_Driver/Src/stm32f7xx_hal_hcd.c ****     __HAL_HCD_UNMASK_HALT_HC_INT(chnum);
 982:Drivers/STM32F7xx_HAL_Driver/Src/stm32f7xx_hal_hcd.c ****   }
 983:Drivers/STM32F7xx_HAL_Driver/Src/stm32f7xx_hal_hcd.c ****   else if ((USBx_HC(chnum)->HCINT) &  USB_OTG_HCINT_ACK)
 984:Drivers/STM32F7xx_HAL_Driver/Src/stm32f7xx_hal_hcd.c ****   {
 985:Drivers/STM32F7xx_HAL_Driver/Src/stm32f7xx_hal_hcd.c ****     __HAL_HCD_CLEAR_HC_INT(chnum, USB_OTG_HCINT_ACK);
 986:Drivers/STM32F7xx_HAL_Driver/Src/stm32f7xx_hal_hcd.c ****     if( hhcd->hc[chnum].do_ping == 1)
 987:Drivers/STM32F7xx_HAL_Driver/Src/stm32f7xx_hal_hcd.c ****     {
 988:Drivers/STM32F7xx_HAL_Driver/Src/stm32f7xx_hal_hcd.c ****       hhcd->hc[chnum].do_ping = 0;
 989:Drivers/STM32F7xx_HAL_Driver/Src/stm32f7xx_hal_hcd.c ****       hhcd->hc[chnum].urb_state  = URB_NOTREADY;
 990:Drivers/STM32F7xx_HAL_Driver/Src/stm32f7xx_hal_hcd.c ****       __HAL_HCD_UNMASK_HALT_HC_INT(chnum);
 991:Drivers/STM32F7xx_HAL_Driver/Src/stm32f7xx_hal_hcd.c ****       USB_HC_Halt(hhcd->Instance, chnum);
 992:Drivers/STM32F7xx_HAL_Driver/Src/stm32f7xx_hal_hcd.c ****     }
 993:Drivers/STM32F7xx_HAL_Driver/Src/stm32f7xx_hal_hcd.c ****   }
 994:Drivers/STM32F7xx_HAL_Driver/Src/stm32f7xx_hal_hcd.c **** 
 995:Drivers/STM32F7xx_HAL_Driver/Src/stm32f7xx_hal_hcd.c ****   else if ((USBx_HC(chnum)->HCINT) &  USB_OTG_HCINT_NYET)
 996:Drivers/STM32F7xx_HAL_Driver/Src/stm32f7xx_hal_hcd.c ****   {
 997:Drivers/STM32F7xx_HAL_Driver/Src/stm32f7xx_hal_hcd.c ****     hhcd->hc[chnum].state = HC_NYET;
 998:Drivers/STM32F7xx_HAL_Driver/Src/stm32f7xx_hal_hcd.c ****     hhcd->hc[chnum].do_ping = 1;
 999:Drivers/STM32F7xx_HAL_Driver/Src/stm32f7xx_hal_hcd.c ****     hhcd->hc[chnum].ErrCnt= 0;
1000:Drivers/STM32F7xx_HAL_Driver/Src/stm32f7xx_hal_hcd.c ****     __HAL_HCD_UNMASK_HALT_HC_INT(chnum);
1001:Drivers/STM32F7xx_HAL_Driver/Src/stm32f7xx_hal_hcd.c ****     USB_HC_Halt(hhcd->Instance, chnum);
ARM GAS  /tmp/ccGDlo4w.s 			page 19


1002:Drivers/STM32F7xx_HAL_Driver/Src/stm32f7xx_hal_hcd.c ****     __HAL_HCD_CLEAR_HC_INT(chnum, USB_OTG_HCINT_NYET);
1003:Drivers/STM32F7xx_HAL_Driver/Src/stm32f7xx_hal_hcd.c ****   }
1004:Drivers/STM32F7xx_HAL_Driver/Src/stm32f7xx_hal_hcd.c **** 
1005:Drivers/STM32F7xx_HAL_Driver/Src/stm32f7xx_hal_hcd.c ****   else if ((USBx_HC(chnum)->HCINT) &  USB_OTG_HCINT_FRMOR)
1006:Drivers/STM32F7xx_HAL_Driver/Src/stm32f7xx_hal_hcd.c ****   {
1007:Drivers/STM32F7xx_HAL_Driver/Src/stm32f7xx_hal_hcd.c ****     __HAL_HCD_UNMASK_HALT_HC_INT(chnum);
1008:Drivers/STM32F7xx_HAL_Driver/Src/stm32f7xx_hal_hcd.c ****     USB_HC_Halt(hhcd->Instance, chnum);
1009:Drivers/STM32F7xx_HAL_Driver/Src/stm32f7xx_hal_hcd.c ****     __HAL_HCD_CLEAR_HC_INT(chnum, USB_OTG_HCINT_FRMOR);
1010:Drivers/STM32F7xx_HAL_Driver/Src/stm32f7xx_hal_hcd.c ****   }
1011:Drivers/STM32F7xx_HAL_Driver/Src/stm32f7xx_hal_hcd.c **** 
1012:Drivers/STM32F7xx_HAL_Driver/Src/stm32f7xx_hal_hcd.c ****   else if ((USBx_HC(chnum)->HCINT) &  USB_OTG_HCINT_XFRC)
1013:Drivers/STM32F7xx_HAL_Driver/Src/stm32f7xx_hal_hcd.c ****   {
1014:Drivers/STM32F7xx_HAL_Driver/Src/stm32f7xx_hal_hcd.c ****       hhcd->hc[chnum].ErrCnt = 0;
1015:Drivers/STM32F7xx_HAL_Driver/Src/stm32f7xx_hal_hcd.c ****     __HAL_HCD_UNMASK_HALT_HC_INT(chnum);
1016:Drivers/STM32F7xx_HAL_Driver/Src/stm32f7xx_hal_hcd.c ****     USB_HC_Halt(hhcd->Instance, chnum);
1017:Drivers/STM32F7xx_HAL_Driver/Src/stm32f7xx_hal_hcd.c ****     __HAL_HCD_CLEAR_HC_INT(chnum, USB_OTG_HCINT_XFRC);
1018:Drivers/STM32F7xx_HAL_Driver/Src/stm32f7xx_hal_hcd.c ****     hhcd->hc[chnum].state = HC_XFRC;
1019:Drivers/STM32F7xx_HAL_Driver/Src/stm32f7xx_hal_hcd.c **** 
1020:Drivers/STM32F7xx_HAL_Driver/Src/stm32f7xx_hal_hcd.c ****   }
1021:Drivers/STM32F7xx_HAL_Driver/Src/stm32f7xx_hal_hcd.c **** 
1022:Drivers/STM32F7xx_HAL_Driver/Src/stm32f7xx_hal_hcd.c ****   else if ((USBx_HC(chnum)->HCINT) &  USB_OTG_HCINT_STALL)
1023:Drivers/STM32F7xx_HAL_Driver/Src/stm32f7xx_hal_hcd.c ****   {
1024:Drivers/STM32F7xx_HAL_Driver/Src/stm32f7xx_hal_hcd.c ****     __HAL_HCD_CLEAR_HC_INT(chnum, USB_OTG_HCINT_STALL);
1025:Drivers/STM32F7xx_HAL_Driver/Src/stm32f7xx_hal_hcd.c ****     __HAL_HCD_UNMASK_HALT_HC_INT(chnum);
1026:Drivers/STM32F7xx_HAL_Driver/Src/stm32f7xx_hal_hcd.c ****     USB_HC_Halt(hhcd->Instance, chnum);
1027:Drivers/STM32F7xx_HAL_Driver/Src/stm32f7xx_hal_hcd.c ****     hhcd->hc[chnum].state = HC_STALL;
1028:Drivers/STM32F7xx_HAL_Driver/Src/stm32f7xx_hal_hcd.c ****   }
1029:Drivers/STM32F7xx_HAL_Driver/Src/stm32f7xx_hal_hcd.c **** 
1030:Drivers/STM32F7xx_HAL_Driver/Src/stm32f7xx_hal_hcd.c ****   else if ((USBx_HC(chnum)->HCINT) &  USB_OTG_HCINT_NAK)
1031:Drivers/STM32F7xx_HAL_Driver/Src/stm32f7xx_hal_hcd.c ****   {
1032:Drivers/STM32F7xx_HAL_Driver/Src/stm32f7xx_hal_hcd.c ****     hhcd->hc[chnum].ErrCnt = 0;
1033:Drivers/STM32F7xx_HAL_Driver/Src/stm32f7xx_hal_hcd.c ****     hhcd->hc[chnum].state = HC_NAK;
1034:Drivers/STM32F7xx_HAL_Driver/Src/stm32f7xx_hal_hcd.c **** 
1035:Drivers/STM32F7xx_HAL_Driver/Src/stm32f7xx_hal_hcd.c ****     if ( hhcd->hc[chnum].do_ping == 0)
1036:Drivers/STM32F7xx_HAL_Driver/Src/stm32f7xx_hal_hcd.c ****     {
1037:Drivers/STM32F7xx_HAL_Driver/Src/stm32f7xx_hal_hcd.c ****       if (hhcd->hc[chnum].speed == HCD_SPEED_HIGH)
1038:Drivers/STM32F7xx_HAL_Driver/Src/stm32f7xx_hal_hcd.c ****       {
1039:Drivers/STM32F7xx_HAL_Driver/Src/stm32f7xx_hal_hcd.c ****         hhcd->hc[chnum].do_ping = 1;
1040:Drivers/STM32F7xx_HAL_Driver/Src/stm32f7xx_hal_hcd.c ****       }
1041:Drivers/STM32F7xx_HAL_Driver/Src/stm32f7xx_hal_hcd.c ****     }
1042:Drivers/STM32F7xx_HAL_Driver/Src/stm32f7xx_hal_hcd.c **** 
1043:Drivers/STM32F7xx_HAL_Driver/Src/stm32f7xx_hal_hcd.c ****     __HAL_HCD_UNMASK_HALT_HC_INT(chnum);
1044:Drivers/STM32F7xx_HAL_Driver/Src/stm32f7xx_hal_hcd.c ****     USB_HC_Halt(hhcd->Instance, chnum);
1045:Drivers/STM32F7xx_HAL_Driver/Src/stm32f7xx_hal_hcd.c ****     __HAL_HCD_CLEAR_HC_INT(chnum, USB_OTG_HCINT_NAK);
1046:Drivers/STM32F7xx_HAL_Driver/Src/stm32f7xx_hal_hcd.c ****   }
1047:Drivers/STM32F7xx_HAL_Driver/Src/stm32f7xx_hal_hcd.c **** 
1048:Drivers/STM32F7xx_HAL_Driver/Src/stm32f7xx_hal_hcd.c ****   else if ((USBx_HC(chnum)->HCINT) &  USB_OTG_HCINT_TXERR)
1049:Drivers/STM32F7xx_HAL_Driver/Src/stm32f7xx_hal_hcd.c ****   {
1050:Drivers/STM32F7xx_HAL_Driver/Src/stm32f7xx_hal_hcd.c ****     __HAL_HCD_UNMASK_HALT_HC_INT(chnum);
1051:Drivers/STM32F7xx_HAL_Driver/Src/stm32f7xx_hal_hcd.c ****     USB_HC_Halt(hhcd->Instance, chnum);
1052:Drivers/STM32F7xx_HAL_Driver/Src/stm32f7xx_hal_hcd.c ****     hhcd->hc[chnum].state = HC_XACTERR;
1053:Drivers/STM32F7xx_HAL_Driver/Src/stm32f7xx_hal_hcd.c ****      __HAL_HCD_CLEAR_HC_INT(chnum, USB_OTG_HCINT_TXERR);
1054:Drivers/STM32F7xx_HAL_Driver/Src/stm32f7xx_hal_hcd.c ****   }
1055:Drivers/STM32F7xx_HAL_Driver/Src/stm32f7xx_hal_hcd.c **** 
1056:Drivers/STM32F7xx_HAL_Driver/Src/stm32f7xx_hal_hcd.c ****   else if ((USBx_HC(chnum)->HCINT) &  USB_OTG_HCINT_DTERR)
1057:Drivers/STM32F7xx_HAL_Driver/Src/stm32f7xx_hal_hcd.c ****   {
1058:Drivers/STM32F7xx_HAL_Driver/Src/stm32f7xx_hal_hcd.c ****     __HAL_HCD_UNMASK_HALT_HC_INT(chnum);
ARM GAS  /tmp/ccGDlo4w.s 			page 20


1059:Drivers/STM32F7xx_HAL_Driver/Src/stm32f7xx_hal_hcd.c ****     USB_HC_Halt(hhcd->Instance, chnum);
1060:Drivers/STM32F7xx_HAL_Driver/Src/stm32f7xx_hal_hcd.c ****     __HAL_HCD_CLEAR_HC_INT(chnum, USB_OTG_HCINT_NAK);
1061:Drivers/STM32F7xx_HAL_Driver/Src/stm32f7xx_hal_hcd.c ****     __HAL_HCD_CLEAR_HC_INT(chnum, USB_OTG_HCINT_DTERR);
1062:Drivers/STM32F7xx_HAL_Driver/Src/stm32f7xx_hal_hcd.c ****     hhcd->hc[chnum].state = HC_DATATGLERR;
1063:Drivers/STM32F7xx_HAL_Driver/Src/stm32f7xx_hal_hcd.c ****   }
1064:Drivers/STM32F7xx_HAL_Driver/Src/stm32f7xx_hal_hcd.c **** 
1065:Drivers/STM32F7xx_HAL_Driver/Src/stm32f7xx_hal_hcd.c ****   else if ((USBx_HC(chnum)->HCINT) &  USB_OTG_HCINT_CHH)
1066:Drivers/STM32F7xx_HAL_Driver/Src/stm32f7xx_hal_hcd.c ****   {
1067:Drivers/STM32F7xx_HAL_Driver/Src/stm32f7xx_hal_hcd.c ****     __HAL_HCD_MASK_HALT_HC_INT(chnum);
1068:Drivers/STM32F7xx_HAL_Driver/Src/stm32f7xx_hal_hcd.c **** 
1069:Drivers/STM32F7xx_HAL_Driver/Src/stm32f7xx_hal_hcd.c ****     if(hhcd->hc[chnum].state == HC_XFRC)
1070:Drivers/STM32F7xx_HAL_Driver/Src/stm32f7xx_hal_hcd.c ****     {
1071:Drivers/STM32F7xx_HAL_Driver/Src/stm32f7xx_hal_hcd.c ****       hhcd->hc[chnum].urb_state  = URB_DONE;
1072:Drivers/STM32F7xx_HAL_Driver/Src/stm32f7xx_hal_hcd.c ****       if (hhcd->hc[chnum].ep_type == EP_TYPE_BULK)
1073:Drivers/STM32F7xx_HAL_Driver/Src/stm32f7xx_hal_hcd.c ****       {
1074:Drivers/STM32F7xx_HAL_Driver/Src/stm32f7xx_hal_hcd.c ****         hhcd->hc[chnum].toggle_out ^= 1;
1075:Drivers/STM32F7xx_HAL_Driver/Src/stm32f7xx_hal_hcd.c ****       }
1076:Drivers/STM32F7xx_HAL_Driver/Src/stm32f7xx_hal_hcd.c ****     }
1077:Drivers/STM32F7xx_HAL_Driver/Src/stm32f7xx_hal_hcd.c ****     else if (hhcd->hc[chnum].state == HC_NAK)
1078:Drivers/STM32F7xx_HAL_Driver/Src/stm32f7xx_hal_hcd.c ****     {
1079:Drivers/STM32F7xx_HAL_Driver/Src/stm32f7xx_hal_hcd.c ****       hhcd->hc[chnum].urb_state = URB_NOTREADY;
1080:Drivers/STM32F7xx_HAL_Driver/Src/stm32f7xx_hal_hcd.c ****     }
1081:Drivers/STM32F7xx_HAL_Driver/Src/stm32f7xx_hal_hcd.c **** 
1082:Drivers/STM32F7xx_HAL_Driver/Src/stm32f7xx_hal_hcd.c ****     else if (hhcd->hc[chnum].state == HC_NYET)
1083:Drivers/STM32F7xx_HAL_Driver/Src/stm32f7xx_hal_hcd.c ****     {
1084:Drivers/STM32F7xx_HAL_Driver/Src/stm32f7xx_hal_hcd.c ****       hhcd->hc[chnum].urb_state  = URB_NOTREADY;
1085:Drivers/STM32F7xx_HAL_Driver/Src/stm32f7xx_hal_hcd.c ****     }
1086:Drivers/STM32F7xx_HAL_Driver/Src/stm32f7xx_hal_hcd.c **** 
1087:Drivers/STM32F7xx_HAL_Driver/Src/stm32f7xx_hal_hcd.c ****     else if (hhcd->hc[chnum].state == HC_STALL)
1088:Drivers/STM32F7xx_HAL_Driver/Src/stm32f7xx_hal_hcd.c ****     {
1089:Drivers/STM32F7xx_HAL_Driver/Src/stm32f7xx_hal_hcd.c ****       hhcd->hc[chnum].urb_state  = URB_STALL;
1090:Drivers/STM32F7xx_HAL_Driver/Src/stm32f7xx_hal_hcd.c ****     }
1091:Drivers/STM32F7xx_HAL_Driver/Src/stm32f7xx_hal_hcd.c **** 
1092:Drivers/STM32F7xx_HAL_Driver/Src/stm32f7xx_hal_hcd.c ****     else if((hhcd->hc[chnum].state == HC_XACTERR) ||
1093:Drivers/STM32F7xx_HAL_Driver/Src/stm32f7xx_hal_hcd.c ****             (hhcd->hc[chnum].state == HC_DATATGLERR))
1094:Drivers/STM32F7xx_HAL_Driver/Src/stm32f7xx_hal_hcd.c ****     {
1095:Drivers/STM32F7xx_HAL_Driver/Src/stm32f7xx_hal_hcd.c ****       if(hhcd->hc[chnum].ErrCnt++ > 3)
1096:Drivers/STM32F7xx_HAL_Driver/Src/stm32f7xx_hal_hcd.c ****       {
1097:Drivers/STM32F7xx_HAL_Driver/Src/stm32f7xx_hal_hcd.c ****         hhcd->hc[chnum].ErrCnt = 0;
1098:Drivers/STM32F7xx_HAL_Driver/Src/stm32f7xx_hal_hcd.c ****         hhcd->hc[chnum].urb_state = URB_ERROR;
1099:Drivers/STM32F7xx_HAL_Driver/Src/stm32f7xx_hal_hcd.c ****       }
1100:Drivers/STM32F7xx_HAL_Driver/Src/stm32f7xx_hal_hcd.c ****       else
1101:Drivers/STM32F7xx_HAL_Driver/Src/stm32f7xx_hal_hcd.c ****       {
1102:Drivers/STM32F7xx_HAL_Driver/Src/stm32f7xx_hal_hcd.c ****         hhcd->hc[chnum].urb_state = URB_NOTREADY;
1103:Drivers/STM32F7xx_HAL_Driver/Src/stm32f7xx_hal_hcd.c ****       }
1104:Drivers/STM32F7xx_HAL_Driver/Src/stm32f7xx_hal_hcd.c **** 
1105:Drivers/STM32F7xx_HAL_Driver/Src/stm32f7xx_hal_hcd.c ****       /* re-activate the channel  */
1106:Drivers/STM32F7xx_HAL_Driver/Src/stm32f7xx_hal_hcd.c ****       tmpreg = USBx_HC(chnum)->HCCHAR;
1107:Drivers/STM32F7xx_HAL_Driver/Src/stm32f7xx_hal_hcd.c ****       tmpreg &= ~USB_OTG_HCCHAR_CHDIS;
1108:Drivers/STM32F7xx_HAL_Driver/Src/stm32f7xx_hal_hcd.c ****       tmpreg |= USB_OTG_HCCHAR_CHENA;
1109:Drivers/STM32F7xx_HAL_Driver/Src/stm32f7xx_hal_hcd.c ****       USBx_HC(chnum)->HCCHAR = tmpreg;
1110:Drivers/STM32F7xx_HAL_Driver/Src/stm32f7xx_hal_hcd.c ****     }
1111:Drivers/STM32F7xx_HAL_Driver/Src/stm32f7xx_hal_hcd.c **** 
1112:Drivers/STM32F7xx_HAL_Driver/Src/stm32f7xx_hal_hcd.c ****     __HAL_HCD_CLEAR_HC_INT(chnum, USB_OTG_HCINT_CHH);
1113:Drivers/STM32F7xx_HAL_Driver/Src/stm32f7xx_hal_hcd.c ****     HAL_HCD_HC_NotifyURBChange_Callback(hhcd, chnum, hhcd->hc[chnum].urb_state);
1114:Drivers/STM32F7xx_HAL_Driver/Src/stm32f7xx_hal_hcd.c ****   }
1115:Drivers/STM32F7xx_HAL_Driver/Src/stm32f7xx_hal_hcd.c **** }
ARM GAS  /tmp/ccGDlo4w.s 			page 21


1116:Drivers/STM32F7xx_HAL_Driver/Src/stm32f7xx_hal_hcd.c **** 
1117:Drivers/STM32F7xx_HAL_Driver/Src/stm32f7xx_hal_hcd.c **** /**
1118:Drivers/STM32F7xx_HAL_Driver/Src/stm32f7xx_hal_hcd.c ****   * @brief  Handle Rx Queue Level interrupt requests.
1119:Drivers/STM32F7xx_HAL_Driver/Src/stm32f7xx_hal_hcd.c ****   * @param  hhcd HCD handle
1120:Drivers/STM32F7xx_HAL_Driver/Src/stm32f7xx_hal_hcd.c ****   * @retval none
1121:Drivers/STM32F7xx_HAL_Driver/Src/stm32f7xx_hal_hcd.c ****   */
1122:Drivers/STM32F7xx_HAL_Driver/Src/stm32f7xx_hal_hcd.c **** static void HCD_RXQLVL_IRQHandler  (HCD_HandleTypeDef *hhcd)
1123:Drivers/STM32F7xx_HAL_Driver/Src/stm32f7xx_hal_hcd.c **** {
  27              		.loc 1 1123 0
  28              		.cfi_startproc
  29              		@ args = 0, pretend = 0, frame = 0
  30              		@ frame_needed = 0, uses_anonymous_args = 0
  31              	.LVL0:
  32 0000 F8B5     		push	{r3, r4, r5, r6, r7, lr}
  33              	.LCFI0:
  34              		.cfi_def_cfa_offset 24
  35              		.cfi_offset 3, -24
  36              		.cfi_offset 4, -20
  37              		.cfi_offset 5, -16
  38              		.cfi_offset 6, -12
  39              		.cfi_offset 7, -8
  40              		.cfi_offset 14, -4
1124:Drivers/STM32F7xx_HAL_Driver/Src/stm32f7xx_hal_hcd.c ****   USB_OTG_GlobalTypeDef *USBx = hhcd->Instance;
  41              		.loc 1 1124 0
  42 0002 0668     		ldr	r6, [r0]
  43              	.LVL1:
1125:Drivers/STM32F7xx_HAL_Driver/Src/stm32f7xx_hal_hcd.c ****   uint8_t                       channelnum =0;
1126:Drivers/STM32F7xx_HAL_Driver/Src/stm32f7xx_hal_hcd.c ****   uint32_t                      pktsts;
1127:Drivers/STM32F7xx_HAL_Driver/Src/stm32f7xx_hal_hcd.c ****   uint32_t                      pktcnt;
1128:Drivers/STM32F7xx_HAL_Driver/Src/stm32f7xx_hal_hcd.c ****   uint32_t                      temp = 0;
1129:Drivers/STM32F7xx_HAL_Driver/Src/stm32f7xx_hal_hcd.c ****   uint32_t tmpreg = 0;
1130:Drivers/STM32F7xx_HAL_Driver/Src/stm32f7xx_hal_hcd.c **** 
1131:Drivers/STM32F7xx_HAL_Driver/Src/stm32f7xx_hal_hcd.c ****   temp = hhcd->Instance->GRXSTSP ;
  44              		.loc 1 1131 0
  45 0004 346A     		ldr	r4, [r6, #32]
  46              	.LVL2:
1132:Drivers/STM32F7xx_HAL_Driver/Src/stm32f7xx_hal_hcd.c ****   channelnum = temp &  USB_OTG_GRXSTSP_EPNUM;
  47              		.loc 1 1132 0
  48 0006 04F00F07 		and	r7, r4, #15
  49              	.LVL3:
1133:Drivers/STM32F7xx_HAL_Driver/Src/stm32f7xx_hal_hcd.c ****   pktsts = (temp &  USB_OTG_GRXSTSP_PKTSTS) >> 17;
  50              		.loc 1 1133 0
  51 000a C4F34343 		ubfx	r3, r4, #17, #4
  52              	.LVL4:
1134:Drivers/STM32F7xx_HAL_Driver/Src/stm32f7xx_hal_hcd.c ****   pktcnt = (temp &  USB_OTG_GRXSTSP_BCNT) >> 4;
  53              		.loc 1 1134 0
  54 000e C4F30A14 		ubfx	r4, r4, #4, #11
  55              	.LVL5:
1135:Drivers/STM32F7xx_HAL_Driver/Src/stm32f7xx_hal_hcd.c **** 
1136:Drivers/STM32F7xx_HAL_Driver/Src/stm32f7xx_hal_hcd.c ****   switch (pktsts)
  56              		.loc 1 1136 0
  57 0012 022B     		cmp	r3, #2
  58 0014 2ED1     		bne	.L1
1137:Drivers/STM32F7xx_HAL_Driver/Src/stm32f7xx_hal_hcd.c ****   {
1138:Drivers/STM32F7xx_HAL_Driver/Src/stm32f7xx_hal_hcd.c ****   case GRXSTS_PKTSTS_IN:
1139:Drivers/STM32F7xx_HAL_Driver/Src/stm32f7xx_hal_hcd.c ****     /* Read the data into the host buffer. */
1140:Drivers/STM32F7xx_HAL_Driver/Src/stm32f7xx_hal_hcd.c ****     if ((pktcnt > 0) && (hhcd->hc[channelnum].xfer_buff != (void  *)0))
ARM GAS  /tmp/ccGDlo4w.s 			page 22


  59              		.loc 1 1140 0
  60 0016 6CB3     		cbz	r4, .L1
  61              		.loc 1 1140 0 is_stmt 0 discriminator 1
  62 0018 07EB8702 		add	r2, r7, r7, lsl #2
  63 001c D300     		lsls	r3, r2, #3
  64              	.LVL6:
  65 001e 0344     		add	r3, r3, r0
  66 0020 596C     		ldr	r1, [r3, #68]
  67 0022 39B3     		cbz	r1, .L1
  68 0024 0546     		mov	r5, r0
1141:Drivers/STM32F7xx_HAL_Driver/Src/stm32f7xx_hal_hcd.c ****     {
1142:Drivers/STM32F7xx_HAL_Driver/Src/stm32f7xx_hal_hcd.c **** 
1143:Drivers/STM32F7xx_HAL_Driver/Src/stm32f7xx_hal_hcd.c ****       USB_ReadPacket(hhcd->Instance, hhcd->hc[channelnum].xfer_buff, pktcnt);
  69              		.loc 1 1143 0 is_stmt 1
  70 0026 2246     		mov	r2, r4
  71 0028 3046     		mov	r0, r6
  72              	.LVL7:
  73 002a FFF7FEFF 		bl	USB_ReadPacket
  74              	.LVL8:
1144:Drivers/STM32F7xx_HAL_Driver/Src/stm32f7xx_hal_hcd.c **** 
1145:Drivers/STM32F7xx_HAL_Driver/Src/stm32f7xx_hal_hcd.c ****       /*manage multiple Xfer */
1146:Drivers/STM32F7xx_HAL_Driver/Src/stm32f7xx_hal_hcd.c ****       hhcd->hc[channelnum].xfer_buff += pktcnt;
  75              		.loc 1 1146 0
  76 002e BA00     		lsls	r2, r7, #2
  77 0030 3A44     		add	r2, r2, r7
  78 0032 D300     		lsls	r3, r2, #3
  79 0034 2B44     		add	r3, r3, r5
  80 0036 5A6C     		ldr	r2, [r3, #68]
  81 0038 2244     		add	r2, r2, r4
  82 003a 5A64     		str	r2, [r3, #68]
1147:Drivers/STM32F7xx_HAL_Driver/Src/stm32f7xx_hal_hcd.c ****       hhcd->hc[channelnum].xfer_count  += pktcnt;
  83              		.loc 1 1147 0
  84 003c DA6C     		ldr	r2, [r3, #76]
  85 003e 2244     		add	r2, r2, r4
  86 0040 DA64     		str	r2, [r3, #76]
1148:Drivers/STM32F7xx_HAL_Driver/Src/stm32f7xx_hal_hcd.c **** 
1149:Drivers/STM32F7xx_HAL_Driver/Src/stm32f7xx_hal_hcd.c ****       if((USBx_HC(channelnum)->HCTSIZ & USB_OTG_HCTSIZ_PKTCNT) > 0)
  87              		.loc 1 1149 0
  88 0042 06EB4713 		add	r3, r6, r7, lsl #5
  89 0046 D3F81015 		ldr	r1, [r3, #1296]
  90 004a 0B4A     		ldr	r2, .L5
  91 004c 0A40     		ands	r2, r2, r1
  92 004e 8AB1     		cbz	r2, .L1
1150:Drivers/STM32F7xx_HAL_Driver/Src/stm32f7xx_hal_hcd.c ****       {
1151:Drivers/STM32F7xx_HAL_Driver/Src/stm32f7xx_hal_hcd.c ****         /* re-activate the channel when more packets are expected */
1152:Drivers/STM32F7xx_HAL_Driver/Src/stm32f7xx_hal_hcd.c ****         tmpreg = USBx_HC(channelnum)->HCCHAR;
  93              		.loc 1 1152 0
  94 0050 D3F80025 		ldr	r2, [r3, #1280]
  95              	.LVL9:
1153:Drivers/STM32F7xx_HAL_Driver/Src/stm32f7xx_hal_hcd.c ****         tmpreg &= ~USB_OTG_HCCHAR_CHDIS;
  96              		.loc 1 1153 0
  97 0054 22F08042 		bic	r2, r2, #1073741824
  98              	.LVL10:
1154:Drivers/STM32F7xx_HAL_Driver/Src/stm32f7xx_hal_hcd.c ****         tmpreg |= USB_OTG_HCCHAR_CHENA;
  99              		.loc 1 1154 0
 100 0058 42F00042 		orr	r2, r2, #-2147483648
 101              	.LVL11:
ARM GAS  /tmp/ccGDlo4w.s 			page 23


1155:Drivers/STM32F7xx_HAL_Driver/Src/stm32f7xx_hal_hcd.c ****         USBx_HC(channelnum)->HCCHAR = tmpreg;
 102              		.loc 1 1155 0
 103 005c C3F80025 		str	r2, [r3, #1280]
1156:Drivers/STM32F7xx_HAL_Driver/Src/stm32f7xx_hal_hcd.c ****         hhcd->hc[channelnum].toggle_in ^= 1;
 104              		.loc 1 1156 0
 105 0060 BB00     		lsls	r3, r7, #2
 106 0062 D919     		adds	r1, r3, r7
 107 0064 CA00     		lsls	r2, r1, #3
 108              	.LVL12:
 109 0066 2A44     		add	r2, r2, r5
 110 0068 92F85030 		ldrb	r3, [r2, #80]	@ zero_extendqisi2
 111 006c 83F00103 		eor	r3, r3, #1
 112 0070 82F85030 		strb	r3, [r2, #80]
 113              	.LVL13:
 114              	.L1:
1157:Drivers/STM32F7xx_HAL_Driver/Src/stm32f7xx_hal_hcd.c ****       }
1158:Drivers/STM32F7xx_HAL_Driver/Src/stm32f7xx_hal_hcd.c ****     }
1159:Drivers/STM32F7xx_HAL_Driver/Src/stm32f7xx_hal_hcd.c ****     break;
1160:Drivers/STM32F7xx_HAL_Driver/Src/stm32f7xx_hal_hcd.c **** 
1161:Drivers/STM32F7xx_HAL_Driver/Src/stm32f7xx_hal_hcd.c ****   case GRXSTS_PKTSTS_DATA_TOGGLE_ERR:
1162:Drivers/STM32F7xx_HAL_Driver/Src/stm32f7xx_hal_hcd.c ****     break;
1163:Drivers/STM32F7xx_HAL_Driver/Src/stm32f7xx_hal_hcd.c ****   case GRXSTS_PKTSTS_IN_XFER_COMP:
1164:Drivers/STM32F7xx_HAL_Driver/Src/stm32f7xx_hal_hcd.c ****   case GRXSTS_PKTSTS_CH_HALTED:
1165:Drivers/STM32F7xx_HAL_Driver/Src/stm32f7xx_hal_hcd.c ****   default:
1166:Drivers/STM32F7xx_HAL_Driver/Src/stm32f7xx_hal_hcd.c ****     break;
1167:Drivers/STM32F7xx_HAL_Driver/Src/stm32f7xx_hal_hcd.c ****   }
1168:Drivers/STM32F7xx_HAL_Driver/Src/stm32f7xx_hal_hcd.c **** }
 115              		.loc 1 1168 0
 116 0074 F8BD     		pop	{r3, r4, r5, r6, r7, pc}
 117              	.LVL14:
 118              	.L6:
 119 0076 00BF     		.align	2
 120              	.L5:
 121 0078 0000F81F 		.word	536346624
 122              		.cfi_endproc
 123              	.LFE163:
 125              		.section	.text.HAL_HCD_HC_Init,"ax",%progbits
 126              		.align	1
 127              		.global	HAL_HCD_HC_Init
 128              		.syntax unified
 129              		.thumb
 130              		.thumb_func
 131              		.fpu fpv5-sp-d16
 133              	HAL_HCD_HC_Init:
 134              	.LFB139:
 189:Drivers/STM32F7xx_HAL_Driver/Src/stm32f7xx_hal_hcd.c ****   HAL_StatusTypeDef status = HAL_OK;
 135              		.loc 1 189 0
 136              		.cfi_startproc
 137              		@ args = 12, pretend = 0, frame = 0
 138              		@ frame_needed = 0, uses_anonymous_args = 0
 139              	.LVL15:
 140 0000 2DE9F041 		push	{r4, r5, r6, r7, r8, lr}
 141              	.LCFI1:
 142              		.cfi_def_cfa_offset 24
 143              		.cfi_offset 4, -24
 144              		.cfi_offset 5, -20
 145              		.cfi_offset 6, -16
ARM GAS  /tmp/ccGDlo4w.s 			page 24


 146              		.cfi_offset 7, -12
 147              		.cfi_offset 8, -8
 148              		.cfi_offset 14, -4
 149 0004 84B0     		sub	sp, sp, #16
 150              	.LCFI2:
 151              		.cfi_def_cfa_offset 40
 152 0006 9DF82870 		ldrb	r7, [sp, #40]	@ zero_extendqisi2
 153 000a 9DF82CC0 		ldrb	ip, [sp, #44]	@ zero_extendqisi2
 154 000e BDF830E0 		ldrh	lr, [sp, #48]
 155              	.LVL16:
 192:Drivers/STM32F7xx_HAL_Driver/Src/stm32f7xx_hal_hcd.c ****   hhcd->hc[ch_num].do_ping = 0;
 156              		.loc 1 192 0
 157 0012 90F89042 		ldrb	r4, [r0, #656]	@ zero_extendqisi2
 158 0016 012C     		cmp	r4, #1
 159 0018 2CD0     		beq	.L9
 160 001a 0546     		mov	r5, r0
 192:Drivers/STM32F7xx_HAL_Driver/Src/stm32f7xx_hal_hcd.c ****   hhcd->hc[ch_num].do_ping = 0;
 161              		.loc 1 192 0 is_stmt 0 discriminator 2
 162 001c 0120     		movs	r0, #1
 163              	.LVL17:
 164 001e 85F89002 		strb	r0, [r5, #656]
 193:Drivers/STM32F7xx_HAL_Driver/Src/stm32f7xx_hal_hcd.c ****   hhcd->hc[ch_num].dev_addr = dev_address;
 165              		.loc 1 193 0 is_stmt 1 discriminator 2
 166 0022 8800     		lsls	r0, r1, #2
 167 0024 4618     		adds	r6, r0, r1
 168 0026 F400     		lsls	r4, r6, #3
 169 0028 2C44     		add	r4, r4, r5
 170 002a 0026     		movs	r6, #0
 171 002c 84F83D60 		strb	r6, [r4, #61]
 194:Drivers/STM32F7xx_HAL_Driver/Src/stm32f7xx_hal_hcd.c ****   hhcd->hc[ch_num].max_packet = mps;
 172              		.loc 1 194 0 discriminator 2
 173 0030 84F83830 		strb	r3, [r4, #56]
 195:Drivers/STM32F7xx_HAL_Driver/Src/stm32f7xx_hal_hcd.c ****   hhcd->hc[ch_num].ch_num = ch_num;
 174              		.loc 1 195 0 discriminator 2
 175 0034 A4F840E0 		strh	lr, [r4, #64]	@ movhi
 196:Drivers/STM32F7xx_HAL_Driver/Src/stm32f7xx_hal_hcd.c ****   hhcd->hc[ch_num].ep_type = ep_type;
 176              		.loc 1 196 0 discriminator 2
 177 0038 84F83910 		strb	r1, [r4, #57]
 197:Drivers/STM32F7xx_HAL_Driver/Src/stm32f7xx_hal_hcd.c ****   hhcd->hc[ch_num].ep_num = epnum & 0x7F;
 178              		.loc 1 197 0 discriminator 2
 179 003c 84F83FC0 		strb	ip, [r4, #63]
 198:Drivers/STM32F7xx_HAL_Driver/Src/stm32f7xx_hal_hcd.c ****   hhcd->hc[ch_num].ep_is_in = ((epnum & 0x80) == 0x80);
 180              		.loc 1 198 0 discriminator 2
 181 0040 02F07F08 		and	r8, r2, #127
 182 0044 84F83A80 		strb	r8, [r4, #58]
 199:Drivers/STM32F7xx_HAL_Driver/Src/stm32f7xx_hal_hcd.c ****   hhcd->hc[ch_num].speed = speed;
 183              		.loc 1 199 0 discriminator 2
 184 0048 4FEAD218 		lsr	r8, r2, #7
 185 004c 84F83B80 		strb	r8, [r4, #59]
 200:Drivers/STM32F7xx_HAL_Driver/Src/stm32f7xx_hal_hcd.c **** 
 186              		.loc 1 200 0 discriminator 2
 187 0050 0844     		add	r0, r0, r1
 188 0052 C400     		lsls	r4, r0, #3
 189 0054 2C44     		add	r4, r4, r5
 190 0056 84F83C70 		strb	r7, [r4, #60]
 202:Drivers/STM32F7xx_HAL_Driver/Src/stm32f7xx_hal_hcd.c ****                         ch_num,
 191              		.loc 1 202 0 discriminator 2
ARM GAS  /tmp/ccGDlo4w.s 			page 25


 192 005a CDF808E0 		str	lr, [sp, #8]
 193 005e CDF804C0 		str	ip, [sp, #4]
 194 0062 0097     		str	r7, [sp]
 195 0064 2868     		ldr	r0, [r5]
 196 0066 FFF7FEFF 		bl	USB_HC_Init
 197              	.LVL18:
 209:Drivers/STM32F7xx_HAL_Driver/Src/stm32f7xx_hal_hcd.c **** 
 198              		.loc 1 209 0 discriminator 2
 199 006a 85F89062 		strb	r6, [r5, #656]
 200              	.LVL19:
 201              	.L8:
 212:Drivers/STM32F7xx_HAL_Driver/Src/stm32f7xx_hal_hcd.c **** 
 202              		.loc 1 212 0
 203 006e 04B0     		add	sp, sp, #16
 204              	.LCFI3:
 205              		.cfi_remember_state
 206              		.cfi_def_cfa_offset 24
 207              		@ sp needed
 208 0070 BDE8F081 		pop	{r4, r5, r6, r7, r8, pc}
 209              	.LVL20:
 210              	.L9:
 211              	.LCFI4:
 212              		.cfi_restore_state
 192:Drivers/STM32F7xx_HAL_Driver/Src/stm32f7xx_hal_hcd.c ****   hhcd->hc[ch_num].do_ping = 0;
 213              		.loc 1 192 0
 214 0074 0220     		movs	r0, #2
 215              	.LVL21:
 216 0076 FAE7     		b	.L8
 217              		.cfi_endproc
 218              	.LFE139:
 220              		.section	.text.HAL_HCD_HC_Halt,"ax",%progbits
 221              		.align	1
 222              		.global	HAL_HCD_HC_Halt
 223              		.syntax unified
 224              		.thumb
 225              		.thumb_func
 226              		.fpu fpv5-sp-d16
 228              	HAL_HCD_HC_Halt:
 229              	.LFB140:
 222:Drivers/STM32F7xx_HAL_Driver/Src/stm32f7xx_hal_hcd.c ****   HAL_StatusTypeDef status = HAL_OK;
 230              		.loc 1 222 0
 231              		.cfi_startproc
 232              		@ args = 0, pretend = 0, frame = 0
 233              		@ frame_needed = 0, uses_anonymous_args = 0
 234              	.LVL22:
 225:Drivers/STM32F7xx_HAL_Driver/Src/stm32f7xx_hal_hcd.c ****   USB_HC_Halt(hhcd->Instance, ch_num);
 235              		.loc 1 225 0
 236 0000 90F89032 		ldrb	r3, [r0, #656]	@ zero_extendqisi2
 237 0004 012B     		cmp	r3, #1
 238 0006 0BD0     		beq	.L13
 222:Drivers/STM32F7xx_HAL_Driver/Src/stm32f7xx_hal_hcd.c ****   HAL_StatusTypeDef status = HAL_OK;
 239              		.loc 1 222 0 discriminator 2
 240 0008 10B5     		push	{r4, lr}
 241              	.LCFI5:
 242              		.cfi_def_cfa_offset 8
 243              		.cfi_offset 4, -8
 244              		.cfi_offset 14, -4
ARM GAS  /tmp/ccGDlo4w.s 			page 26


 245 000a 0446     		mov	r4, r0
 225:Drivers/STM32F7xx_HAL_Driver/Src/stm32f7xx_hal_hcd.c ****   USB_HC_Halt(hhcd->Instance, ch_num);
 246              		.loc 1 225 0 discriminator 2
 247 000c 0123     		movs	r3, #1
 248 000e 80F89032 		strb	r3, [r0, #656]
 226:Drivers/STM32F7xx_HAL_Driver/Src/stm32f7xx_hal_hcd.c ****   __HAL_UNLOCK(hhcd);
 249              		.loc 1 226 0 discriminator 2
 250 0012 0068     		ldr	r0, [r0]
 251              	.LVL23:
 252 0014 FFF7FEFF 		bl	USB_HC_Halt
 253              	.LVL24:
 227:Drivers/STM32F7xx_HAL_Driver/Src/stm32f7xx_hal_hcd.c **** 
 254              		.loc 1 227 0 discriminator 2
 255 0018 0020     		movs	r0, #0
 256 001a 84F89002 		strb	r0, [r4, #656]
 230:Drivers/STM32F7xx_HAL_Driver/Src/stm32f7xx_hal_hcd.c **** 
 257              		.loc 1 230 0 discriminator 2
 258 001e 10BD     		pop	{r4, pc}
 259              	.LVL25:
 260              	.L13:
 261              	.LCFI6:
 262              		.cfi_def_cfa_offset 0
 263              		.cfi_restore 4
 264              		.cfi_restore 14
 225:Drivers/STM32F7xx_HAL_Driver/Src/stm32f7xx_hal_hcd.c ****   USB_HC_Halt(hhcd->Instance, ch_num);
 265              		.loc 1 225 0
 266 0020 0220     		movs	r0, #2
 267              	.LVL26:
 230:Drivers/STM32F7xx_HAL_Driver/Src/stm32f7xx_hal_hcd.c **** 
 268              		.loc 1 230 0
 269 0022 7047     		bx	lr
 270              		.cfi_endproc
 271              	.LFE140:
 273              		.section	.text.HAL_HCD_MspInit,"ax",%progbits
 274              		.align	1
 275              		.weak	HAL_HCD_MspInit
 276              		.syntax unified
 277              		.thumb
 278              		.thumb_func
 279              		.fpu fpv5-sp-d16
 281              	HAL_HCD_MspInit:
 282              	.LFB142:
 263:Drivers/STM32F7xx_HAL_Driver/Src/stm32f7xx_hal_hcd.c ****   /* Prevent unused argument(s) compilation warning */
 283              		.loc 1 263 0
 284              		.cfi_startproc
 285              		@ args = 0, pretend = 0, frame = 0
 286              		@ frame_needed = 0, uses_anonymous_args = 0
 287              		@ link register save eliminated.
 288              	.LVL27:
 270:Drivers/STM32F7xx_HAL_Driver/Src/stm32f7xx_hal_hcd.c **** 
 289              		.loc 1 270 0
 290 0000 7047     		bx	lr
 291              		.cfi_endproc
 292              	.LFE142:
 294              		.section	.text.HAL_HCD_Init,"ax",%progbits
 295              		.align	1
 296              		.global	HAL_HCD_Init
ARM GAS  /tmp/ccGDlo4w.s 			page 27


 297              		.syntax unified
 298              		.thumb
 299              		.thumb_func
 300              		.fpu fpv5-sp-d16
 302              	HAL_HCD_Init:
 303              	.LFB138:
 126:Drivers/STM32F7xx_HAL_Driver/Src/stm32f7xx_hal_hcd.c ****   /* Check the HCD handle allocation */
 304              		.loc 1 126 0
 305              		.cfi_startproc
 306              		@ args = 0, pretend = 0, frame = 0
 307              		@ frame_needed = 0, uses_anonymous_args = 0
 308              	.LVL28:
 128:Drivers/STM32F7xx_HAL_Driver/Src/stm32f7xx_hal_hcd.c ****   {
 309              		.loc 1 128 0
 310 0000 0028     		cmp	r0, #0
 311 0002 37D0     		beq	.L21
 126:Drivers/STM32F7xx_HAL_Driver/Src/stm32f7xx_hal_hcd.c ****   /* Check the HCD handle allocation */
 312              		.loc 1 126 0
 313 0004 F0B5     		push	{r4, r5, r6, r7, lr}
 314              	.LCFI7:
 315              		.cfi_def_cfa_offset 20
 316              		.cfi_offset 4, -20
 317              		.cfi_offset 5, -16
 318              		.cfi_offset 6, -12
 319              		.cfi_offset 7, -8
 320              		.cfi_offset 14, -4
 321 0006 8BB0     		sub	sp, sp, #44
 322              	.LCFI8:
 323              		.cfi_def_cfa_offset 64
 324 0008 0646     		mov	r6, r0
 136:Drivers/STM32F7xx_HAL_Driver/Src/stm32f7xx_hal_hcd.c **** 
 325              		.loc 1 136 0
 326 000a 0323     		movs	r3, #3
 327 000c 80F89132 		strb	r3, [r0, #657]
 139:Drivers/STM32F7xx_HAL_Driver/Src/stm32f7xx_hal_hcd.c **** 
 328              		.loc 1 139 0
 329 0010 FFF7FEFF 		bl	HAL_HCD_MspInit
 330              	.LVL29:
 142:Drivers/STM32F7xx_HAL_Driver/Src/stm32f7xx_hal_hcd.c **** 
 331              		.loc 1 142 0
 332 0014 3068     		ldr	r0, [r6]
 333 0016 FFF7FEFF 		bl	USB_DisableGlobalInt
 334              	.LVL30:
 145:Drivers/STM32F7xx_HAL_Driver/Src/stm32f7xx_hal_hcd.c **** 
 335              		.loc 1 145 0
 336 001a 3446     		mov	r4, r6
 337 001c 54F810CB 		ldr	ip, [r4], #16
 338 0020 6D46     		mov	r5, sp
 339 0022 0FCC     		ldmia	r4!, {r0, r1, r2, r3}
 340 0024 0FC5     		stmia	r5!, {r0, r1, r2, r3}
 341 0026 0FCC     		ldmia	r4!, {r0, r1, r2, r3}
 342 0028 0FC5     		stmia	r5!, {r0, r1, r2, r3}
 343 002a 94E80300 		ldm	r4, {r0, r1}
 344 002e 85E80300 		stm	r5, {r0, r1}
 345 0032 371D     		adds	r7, r6, #4
 346 0034 97E80E00 		ldm	r7, {r1, r2, r3}
 347 0038 6046     		mov	r0, ip
ARM GAS  /tmp/ccGDlo4w.s 			page 28


 348 003a FFF7FEFF 		bl	USB_CoreInit
 349              	.LVL31:
 148:Drivers/STM32F7xx_HAL_Driver/Src/stm32f7xx_hal_hcd.c **** 
 350              		.loc 1 148 0
 351 003e 0121     		movs	r1, #1
 352 0040 3068     		ldr	r0, [r6]
 353 0042 FFF7FEFF 		bl	USB_SetCurrentMode
 354              	.LVL32:
 151:Drivers/STM32F7xx_HAL_Driver/Src/stm32f7xx_hal_hcd.c **** 
 355              		.loc 1 151 0
 356 0046 3446     		mov	r4, r6
 357 0048 54F810CB 		ldr	ip, [r4], #16
 358 004c 6D46     		mov	r5, sp
 359 004e 0FCC     		ldmia	r4!, {r0, r1, r2, r3}
 360 0050 0FC5     		stmia	r5!, {r0, r1, r2, r3}
 361 0052 0FCC     		ldmia	r4!, {r0, r1, r2, r3}
 362 0054 0FC5     		stmia	r5!, {r0, r1, r2, r3}
 363 0056 94E80300 		ldm	r4, {r0, r1}
 364 005a 85E80300 		stm	r5, {r0, r1}
 365 005e 97E80E00 		ldm	r7, {r1, r2, r3}
 366 0062 6046     		mov	r0, ip
 367 0064 FFF7FEFF 		bl	USB_HostInit
 368              	.LVL33:
 153:Drivers/STM32F7xx_HAL_Driver/Src/stm32f7xx_hal_hcd.c **** 
 369              		.loc 1 153 0
 370 0068 0123     		movs	r3, #1
 371 006a 86F89132 		strb	r3, [r6, #657]
 155:Drivers/STM32F7xx_HAL_Driver/Src/stm32f7xx_hal_hcd.c **** }
 372              		.loc 1 155 0
 373 006e 0020     		movs	r0, #0
 156:Drivers/STM32F7xx_HAL_Driver/Src/stm32f7xx_hal_hcd.c **** 
 374              		.loc 1 156 0
 375 0070 0BB0     		add	sp, sp, #44
 376              	.LCFI9:
 377              		.cfi_def_cfa_offset 20
 378              		@ sp needed
 379 0072 F0BD     		pop	{r4, r5, r6, r7, pc}
 380              	.LVL34:
 381              	.L21:
 382              	.LCFI10:
 383              		.cfi_def_cfa_offset 0
 384              		.cfi_restore 4
 385              		.cfi_restore 5
 386              		.cfi_restore 6
 387              		.cfi_restore 7
 388              		.cfi_restore 14
 130:Drivers/STM32F7xx_HAL_Driver/Src/stm32f7xx_hal_hcd.c ****   }
 389              		.loc 1 130 0
 390 0074 0120     		movs	r0, #1
 391              	.LVL35:
 156:Drivers/STM32F7xx_HAL_Driver/Src/stm32f7xx_hal_hcd.c **** 
 392              		.loc 1 156 0
 393 0076 7047     		bx	lr
 394              		.cfi_endproc
 395              	.LFE138:
 397              		.section	.text.HAL_HCD_MspDeInit,"ax",%progbits
 398              		.align	1
ARM GAS  /tmp/ccGDlo4w.s 			page 29


 399              		.weak	HAL_HCD_MspDeInit
 400              		.syntax unified
 401              		.thumb
 402              		.thumb_func
 403              		.fpu fpv5-sp-d16
 405              	HAL_HCD_MspDeInit:
 406              	.LFB143:
 278:Drivers/STM32F7xx_HAL_Driver/Src/stm32f7xx_hal_hcd.c ****   /* Prevent unused argument(s) compilation warning */
 407              		.loc 1 278 0
 408              		.cfi_startproc
 409              		@ args = 0, pretend = 0, frame = 0
 410              		@ frame_needed = 0, uses_anonymous_args = 0
 411              		@ link register save eliminated.
 412              	.LVL36:
 285:Drivers/STM32F7xx_HAL_Driver/Src/stm32f7xx_hal_hcd.c **** 
 413              		.loc 1 285 0
 414 0000 7047     		bx	lr
 415              		.cfi_endproc
 416              	.LFE143:
 418              		.section	.text.HAL_HCD_DeInit,"ax",%progbits
 419              		.align	1
 420              		.global	HAL_HCD_DeInit
 421              		.syntax unified
 422              		.thumb
 423              		.thumb_func
 424              		.fpu fpv5-sp-d16
 426              	HAL_HCD_DeInit:
 427              	.LFB141:
 238:Drivers/STM32F7xx_HAL_Driver/Src/stm32f7xx_hal_hcd.c ****   /* Check the HCD handle allocation */
 428              		.loc 1 238 0
 429              		.cfi_startproc
 430              		@ args = 0, pretend = 0, frame = 0
 431              		@ frame_needed = 0, uses_anonymous_args = 0
 432              	.LVL37:
 240:Drivers/STM32F7xx_HAL_Driver/Src/stm32f7xx_hal_hcd.c ****   {
 433              		.loc 1 240 0
 434 0000 68B1     		cbz	r0, .L29
 238:Drivers/STM32F7xx_HAL_Driver/Src/stm32f7xx_hal_hcd.c ****   /* Check the HCD handle allocation */
 435              		.loc 1 238 0
 436 0002 10B5     		push	{r4, lr}
 437              	.LCFI11:
 438              		.cfi_def_cfa_offset 8
 439              		.cfi_offset 4, -8
 440              		.cfi_offset 14, -4
 441 0004 0446     		mov	r4, r0
 245:Drivers/STM32F7xx_HAL_Driver/Src/stm32f7xx_hal_hcd.c **** 
 442              		.loc 1 245 0
 443 0006 0323     		movs	r3, #3
 444 0008 80F89132 		strb	r3, [r0, #657]
 248:Drivers/STM32F7xx_HAL_Driver/Src/stm32f7xx_hal_hcd.c **** 
 445              		.loc 1 248 0
 446 000c FFF7FEFF 		bl	HAL_HCD_MspDeInit
 447              	.LVL38:
 250:Drivers/STM32F7xx_HAL_Driver/Src/stm32f7xx_hal_hcd.c **** 
 448              		.loc 1 250 0
 449 0010 2068     		ldr	r0, [r4]
 450 0012 FFF7FEFF 		bl	USB_DisableGlobalInt
ARM GAS  /tmp/ccGDlo4w.s 			page 30


 451              	.LVL39:
 252:Drivers/STM32F7xx_HAL_Driver/Src/stm32f7xx_hal_hcd.c **** 
 452              		.loc 1 252 0
 453 0016 0020     		movs	r0, #0
 454 0018 84F89102 		strb	r0, [r4, #657]
 255:Drivers/STM32F7xx_HAL_Driver/Src/stm32f7xx_hal_hcd.c **** 
 455              		.loc 1 255 0
 456 001c 10BD     		pop	{r4, pc}
 457              	.LVL40:
 458              	.L29:
 459              	.LCFI12:
 460              		.cfi_def_cfa_offset 0
 461              		.cfi_restore 4
 462              		.cfi_restore 14
 242:Drivers/STM32F7xx_HAL_Driver/Src/stm32f7xx_hal_hcd.c ****   }
 463              		.loc 1 242 0
 464 001e 0120     		movs	r0, #1
 465              	.LVL41:
 255:Drivers/STM32F7xx_HAL_Driver/Src/stm32f7xx_hal_hcd.c **** 
 466              		.loc 1 255 0
 467 0020 7047     		bx	lr
 468              		.cfi_endproc
 469              	.LFE141:
 471              		.section	.text.HAL_HCD_HC_SubmitRequest,"ax",%progbits
 472              		.align	1
 473              		.global	HAL_HCD_HC_SubmitRequest
 474              		.syntax unified
 475              		.thumb
 476              		.thumb_func
 477              		.fpu fpv5-sp-d16
 479              	HAL_HCD_HC_SubmitRequest:
 480              	.LFB144:
 337:Drivers/STM32F7xx_HAL_Driver/Src/stm32f7xx_hal_hcd.c ****   hhcd->hc[ch_num].ep_is_in = direction;
 481              		.loc 1 337 0
 482              		.cfi_startproc
 483              		@ args = 16, pretend = 0, frame = 0
 484              		@ frame_needed = 0, uses_anonymous_args = 0
 485              	.LVL42:
 486 0000 F8B5     		push	{r3, r4, r5, r6, r7, lr}
 487              	.LCFI13:
 488              		.cfi_def_cfa_offset 24
 489              		.cfi_offset 3, -24
 490              		.cfi_offset 4, -20
 491              		.cfi_offset 5, -16
 492              		.cfi_offset 6, -12
 493              		.cfi_offset 7, -8
 494              		.cfi_offset 14, -4
 495 0002 9DF81870 		ldrb	r7, [sp, #24]	@ zero_extendqisi2
 496 0006 BDF82060 		ldrh	r6, [sp, #32]
 338:Drivers/STM32F7xx_HAL_Driver/Src/stm32f7xx_hal_hcd.c ****   hhcd->hc[ch_num].ep_type  = ep_type;
 497              		.loc 1 338 0
 498 000a 8D00     		lsls	r5, r1, #2
 499 000c 0D44     		add	r5, r5, r1
 500 000e EC00     		lsls	r4, r5, #3
 501 0010 0444     		add	r4, r4, r0
 502 0012 84F83B20 		strb	r2, [r4, #59]
 339:Drivers/STM32F7xx_HAL_Driver/Src/stm32f7xx_hal_hcd.c **** 
ARM GAS  /tmp/ccGDlo4w.s 			page 31


 503              		.loc 1 339 0
 504 0016 84F83F30 		strb	r3, [r4, #63]
 341:Drivers/STM32F7xx_HAL_Driver/Src/stm32f7xx_hal_hcd.c ****   {
 505              		.loc 1 341 0
 506 001a 6FB9     		cbnz	r7, .L35
 343:Drivers/STM32F7xx_HAL_Driver/Src/stm32f7xx_hal_hcd.c ****   }
 507              		.loc 1 343 0
 508 001c 01EB8105 		add	r5, r1, r1, lsl #2
 509 0020 EC00     		lsls	r4, r5, #3
 510 0022 0444     		add	r4, r4, r0
 511 0024 0325     		movs	r5, #3
 512 0026 84F84250 		strb	r5, [r4, #66]
 513              	.L36:
 351:Drivers/STM32F7xx_HAL_Driver/Src/stm32f7xx_hal_hcd.c ****   {
 514              		.loc 1 351 0
 515 002a 032B     		cmp	r3, #3
 516 002c 00F29580 		bhi	.L37
 517 0030 DFE803F0 		tbb	[pc, r3]
 518              	.L39:
 519 0034 0A       		.byte	(.L38-.L39)/2
 520 0035 8C       		.byte	(.L40-.L39)/2
 521 0036 2E       		.byte	(.L41-.L39)/2
 522 0037 5D       		.byte	(.L42-.L39)/2
 523              		.p2align 1
 524              	.L35:
 347:Drivers/STM32F7xx_HAL_Driver/Src/stm32f7xx_hal_hcd.c ****   }
 525              		.loc 1 347 0
 526 0038 01EB8105 		add	r5, r1, r1, lsl #2
 527 003c EC00     		lsls	r4, r5, #3
 528 003e 0444     		add	r4, r4, r0
 529 0040 0225     		movs	r5, #2
 530 0042 84F84250 		strb	r5, [r4, #66]
 531 0046 F0E7     		b	.L36
 532              	.L38:
 354:Drivers/STM32F7xx_HAL_Driver/Src/stm32f7xx_hal_hcd.c ****     {
 533              		.loc 1 354 0
 534 0048 012F     		cmp	r7, #1
 535 004a 08BF     		it	eq
 536 004c 002A     		cmpeq	r2, #0
 537 004e 40F08480 		bne	.L37
 356:Drivers/STM32F7xx_HAL_Driver/Src/stm32f7xx_hal_hcd.c ****       { /* For Status OUT stage, Length==0, Status Out PID = 1 */
 538              		.loc 1 356 0
 539 0052 36B9     		cbnz	r6, .L43
 358:Drivers/STM32F7xx_HAL_Driver/Src/stm32f7xx_hal_hcd.c ****       }
 540              		.loc 1 358 0
 541 0054 01EB8102 		add	r2, r1, r1, lsl #2
 542              	.LVL43:
 543 0058 D300     		lsls	r3, r2, #3
 544              	.LVL44:
 545 005a 0344     		add	r3, r3, r0
 546 005c 0122     		movs	r2, #1
 547 005e 83F85120 		strb	r2, [r3, #81]
 548              	.L43:
 362:Drivers/STM32F7xx_HAL_Driver/Src/stm32f7xx_hal_hcd.c ****       { /* Put the PID 0 */
 549              		.loc 1 362 0
 550 0062 01EB8102 		add	r2, r1, r1, lsl #2
 551 0066 D300     		lsls	r3, r2, #3
ARM GAS  /tmp/ccGDlo4w.s 			page 32


 552 0068 0344     		add	r3, r3, r0
 553 006a 93F85130 		ldrb	r3, [r3, #81]	@ zero_extendqisi2
 554 006e 3BB9     		cbnz	r3, .L44
 364:Drivers/STM32F7xx_HAL_Driver/Src/stm32f7xx_hal_hcd.c ****       }
 555              		.loc 1 364 0
 556 0070 01EB8102 		add	r2, r1, r1, lsl #2
 557 0074 D300     		lsls	r3, r2, #3
 558 0076 0344     		add	r3, r3, r0
 559 0078 0022     		movs	r2, #0
 560 007a 83F84220 		strb	r2, [r3, #66]
 561 007e 6CE0     		b	.L37
 562              	.L44:
 368:Drivers/STM32F7xx_HAL_Driver/Src/stm32f7xx_hal_hcd.c ****       }
 563              		.loc 1 368 0
 564 0080 01EB8102 		add	r2, r1, r1, lsl #2
 565 0084 D300     		lsls	r3, r2, #3
 566 0086 0344     		add	r3, r3, r0
 567 0088 0222     		movs	r2, #2
 568 008a 83F84220 		strb	r2, [r3, #66]
 569 008e 64E0     		b	.L37
 570              	.LVL45:
 571              	.L41:
 374:Drivers/STM32F7xx_HAL_Driver/Src/stm32f7xx_hal_hcd.c ****     {
 572              		.loc 1 374 0
 573 0090 B2B9     		cbnz	r2, .L45
 377:Drivers/STM32F7xx_HAL_Driver/Src/stm32f7xx_hal_hcd.c ****       { /* Put the PID 0 */
 574              		.loc 1 377 0
 575 0092 01EB8102 		add	r2, r1, r1, lsl #2
 576              	.LVL46:
 577 0096 D300     		lsls	r3, r2, #3
 578              	.LVL47:
 579 0098 0344     		add	r3, r3, r0
 580 009a 93F85130 		ldrb	r3, [r3, #81]	@ zero_extendqisi2
 581 009e 3BB9     		cbnz	r3, .L46
 379:Drivers/STM32F7xx_HAL_Driver/Src/stm32f7xx_hal_hcd.c ****       }
 582              		.loc 1 379 0
 583 00a0 01EB8102 		add	r2, r1, r1, lsl #2
 584 00a4 D300     		lsls	r3, r2, #3
 585 00a6 0344     		add	r3, r3, r0
 586 00a8 0022     		movs	r2, #0
 587 00aa 83F84220 		strb	r2, [r3, #66]
 588 00ae 54E0     		b	.L37
 589              	.L46:
 383:Drivers/STM32F7xx_HAL_Driver/Src/stm32f7xx_hal_hcd.c ****       }
 590              		.loc 1 383 0
 591 00b0 01EB8102 		add	r2, r1, r1, lsl #2
 592 00b4 D300     		lsls	r3, r2, #3
 593 00b6 0344     		add	r3, r3, r0
 594 00b8 0222     		movs	r2, #2
 595 00ba 83F84220 		strb	r2, [r3, #66]
 596 00be 4CE0     		b	.L37
 597              	.LVL48:
 598              	.L45:
 388:Drivers/STM32F7xx_HAL_Driver/Src/stm32f7xx_hal_hcd.c ****       {
 599              		.loc 1 388 0
 600 00c0 01EB8102 		add	r2, r1, r1, lsl #2
 601              	.LVL49:
ARM GAS  /tmp/ccGDlo4w.s 			page 33


 602 00c4 D300     		lsls	r3, r2, #3
 603              	.LVL50:
 604 00c6 0344     		add	r3, r3, r0
 605 00c8 93F85030 		ldrb	r3, [r3, #80]	@ zero_extendqisi2
 606 00cc 3BB9     		cbnz	r3, .L47
 390:Drivers/STM32F7xx_HAL_Driver/Src/stm32f7xx_hal_hcd.c ****       }
 607              		.loc 1 390 0
 608 00ce 01EB8102 		add	r2, r1, r1, lsl #2
 609 00d2 D300     		lsls	r3, r2, #3
 610 00d4 0344     		add	r3, r3, r0
 611 00d6 0022     		movs	r2, #0
 612 00d8 83F84220 		strb	r2, [r3, #66]
 613 00dc 3DE0     		b	.L37
 614              	.L47:
 394:Drivers/STM32F7xx_HAL_Driver/Src/stm32f7xx_hal_hcd.c ****       }
 615              		.loc 1 394 0
 616 00de 01EB8102 		add	r2, r1, r1, lsl #2
 617 00e2 D300     		lsls	r3, r2, #3
 618 00e4 0344     		add	r3, r3, r0
 619 00e6 0222     		movs	r2, #2
 620 00e8 83F84220 		strb	r2, [r3, #66]
 621 00ec 35E0     		b	.L37
 622              	.LVL51:
 623              	.L42:
 400:Drivers/STM32F7xx_HAL_Driver/Src/stm32f7xx_hal_hcd.c ****     {
 624              		.loc 1 400 0
 625 00ee B2B9     		cbnz	r2, .L48
 403:Drivers/STM32F7xx_HAL_Driver/Src/stm32f7xx_hal_hcd.c ****       { /* Put the PID 0 */
 626              		.loc 1 403 0
 627 00f0 01EB8102 		add	r2, r1, r1, lsl #2
 628              	.LVL52:
 629 00f4 D300     		lsls	r3, r2, #3
 630              	.LVL53:
 631 00f6 0344     		add	r3, r3, r0
 632 00f8 93F85130 		ldrb	r3, [r3, #81]	@ zero_extendqisi2
 633 00fc 3BB9     		cbnz	r3, .L49
 405:Drivers/STM32F7xx_HAL_Driver/Src/stm32f7xx_hal_hcd.c ****       }
 634              		.loc 1 405 0
 635 00fe 01EB8102 		add	r2, r1, r1, lsl #2
 636 0102 D300     		lsls	r3, r2, #3
 637 0104 0344     		add	r3, r3, r0
 638 0106 0022     		movs	r2, #0
 639 0108 83F84220 		strb	r2, [r3, #66]
 640 010c 25E0     		b	.L37
 641              	.L49:
 409:Drivers/STM32F7xx_HAL_Driver/Src/stm32f7xx_hal_hcd.c ****       }
 642              		.loc 1 409 0
 643 010e 01EB8102 		add	r2, r1, r1, lsl #2
 644 0112 D300     		lsls	r3, r2, #3
 645 0114 0344     		add	r3, r3, r0
 646 0116 0222     		movs	r2, #2
 647 0118 83F84220 		strb	r2, [r3, #66]
 648 011c 1DE0     		b	.L37
 649              	.LVL54:
 650              	.L48:
 414:Drivers/STM32F7xx_HAL_Driver/Src/stm32f7xx_hal_hcd.c ****       {
 651              		.loc 1 414 0
ARM GAS  /tmp/ccGDlo4w.s 			page 34


 652 011e 01EB8102 		add	r2, r1, r1, lsl #2
 653              	.LVL55:
 654 0122 D300     		lsls	r3, r2, #3
 655              	.LVL56:
 656 0124 0344     		add	r3, r3, r0
 657 0126 93F85030 		ldrb	r3, [r3, #80]	@ zero_extendqisi2
 658 012a 3BB9     		cbnz	r3, .L50
 416:Drivers/STM32F7xx_HAL_Driver/Src/stm32f7xx_hal_hcd.c ****       }
 659              		.loc 1 416 0
 660 012c 01EB8102 		add	r2, r1, r1, lsl #2
 661 0130 D300     		lsls	r3, r2, #3
 662 0132 0344     		add	r3, r3, r0
 663 0134 0022     		movs	r2, #0
 664 0136 83F84220 		strb	r2, [r3, #66]
 665 013a 0EE0     		b	.L37
 666              	.L50:
 420:Drivers/STM32F7xx_HAL_Driver/Src/stm32f7xx_hal_hcd.c ****       }
 667              		.loc 1 420 0
 668 013c 01EB8102 		add	r2, r1, r1, lsl #2
 669 0140 D300     		lsls	r3, r2, #3
 670 0142 0344     		add	r3, r3, r0
 671 0144 0222     		movs	r2, #2
 672 0146 83F84220 		strb	r2, [r3, #66]
 673 014a 06E0     		b	.L37
 674              	.LVL57:
 675              	.L40:
 426:Drivers/STM32F7xx_HAL_Driver/Src/stm32f7xx_hal_hcd.c ****     break;
 676              		.loc 1 426 0
 677 014c 01EB8102 		add	r2, r1, r1, lsl #2
 678              	.LVL58:
 679 0150 D300     		lsls	r3, r2, #3
 680              	.LVL59:
 681 0152 0344     		add	r3, r3, r0
 682 0154 0022     		movs	r2, #0
 683 0156 83F84220 		strb	r2, [r3, #66]
 684              	.L37:
 430:Drivers/STM32F7xx_HAL_Driver/Src/stm32f7xx_hal_hcd.c ****   hhcd->hc[ch_num].xfer_len  = length;
 685              		.loc 1 430 0
 686 015a 8A00     		lsls	r2, r1, #2
 687 015c 5418     		adds	r4, r2, r1
 688 015e E300     		lsls	r3, r4, #3
 689 0160 0344     		add	r3, r3, r0
 690 0162 079C     		ldr	r4, [sp, #28]
 691 0164 5C64     		str	r4, [r3, #68]
 431:Drivers/STM32F7xx_HAL_Driver/Src/stm32f7xx_hal_hcd.c ****   hhcd->hc[ch_num].urb_state =   URB_IDLE;
 692              		.loc 1 431 0
 693 0166 9E64     		str	r6, [r3, #72]
 432:Drivers/STM32F7xx_HAL_Driver/Src/stm32f7xx_hal_hcd.c ****   hhcd->hc[ch_num].xfer_count = 0 ;
 694              		.loc 1 432 0
 695 0168 0024     		movs	r4, #0
 696 016a 83F85C40 		strb	r4, [r3, #92]
 433:Drivers/STM32F7xx_HAL_Driver/Src/stm32f7xx_hal_hcd.c ****   hhcd->hc[ch_num].ch_num = ch_num;
 697              		.loc 1 433 0
 698 016e DC64     		str	r4, [r3, #76]
 434:Drivers/STM32F7xx_HAL_Driver/Src/stm32f7xx_hal_hcd.c ****   hhcd->hc[ch_num].state = HC_IDLE;
 699              		.loc 1 434 0
 700 0170 83F83910 		strb	r1, [r3, #57]
ARM GAS  /tmp/ccGDlo4w.s 			page 35


 435:Drivers/STM32F7xx_HAL_Driver/Src/stm32f7xx_hal_hcd.c **** 
 701              		.loc 1 435 0
 702 0174 83F85D40 		strb	r4, [r3, #93]
 437:Drivers/STM32F7xx_HAL_Driver/Src/stm32f7xx_hal_hcd.c **** }
 703              		.loc 1 437 0
 704 0178 1144     		add	r1, r1, r2
 705              	.LVL60:
 706 017a CB00     		lsls	r3, r1, #3
 707              	.LVL61:
 708 017c 03F13801 		add	r1, r3, #56
 709 0180 027C     		ldrb	r2, [r0, #16]	@ zero_extendqisi2
 710 0182 0144     		add	r1, r1, r0
 711 0184 0068     		ldr	r0, [r0]
 712              	.LVL62:
 713 0186 FFF7FEFF 		bl	USB_HC_StartXfer
 714              	.LVL63:
 438:Drivers/STM32F7xx_HAL_Driver/Src/stm32f7xx_hal_hcd.c **** 
 715              		.loc 1 438 0
 716 018a F8BD     		pop	{r3, r4, r5, r6, r7, pc}
 717              		.cfi_endproc
 718              	.LFE144:
 720              		.section	.text.HAL_HCD_SOF_Callback,"ax",%progbits
 721              		.align	1
 722              		.weak	HAL_HCD_SOF_Callback
 723              		.syntax unified
 724              		.thumb
 725              		.thumb_func
 726              		.fpu fpv5-sp-d16
 728              	HAL_HCD_SOF_Callback:
 729              	.LFB146:
 549:Drivers/STM32F7xx_HAL_Driver/Src/stm32f7xx_hal_hcd.c ****   /* Prevent unused argument(s) compilation warning */
 730              		.loc 1 549 0
 731              		.cfi_startproc
 732              		@ args = 0, pretend = 0, frame = 0
 733              		@ frame_needed = 0, uses_anonymous_args = 0
 734              		@ link register save eliminated.
 735              	.LVL64:
 556:Drivers/STM32F7xx_HAL_Driver/Src/stm32f7xx_hal_hcd.c **** 
 736              		.loc 1 556 0
 737 0000 7047     		bx	lr
 738              		.cfi_endproc
 739              	.LFE146:
 741              		.section	.text.HAL_HCD_Connect_Callback,"ax",%progbits
 742              		.align	1
 743              		.weak	HAL_HCD_Connect_Callback
 744              		.syntax unified
 745              		.thumb
 746              		.thumb_func
 747              		.fpu fpv5-sp-d16
 749              	HAL_HCD_Connect_Callback:
 750              	.LFB147:
 564:Drivers/STM32F7xx_HAL_Driver/Src/stm32f7xx_hal_hcd.c ****   /* Prevent unused argument(s) compilation warning */
 751              		.loc 1 564 0
 752              		.cfi_startproc
 753              		@ args = 0, pretend = 0, frame = 0
 754              		@ frame_needed = 0, uses_anonymous_args = 0
 755              		@ link register save eliminated.
ARM GAS  /tmp/ccGDlo4w.s 			page 36


 756              	.LVL65:
 571:Drivers/STM32F7xx_HAL_Driver/Src/stm32f7xx_hal_hcd.c **** 
 757              		.loc 1 571 0
 758 0000 7047     		bx	lr
 759              		.cfi_endproc
 760              	.LFE147:
 762              		.section	.text.HAL_HCD_Disconnect_Callback,"ax",%progbits
 763              		.align	1
 764              		.weak	HAL_HCD_Disconnect_Callback
 765              		.syntax unified
 766              		.thumb
 767              		.thumb_func
 768              		.fpu fpv5-sp-d16
 770              	HAL_HCD_Disconnect_Callback:
 771              	.LFB148:
 579:Drivers/STM32F7xx_HAL_Driver/Src/stm32f7xx_hal_hcd.c ****   /* Prevent unused argument(s) compilation warning */
 772              		.loc 1 579 0
 773              		.cfi_startproc
 774              		@ args = 0, pretend = 0, frame = 0
 775              		@ frame_needed = 0, uses_anonymous_args = 0
 776              		@ link register save eliminated.
 777              	.LVL66:
 586:Drivers/STM32F7xx_HAL_Driver/Src/stm32f7xx_hal_hcd.c **** 
 778              		.loc 1 586 0
 779 0000 7047     		bx	lr
 780              		.cfi_endproc
 781              	.LFE148:
 783              		.section	.text.HAL_HCD_PortEnabled_Callback,"ax",%progbits
 784              		.align	1
 785              		.weak	HAL_HCD_PortEnabled_Callback
 786              		.syntax unified
 787              		.thumb
 788              		.thumb_func
 789              		.fpu fpv5-sp-d16
 791              	HAL_HCD_PortEnabled_Callback:
 792              	.LFB149:
 594:Drivers/STM32F7xx_HAL_Driver/Src/stm32f7xx_hal_hcd.c ****   /* Prevent unused argument(s) compilation warning */
 793              		.loc 1 594 0
 794              		.cfi_startproc
 795              		@ args = 0, pretend = 0, frame = 0
 796              		@ frame_needed = 0, uses_anonymous_args = 0
 797              		@ link register save eliminated.
 798              	.LVL67:
 600:Drivers/STM32F7xx_HAL_Driver/Src/stm32f7xx_hal_hcd.c **** 
 799              		.loc 1 600 0
 800 0000 7047     		bx	lr
 801              		.cfi_endproc
 802              	.LFE149:
 804              		.section	.text.HAL_HCD_PortDisabled_Callback,"ax",%progbits
 805              		.align	1
 806              		.weak	HAL_HCD_PortDisabled_Callback
 807              		.syntax unified
 808              		.thumb
 809              		.thumb_func
 810              		.fpu fpv5-sp-d16
 812              	HAL_HCD_PortDisabled_Callback:
 813              	.LFB150:
ARM GAS  /tmp/ccGDlo4w.s 			page 37


 608:Drivers/STM32F7xx_HAL_Driver/Src/stm32f7xx_hal_hcd.c ****   /* Prevent unused argument(s) compilation warning */
 814              		.loc 1 608 0
 815              		.cfi_startproc
 816              		@ args = 0, pretend = 0, frame = 0
 817              		@ frame_needed = 0, uses_anonymous_args = 0
 818              		@ link register save eliminated.
 819              	.LVL68:
 614:Drivers/STM32F7xx_HAL_Driver/Src/stm32f7xx_hal_hcd.c **** 
 820              		.loc 1 614 0
 821 0000 7047     		bx	lr
 822              		.cfi_endproc
 823              	.LFE150:
 825              		.section	.text.HCD_Port_IRQHandler,"ax",%progbits
 826              		.align	1
 827              		.syntax unified
 828              		.thumb
 829              		.thumb_func
 830              		.fpu fpv5-sp-d16
 832              	HCD_Port_IRQHandler:
 833              	.LFB164:
1169:Drivers/STM32F7xx_HAL_Driver/Src/stm32f7xx_hal_hcd.c **** 
1170:Drivers/STM32F7xx_HAL_Driver/Src/stm32f7xx_hal_hcd.c **** /**
1171:Drivers/STM32F7xx_HAL_Driver/Src/stm32f7xx_hal_hcd.c ****   * @brief  Handle Host Port interrupt requests.
1172:Drivers/STM32F7xx_HAL_Driver/Src/stm32f7xx_hal_hcd.c ****   * @param  hhcd HCD handle
1173:Drivers/STM32F7xx_HAL_Driver/Src/stm32f7xx_hal_hcd.c ****   * @retval None
1174:Drivers/STM32F7xx_HAL_Driver/Src/stm32f7xx_hal_hcd.c ****   */
1175:Drivers/STM32F7xx_HAL_Driver/Src/stm32f7xx_hal_hcd.c **** static void HCD_Port_IRQHandler  (HCD_HandleTypeDef *hhcd)
1176:Drivers/STM32F7xx_HAL_Driver/Src/stm32f7xx_hal_hcd.c **** {
 834              		.loc 1 1176 0
 835              		.cfi_startproc
 836              		@ args = 0, pretend = 0, frame = 8
 837              		@ frame_needed = 0, uses_anonymous_args = 0
 838              	.LVL69:
 839 0000 30B5     		push	{r4, r5, lr}
 840              	.LCFI14:
 841              		.cfi_def_cfa_offset 12
 842              		.cfi_offset 4, -12
 843              		.cfi_offset 5, -8
 844              		.cfi_offset 14, -4
 845 0002 83B0     		sub	sp, sp, #12
 846              	.LCFI15:
 847              		.cfi_def_cfa_offset 24
 848 0004 0546     		mov	r5, r0
1177:Drivers/STM32F7xx_HAL_Driver/Src/stm32f7xx_hal_hcd.c ****   USB_OTG_GlobalTypeDef *USBx = hhcd->Instance;
 849              		.loc 1 1177 0
 850 0006 0468     		ldr	r4, [r0]
 851              	.LVL70:
1178:Drivers/STM32F7xx_HAL_Driver/Src/stm32f7xx_hal_hcd.c ****   __IO uint32_t hprt0, hprt0_dup;
1179:Drivers/STM32F7xx_HAL_Driver/Src/stm32f7xx_hal_hcd.c **** 
1180:Drivers/STM32F7xx_HAL_Driver/Src/stm32f7xx_hal_hcd.c ****   /* Handle Host Port Interrupts */
1181:Drivers/STM32F7xx_HAL_Driver/Src/stm32f7xx_hal_hcd.c ****   hprt0 = USBx_HPRT0;
 852              		.loc 1 1181 0
 853 0008 D4F84034 		ldr	r3, [r4, #1088]
 854 000c 0193     		str	r3, [sp, #4]
1182:Drivers/STM32F7xx_HAL_Driver/Src/stm32f7xx_hal_hcd.c ****   hprt0_dup = USBx_HPRT0;
 855              		.loc 1 1182 0
 856 000e D4F84034 		ldr	r3, [r4, #1088]
ARM GAS  /tmp/ccGDlo4w.s 			page 38


 857 0012 0093     		str	r3, [sp]
1183:Drivers/STM32F7xx_HAL_Driver/Src/stm32f7xx_hal_hcd.c **** 
1184:Drivers/STM32F7xx_HAL_Driver/Src/stm32f7xx_hal_hcd.c ****   hprt0_dup &= ~(USB_OTG_HPRT_PENA | USB_OTG_HPRT_PCDET |\
 858              		.loc 1 1184 0
 859 0014 009B     		ldr	r3, [sp]
 860 0016 23F02E03 		bic	r3, r3, #46
 861 001a 0093     		str	r3, [sp]
1185:Drivers/STM32F7xx_HAL_Driver/Src/stm32f7xx_hal_hcd.c ****                  USB_OTG_HPRT_PENCHNG | USB_OTG_HPRT_POCCHNG );
1186:Drivers/STM32F7xx_HAL_Driver/Src/stm32f7xx_hal_hcd.c **** 
1187:Drivers/STM32F7xx_HAL_Driver/Src/stm32f7xx_hal_hcd.c ****   /* Check whether Port Connect detected */
1188:Drivers/STM32F7xx_HAL_Driver/Src/stm32f7xx_hal_hcd.c ****   if((hprt0 & USB_OTG_HPRT_PCDET) == USB_OTG_HPRT_PCDET)
 862              		.loc 1 1188 0
 863 001c 019B     		ldr	r3, [sp, #4]
 864 001e 13F0020F 		tst	r3, #2
 865 0022 07D0     		beq	.L58
1189:Drivers/STM32F7xx_HAL_Driver/Src/stm32f7xx_hal_hcd.c ****   {
1190:Drivers/STM32F7xx_HAL_Driver/Src/stm32f7xx_hal_hcd.c ****     if((hprt0 & USB_OTG_HPRT_PCSTS) == USB_OTG_HPRT_PCSTS)
 866              		.loc 1 1190 0
 867 0024 019B     		ldr	r3, [sp, #4]
 868 0026 13F0010F 		tst	r3, #1
 869 002a 28D1     		bne	.L67
 870              	.LVL71:
 871              	.L59:
1191:Drivers/STM32F7xx_HAL_Driver/Src/stm32f7xx_hal_hcd.c ****     {
1192:Drivers/STM32F7xx_HAL_Driver/Src/stm32f7xx_hal_hcd.c ****       USB_MASK_INTERRUPT(hhcd->Instance, USB_OTG_GINTSTS_DISCINT);
1193:Drivers/STM32F7xx_HAL_Driver/Src/stm32f7xx_hal_hcd.c ****       HAL_HCD_Connect_Callback(hhcd);
1194:Drivers/STM32F7xx_HAL_Driver/Src/stm32f7xx_hal_hcd.c ****     }
1195:Drivers/STM32F7xx_HAL_Driver/Src/stm32f7xx_hal_hcd.c ****     hprt0_dup  |= USB_OTG_HPRT_PCDET;
 872              		.loc 1 1195 0
 873 002c 009B     		ldr	r3, [sp]
 874 002e 43F00203 		orr	r3, r3, #2
 875 0032 0093     		str	r3, [sp]
 876              	.L58:
1196:Drivers/STM32F7xx_HAL_Driver/Src/stm32f7xx_hal_hcd.c **** 
1197:Drivers/STM32F7xx_HAL_Driver/Src/stm32f7xx_hal_hcd.c ****   }
1198:Drivers/STM32F7xx_HAL_Driver/Src/stm32f7xx_hal_hcd.c **** 
1199:Drivers/STM32F7xx_HAL_Driver/Src/stm32f7xx_hal_hcd.c ****   /* Check whether Port Enable Changed */
1200:Drivers/STM32F7xx_HAL_Driver/Src/stm32f7xx_hal_hcd.c ****   if((hprt0 & USB_OTG_HPRT_PENCHNG) == USB_OTG_HPRT_PENCHNG)
 877              		.loc 1 1200 0
 878 0034 019B     		ldr	r3, [sp, #4]
 879 0036 13F0080F 		tst	r3, #8
 880 003a 13D0     		beq	.L60
1201:Drivers/STM32F7xx_HAL_Driver/Src/stm32f7xx_hal_hcd.c ****   {
1202:Drivers/STM32F7xx_HAL_Driver/Src/stm32f7xx_hal_hcd.c ****     hprt0_dup |= USB_OTG_HPRT_PENCHNG;
 881              		.loc 1 1202 0
 882 003c 009B     		ldr	r3, [sp]
 883 003e 43F00803 		orr	r3, r3, #8
 884 0042 0093     		str	r3, [sp]
1203:Drivers/STM32F7xx_HAL_Driver/Src/stm32f7xx_hal_hcd.c **** 
1204:Drivers/STM32F7xx_HAL_Driver/Src/stm32f7xx_hal_hcd.c ****     if((hprt0 & USB_OTG_HPRT_PENA) == USB_OTG_HPRT_PENA)
 885              		.loc 1 1204 0
 886 0044 019B     		ldr	r3, [sp, #4]
 887 0046 13F0040F 		tst	r3, #4
 888 004a 34D0     		beq	.L61
1205:Drivers/STM32F7xx_HAL_Driver/Src/stm32f7xx_hal_hcd.c ****     {
1206:Drivers/STM32F7xx_HAL_Driver/Src/stm32f7xx_hal_hcd.c ****       if(hhcd->Init.phy_itface  == USB_OTG_EMBEDDED_PHY)
 889              		.loc 1 1206 0
ARM GAS  /tmp/ccGDlo4w.s 			page 39


 890 004c AB69     		ldr	r3, [r5, #24]
 891 004e 022B     		cmp	r3, #2
 892 0050 1CD0     		beq	.L68
1207:Drivers/STM32F7xx_HAL_Driver/Src/stm32f7xx_hal_hcd.c ****       {
1208:Drivers/STM32F7xx_HAL_Driver/Src/stm32f7xx_hal_hcd.c ****         if ((hprt0 & USB_OTG_HPRT_PSPD) == (HPRT0_PRTSPD_LOW_SPEED << 17))
1209:Drivers/STM32F7xx_HAL_Driver/Src/stm32f7xx_hal_hcd.c ****         {
1210:Drivers/STM32F7xx_HAL_Driver/Src/stm32f7xx_hal_hcd.c ****           USB_InitFSLSPClkSel(hhcd->Instance ,HCFG_6_MHZ );
1211:Drivers/STM32F7xx_HAL_Driver/Src/stm32f7xx_hal_hcd.c ****         }
1212:Drivers/STM32F7xx_HAL_Driver/Src/stm32f7xx_hal_hcd.c ****         else
1213:Drivers/STM32F7xx_HAL_Driver/Src/stm32f7xx_hal_hcd.c ****         {
1214:Drivers/STM32F7xx_HAL_Driver/Src/stm32f7xx_hal_hcd.c ****           USB_InitFSLSPClkSel(hhcd->Instance ,HCFG_48_MHZ );
1215:Drivers/STM32F7xx_HAL_Driver/Src/stm32f7xx_hal_hcd.c ****         }
1216:Drivers/STM32F7xx_HAL_Driver/Src/stm32f7xx_hal_hcd.c ****       }
1217:Drivers/STM32F7xx_HAL_Driver/Src/stm32f7xx_hal_hcd.c ****       else
1218:Drivers/STM32F7xx_HAL_Driver/Src/stm32f7xx_hal_hcd.c ****       {
1219:Drivers/STM32F7xx_HAL_Driver/Src/stm32f7xx_hal_hcd.c ****         if(hhcd->Init.speed == HCD_SPEED_FULL)
 893              		.loc 1 1219 0
 894 0052 EB68     		ldr	r3, [r5, #12]
 895 0054 032B     		cmp	r3, #3
 896 0056 29D0     		beq	.L69
 897              	.L64:
1220:Drivers/STM32F7xx_HAL_Driver/Src/stm32f7xx_hal_hcd.c ****         {
1221:Drivers/STM32F7xx_HAL_Driver/Src/stm32f7xx_hal_hcd.c ****           USBx_HOST->HFIR = (uint32_t)60000;
1222:Drivers/STM32F7xx_HAL_Driver/Src/stm32f7xx_hal_hcd.c ****         }
1223:Drivers/STM32F7xx_HAL_Driver/Src/stm32f7xx_hal_hcd.c ****       }
1224:Drivers/STM32F7xx_HAL_Driver/Src/stm32f7xx_hal_hcd.c **** 
1225:Drivers/STM32F7xx_HAL_Driver/Src/stm32f7xx_hal_hcd.c ****       HAL_HCD_PortEnabled_Callback(hhcd);
 898              		.loc 1 1225 0
 899 0058 2846     		mov	r0, r5
 900 005a FFF7FEFF 		bl	HAL_HCD_PortEnabled_Callback
 901              	.LVL72:
1226:Drivers/STM32F7xx_HAL_Driver/Src/stm32f7xx_hal_hcd.c ****       HAL_HCD_Connect_Callback(hhcd);
 902              		.loc 1 1226 0
 903 005e 2846     		mov	r0, r5
 904 0060 FFF7FEFF 		bl	HAL_HCD_Connect_Callback
 905              	.LVL73:
 906              	.L60:
1227:Drivers/STM32F7xx_HAL_Driver/Src/stm32f7xx_hal_hcd.c **** 
1228:Drivers/STM32F7xx_HAL_Driver/Src/stm32f7xx_hal_hcd.c ****     }
1229:Drivers/STM32F7xx_HAL_Driver/Src/stm32f7xx_hal_hcd.c ****     else
1230:Drivers/STM32F7xx_HAL_Driver/Src/stm32f7xx_hal_hcd.c ****     {
1231:Drivers/STM32F7xx_HAL_Driver/Src/stm32f7xx_hal_hcd.c ****       HAL_HCD_PortDisabled_Callback(hhcd);
1232:Drivers/STM32F7xx_HAL_Driver/Src/stm32f7xx_hal_hcd.c ****       /* Cleanup HPRT */
1233:Drivers/STM32F7xx_HAL_Driver/Src/stm32f7xx_hal_hcd.c ****       USBx_HPRT0 &= ~(USB_OTG_HPRT_PENA | USB_OTG_HPRT_PCDET |\
1234:Drivers/STM32F7xx_HAL_Driver/Src/stm32f7xx_hal_hcd.c ****         USB_OTG_HPRT_PENCHNG | USB_OTG_HPRT_POCCHNG );
1235:Drivers/STM32F7xx_HAL_Driver/Src/stm32f7xx_hal_hcd.c **** 
1236:Drivers/STM32F7xx_HAL_Driver/Src/stm32f7xx_hal_hcd.c ****       USB_UNMASK_INTERRUPT(hhcd->Instance, USB_OTG_GINTSTS_DISCINT);
1237:Drivers/STM32F7xx_HAL_Driver/Src/stm32f7xx_hal_hcd.c ****     }
1238:Drivers/STM32F7xx_HAL_Driver/Src/stm32f7xx_hal_hcd.c ****   }
1239:Drivers/STM32F7xx_HAL_Driver/Src/stm32f7xx_hal_hcd.c **** 
1240:Drivers/STM32F7xx_HAL_Driver/Src/stm32f7xx_hal_hcd.c ****   /* Check For an overcurrent */
1241:Drivers/STM32F7xx_HAL_Driver/Src/stm32f7xx_hal_hcd.c ****   if((hprt0 & USB_OTG_HPRT_POCCHNG) == USB_OTG_HPRT_POCCHNG)
 907              		.loc 1 1241 0
 908 0064 019B     		ldr	r3, [sp, #4]
 909 0066 13F0200F 		tst	r3, #32
 910 006a 03D0     		beq	.L65
1242:Drivers/STM32F7xx_HAL_Driver/Src/stm32f7xx_hal_hcd.c ****   {
ARM GAS  /tmp/ccGDlo4w.s 			page 40


1243:Drivers/STM32F7xx_HAL_Driver/Src/stm32f7xx_hal_hcd.c ****     hprt0_dup |= USB_OTG_HPRT_POCCHNG;
 911              		.loc 1 1243 0
 912 006c 009B     		ldr	r3, [sp]
 913 006e 43F02003 		orr	r3, r3, #32
 914 0072 0093     		str	r3, [sp]
 915              	.L65:
1244:Drivers/STM32F7xx_HAL_Driver/Src/stm32f7xx_hal_hcd.c ****   }
1245:Drivers/STM32F7xx_HAL_Driver/Src/stm32f7xx_hal_hcd.c **** 
1246:Drivers/STM32F7xx_HAL_Driver/Src/stm32f7xx_hal_hcd.c ****   /* Clear Port Interrupts */
1247:Drivers/STM32F7xx_HAL_Driver/Src/stm32f7xx_hal_hcd.c ****   USBx_HPRT0 = hprt0_dup;
 916              		.loc 1 1247 0
 917 0074 009B     		ldr	r3, [sp]
 918 0076 C4F84034 		str	r3, [r4, #1088]
1248:Drivers/STM32F7xx_HAL_Driver/Src/stm32f7xx_hal_hcd.c **** }
 919              		.loc 1 1248 0
 920 007a 03B0     		add	sp, sp, #12
 921              	.LCFI16:
 922              		.cfi_remember_state
 923              		.cfi_def_cfa_offset 12
 924              		@ sp needed
 925 007c 30BD     		pop	{r4, r5, pc}
 926              	.LVL74:
 927              	.L67:
 928              	.LCFI17:
 929              		.cfi_restore_state
1192:Drivers/STM32F7xx_HAL_Driver/Src/stm32f7xx_hal_hcd.c ****       HAL_HCD_Connect_Callback(hhcd);
 930              		.loc 1 1192 0
 931 007e A369     		ldr	r3, [r4, #24]
 932 0080 23F00053 		bic	r3, r3, #536870912
 933 0084 A361     		str	r3, [r4, #24]
1193:Drivers/STM32F7xx_HAL_Driver/Src/stm32f7xx_hal_hcd.c ****     }
 934              		.loc 1 1193 0
 935 0086 FFF7FEFF 		bl	HAL_HCD_Connect_Callback
 936              	.LVL75:
 937 008a CFE7     		b	.L59
 938              	.L68:
1208:Drivers/STM32F7xx_HAL_Driver/Src/stm32f7xx_hal_hcd.c ****         {
 939              		.loc 1 1208 0
 940 008c 019B     		ldr	r3, [sp, #4]
 941 008e 03F4C023 		and	r3, r3, #393216
 942 0092 B3F5802F 		cmp	r3, #262144
 943 0096 04D0     		beq	.L70
1214:Drivers/STM32F7xx_HAL_Driver/Src/stm32f7xx_hal_hcd.c ****         }
 944              		.loc 1 1214 0
 945 0098 0121     		movs	r1, #1
 946 009a 2868     		ldr	r0, [r5]
 947 009c FFF7FEFF 		bl	USB_InitFSLSPClkSel
 948              	.LVL76:
 949 00a0 DAE7     		b	.L64
 950              	.L70:
1210:Drivers/STM32F7xx_HAL_Driver/Src/stm32f7xx_hal_hcd.c ****         }
 951              		.loc 1 1210 0
 952 00a2 0221     		movs	r1, #2
 953 00a4 2868     		ldr	r0, [r5]
 954 00a6 FFF7FEFF 		bl	USB_InitFSLSPClkSel
 955              	.LVL77:
 956 00aa D5E7     		b	.L64
ARM GAS  /tmp/ccGDlo4w.s 			page 41


 957              	.L69:
1221:Drivers/STM32F7xx_HAL_Driver/Src/stm32f7xx_hal_hcd.c ****         }
 958              		.loc 1 1221 0
 959 00ac 4EF66022 		movw	r2, #60000
 960 00b0 C4F80424 		str	r2, [r4, #1028]
 961 00b4 D0E7     		b	.L64
 962              	.L61:
1231:Drivers/STM32F7xx_HAL_Driver/Src/stm32f7xx_hal_hcd.c ****       /* Cleanup HPRT */
 963              		.loc 1 1231 0
 964 00b6 2846     		mov	r0, r5
 965 00b8 FFF7FEFF 		bl	HAL_HCD_PortDisabled_Callback
 966              	.LVL78:
1233:Drivers/STM32F7xx_HAL_Driver/Src/stm32f7xx_hal_hcd.c ****         USB_OTG_HPRT_PENCHNG | USB_OTG_HPRT_POCCHNG );
 967              		.loc 1 1233 0
 968 00bc D4F84034 		ldr	r3, [r4, #1088]
 969 00c0 23F02E03 		bic	r3, r3, #46
 970 00c4 C4F84034 		str	r3, [r4, #1088]
1236:Drivers/STM32F7xx_HAL_Driver/Src/stm32f7xx_hal_hcd.c ****     }
 971              		.loc 1 1236 0
 972 00c8 2A68     		ldr	r2, [r5]
 973 00ca 9369     		ldr	r3, [r2, #24]
 974 00cc 43F00053 		orr	r3, r3, #536870912
 975 00d0 9361     		str	r3, [r2, #24]
 976 00d2 C7E7     		b	.L60
 977              		.cfi_endproc
 978              	.LFE164:
 980              		.section	.text.HAL_HCD_HC_NotifyURBChange_Callback,"ax",%progbits
 981              		.align	1
 982              		.weak	HAL_HCD_HC_NotifyURBChange_Callback
 983              		.syntax unified
 984              		.thumb
 985              		.thumb_func
 986              		.fpu fpv5-sp-d16
 988              	HAL_HCD_HC_NotifyURBChange_Callback:
 989              	.LFB151:
 632:Drivers/STM32F7xx_HAL_Driver/Src/stm32f7xx_hal_hcd.c ****   /* Prevent unused argument(s) compilation warning */
 990              		.loc 1 632 0
 991              		.cfi_startproc
 992              		@ args = 0, pretend = 0, frame = 0
 993              		@ frame_needed = 0, uses_anonymous_args = 0
 994              		@ link register save eliminated.
 995              	.LVL79:
 639:Drivers/STM32F7xx_HAL_Driver/Src/stm32f7xx_hal_hcd.c **** 
 996              		.loc 1 639 0
 997 0000 7047     		bx	lr
 998              		.cfi_endproc
 999              	.LFE151:
 1001              		.section	.text.HCD_HC_IN_IRQHandler,"ax",%progbits
 1002              		.align	1
 1003              		.syntax unified
 1004              		.thumb
 1005              		.thumb_func
 1006              		.fpu fpv5-sp-d16
 1008              	HCD_HC_IN_IRQHandler:
 1009              	.LFB161:
 820:Drivers/STM32F7xx_HAL_Driver/Src/stm32f7xx_hal_hcd.c ****   USB_OTG_GlobalTypeDef *USBx = hhcd->Instance;
 1010              		.loc 1 820 0
ARM GAS  /tmp/ccGDlo4w.s 			page 42


 1011              		.cfi_startproc
 1012              		@ args = 0, pretend = 0, frame = 0
 1013              		@ frame_needed = 0, uses_anonymous_args = 0
 1014              	.LVL80:
 1015 0000 F8B5     		push	{r3, r4, r5, r6, r7, lr}
 1016              	.LCFI18:
 1017              		.cfi_def_cfa_offset 24
 1018              		.cfi_offset 3, -24
 1019              		.cfi_offset 4, -20
 1020              		.cfi_offset 5, -16
 1021              		.cfi_offset 6, -12
 1022              		.cfi_offset 7, -8
 1023              		.cfi_offset 14, -4
 1024 0002 0646     		mov	r6, r0
 1025 0004 0D46     		mov	r5, r1
 821:Drivers/STM32F7xx_HAL_Driver/Src/stm32f7xx_hal_hcd.c ****   uint32_t tmpreg = 0;
 1026              		.loc 1 821 0
 1027 0006 0768     		ldr	r7, [r0]
 1028              	.LVL81:
 824:Drivers/STM32F7xx_HAL_Driver/Src/stm32f7xx_hal_hcd.c ****   {
 1029              		.loc 1 824 0
 1030 0008 07EB4117 		add	r7, r7, r1, lsl #5
 1031              	.LVL82:
 1032 000c 07F5A064 		add	r4, r7, #1280
 1033 0010 A368     		ldr	r3, [r4, #8]
 1034 0012 13F0040F 		tst	r3, #4
 1035 0016 3FD0     		beq	.L73
 826:Drivers/STM32F7xx_HAL_Driver/Src/stm32f7xx_hal_hcd.c ****     __HAL_HCD_UNMASK_HALT_HC_INT(chnum);
 1036              		.loc 1 826 0
 1037 0018 0423     		movs	r3, #4
 1038 001a A360     		str	r3, [r4, #8]
 1039              	.LVL83:
 827:Drivers/STM32F7xx_HAL_Driver/Src/stm32f7xx_hal_hcd.c ****   }
 1040              		.loc 1 827 0
 1041 001c E368     		ldr	r3, [r4, #12]
 1042 001e 43F00203 		orr	r3, r3, #2
 1043 0022 E360     		str	r3, [r4, #12]
 1044              	.LVL84:
 1045              	.L74:
 851:Drivers/STM32F7xx_HAL_Driver/Src/stm32f7xx_hal_hcd.c ****   {
 1046              		.loc 1 851 0
 1047 0024 A368     		ldr	r3, [r4, #8]
 1048 0026 13F4007F 		tst	r3, #512
 1049 002a 6BD1     		bne	.L94
 858:Drivers/STM32F7xx_HAL_Driver/Src/stm32f7xx_hal_hcd.c ****   {
 1050              		.loc 1 858 0
 1051 002c A368     		ldr	r3, [r4, #8]
 1052 002e 13F0010F 		tst	r3, #1
 1053 0032 00F09080 		beq	.L79
 861:Drivers/STM32F7xx_HAL_Driver/Src/stm32f7xx_hal_hcd.c ****     {
 1054              		.loc 1 861 0
 1055 0036 3369     		ldr	r3, [r6, #16]
 1056 0038 63B1     		cbz	r3, .L80
 863:Drivers/STM32F7xx_HAL_Driver/Src/stm32f7xx_hal_hcd.c ****                                (USBx_HC(chnum)->HCTSIZ & USB_OTG_HCTSIZ_XFRSIZ);
 1057              		.loc 1 863 0
 1058 003a AB00     		lsls	r3, r5, #2
 1059 003c 5919     		adds	r1, r3, r5
ARM GAS  /tmp/ccGDlo4w.s 			page 43


 1060 003e CA00     		lsls	r2, r1, #3
 1061 0040 3244     		add	r2, r2, r6
 1062 0042 916C     		ldr	r1, [r2, #72]
 864:Drivers/STM32F7xx_HAL_Driver/Src/stm32f7xx_hal_hcd.c ****     }
 1063              		.loc 1 864 0
 1064 0044 2269     		ldr	r2, [r4, #16]
 1065 0046 C2F31202 		ubfx	r2, r2, #0, #19
 863:Drivers/STM32F7xx_HAL_Driver/Src/stm32f7xx_hal_hcd.c ****                                (USBx_HC(chnum)->HCTSIZ & USB_OTG_HCTSIZ_XFRSIZ);
 1066              		.loc 1 863 0
 1067 004a 891A     		subs	r1, r1, r2
 1068 004c 2B44     		add	r3, r3, r5
 1069 004e DA00     		lsls	r2, r3, #3
 1070 0050 3244     		add	r2, r2, r6
 1071 0052 D164     		str	r1, [r2, #76]
 1072              	.L80:
 867:Drivers/STM32F7xx_HAL_Driver/Src/stm32f7xx_hal_hcd.c ****     hhcd->hc[chnum].ErrCnt = 0;
 1073              		.loc 1 867 0
 1074 0054 AA00     		lsls	r2, r5, #2
 1075 0056 2A44     		add	r2, r2, r5
 1076 0058 D300     		lsls	r3, r2, #3
 1077 005a 3344     		add	r3, r3, r6
 1078 005c 0122     		movs	r2, #1
 1079 005e 83F85D20 		strb	r2, [r3, #93]
 868:Drivers/STM32F7xx_HAL_Driver/Src/stm32f7xx_hal_hcd.c ****     __HAL_HCD_CLEAR_HC_INT(chnum, USB_OTG_HCINT_XFRC);
 1080              		.loc 1 868 0
 1081 0062 0021     		movs	r1, #0
 1082 0064 9965     		str	r1, [r3, #88]
 869:Drivers/STM32F7xx_HAL_Driver/Src/stm32f7xx_hal_hcd.c **** 
 1083              		.loc 1 869 0
 1084 0066 A260     		str	r2, [r4, #8]
 872:Drivers/STM32F7xx_HAL_Driver/Src/stm32f7xx_hal_hcd.c ****         (hhcd->hc[chnum].ep_type == EP_TYPE_BULK))
 1085              		.loc 1 872 0
 1086 0068 93F83F20 		ldrb	r2, [r3, #63]	@ zero_extendqisi2
 1087 006c 022A     		cmp	r2, #2
 1088 006e 14BF     		ite	ne
 1089 0070 0023     		movne	r3, #0
 1090 0072 0123     		moveq	r3, #1
 1091 0074 8A42     		cmp	r2, r1
 1092 0076 08BF     		it	eq
 1093 0078 0123     		moveq	r3, #1
 1094 007a 002B     		cmp	r3, #0
 1095 007c 4ED1     		bne	.L95
 880:Drivers/STM32F7xx_HAL_Driver/Src/stm32f7xx_hal_hcd.c ****     {
 1096              		.loc 1 880 0
 1097 007e 032A     		cmp	r2, #3
 1098 0080 57D0     		beq	.L96
 1099              	.L82:
 886:Drivers/STM32F7xx_HAL_Driver/Src/stm32f7xx_hal_hcd.c **** 
 1100              		.loc 1 886 0
 1101 0082 AB00     		lsls	r3, r5, #2
 1102 0084 5919     		adds	r1, r3, r5
 1103 0086 CA00     		lsls	r2, r1, #3
 1104 0088 3244     		add	r2, r2, r6
 1105 008a 92F85030 		ldrb	r3, [r2, #80]	@ zero_extendqisi2
 1106 008e 83F00103 		eor	r3, r3, #1
 1107 0092 82F85030 		strb	r3, [r2, #80]
 1108              	.LVL85:
ARM GAS  /tmp/ccGDlo4w.s 			page 44


 1109              	.L72:
 964:Drivers/STM32F7xx_HAL_Driver/Src/stm32f7xx_hal_hcd.c **** 
 1110              		.loc 1 964 0
 1111 0096 F8BD     		pop	{r3, r4, r5, r6, r7, pc}
 1112              	.LVL86:
 1113              	.L73:
 829:Drivers/STM32F7xx_HAL_Driver/Src/stm32f7xx_hal_hcd.c ****   {
 1114              		.loc 1 829 0
 1115 0098 A368     		ldr	r3, [r4, #8]
 1116 009a 13F0200F 		tst	r3, #32
 1117 009e 02D0     		beq	.L75
 831:Drivers/STM32F7xx_HAL_Driver/Src/stm32f7xx_hal_hcd.c ****   }
 1118              		.loc 1 831 0
 1119 00a0 2023     		movs	r3, #32
 1120 00a2 A360     		str	r3, [r4, #8]
 1121              	.LVL87:
 1122 00a4 BEE7     		b	.L74
 1123              	.LVL88:
 1124              	.L75:
 834:Drivers/STM32F7xx_HAL_Driver/Src/stm32f7xx_hal_hcd.c ****   {
 1125              		.loc 1 834 0
 1126 00a6 A368     		ldr	r3, [r4, #8]
 1127 00a8 13F0080F 		tst	r3, #8
 1128 00ac 17D1     		bne	.L97
 842:Drivers/STM32F7xx_HAL_Driver/Src/stm32f7xx_hal_hcd.c ****   {
 1129              		.loc 1 842 0
 1130 00ae A368     		ldr	r3, [r4, #8]
 1131 00b0 13F4806F 		tst	r3, #1024
 1132 00b4 B6D0     		beq	.L74
 844:Drivers/STM32F7xx_HAL_Driver/Src/stm32f7xx_hal_hcd.c ****     USB_HC_Halt(hhcd->Instance, chnum);
 1133              		.loc 1 844 0
 1134 00b6 E368     		ldr	r3, [r4, #12]
 1135 00b8 43F00203 		orr	r3, r3, #2
 1136 00bc E360     		str	r3, [r4, #12]
 1137              	.LVL89:
 845:Drivers/STM32F7xx_HAL_Driver/Src/stm32f7xx_hal_hcd.c ****     __HAL_HCD_CLEAR_HC_INT(chnum, USB_OTG_HCINT_NAK);
 1138              		.loc 1 845 0
 1139 00be 0068     		ldr	r0, [r0]
 1140              	.LVL90:
 1141 00c0 FFF7FEFF 		bl	USB_HC_Halt
 1142              	.LVL91:
 846:Drivers/STM32F7xx_HAL_Driver/Src/stm32f7xx_hal_hcd.c ****     hhcd->hc[chnum].state = HC_DATATGLERR;
 1143              		.loc 1 846 0
 1144 00c4 1023     		movs	r3, #16
 1145 00c6 A360     		str	r3, [r4, #8]
 847:Drivers/STM32F7xx_HAL_Driver/Src/stm32f7xx_hal_hcd.c ****     __HAL_HCD_CLEAR_HC_INT(chnum, USB_OTG_HCINT_DTERR);
 1146              		.loc 1 847 0
 1147 00c8 05EB8502 		add	r2, r5, r5, lsl #2
 1148 00cc D300     		lsls	r3, r2, #3
 1149 00ce 3344     		add	r3, r3, r6
 1150 00d0 0822     		movs	r2, #8
 1151 00d2 83F85D20 		strb	r2, [r3, #93]
 848:Drivers/STM32F7xx_HAL_Driver/Src/stm32f7xx_hal_hcd.c ****   }
 1152              		.loc 1 848 0
 1153 00d6 4FF48063 		mov	r3, #1024
 1154 00da A360     		str	r3, [r4, #8]
 1155 00dc A2E7     		b	.L74
ARM GAS  /tmp/ccGDlo4w.s 			page 45


 1156              	.LVL92:
 1157              	.L97:
 836:Drivers/STM32F7xx_HAL_Driver/Src/stm32f7xx_hal_hcd.c ****     hhcd->hc[chnum].state = HC_STALL;
 1158              		.loc 1 836 0
 1159 00de E368     		ldr	r3, [r4, #12]
 1160 00e0 43F00203 		orr	r3, r3, #2
 1161 00e4 E360     		str	r3, [r4, #12]
 1162              	.LVL93:
 837:Drivers/STM32F7xx_HAL_Driver/Src/stm32f7xx_hal_hcd.c ****     __HAL_HCD_CLEAR_HC_INT(chnum, USB_OTG_HCINT_NAK);
 1163              		.loc 1 837 0
 1164 00e6 01EB8102 		add	r2, r1, r1, lsl #2
 1165 00ea D300     		lsls	r3, r2, #3
 1166 00ec 0344     		add	r3, r3, r0
 1167 00ee 0522     		movs	r2, #5
 1168 00f0 83F85D20 		strb	r2, [r3, #93]
 838:Drivers/STM32F7xx_HAL_Driver/Src/stm32f7xx_hal_hcd.c ****     __HAL_HCD_CLEAR_HC_INT(chnum, USB_OTG_HCINT_STALL);
 1169              		.loc 1 838 0
 1170 00f4 1023     		movs	r3, #16
 1171 00f6 A360     		str	r3, [r4, #8]
 839:Drivers/STM32F7xx_HAL_Driver/Src/stm32f7xx_hal_hcd.c ****     USB_HC_Halt(hhcd->Instance, chnum);
 1172              		.loc 1 839 0
 1173 00f8 0823     		movs	r3, #8
 1174 00fa A360     		str	r3, [r4, #8]
 840:Drivers/STM32F7xx_HAL_Driver/Src/stm32f7xx_hal_hcd.c ****   }
 1175              		.loc 1 840 0
 1176 00fc 0068     		ldr	r0, [r0]
 1177              	.LVL94:
 1178 00fe FFF7FEFF 		bl	USB_HC_Halt
 1179              	.LVL95:
 1180 0102 8FE7     		b	.L74
 1181              	.L94:
 853:Drivers/STM32F7xx_HAL_Driver/Src/stm32f7xx_hal_hcd.c ****     USB_HC_Halt(hhcd->Instance, chnum);
 1182              		.loc 1 853 0
 1183 0104 E368     		ldr	r3, [r4, #12]
 1184 0106 43F00203 		orr	r3, r3, #2
 1185 010a E360     		str	r3, [r4, #12]
 854:Drivers/STM32F7xx_HAL_Driver/Src/stm32f7xx_hal_hcd.c ****     __HAL_HCD_CLEAR_HC_INT(chnum, USB_OTG_HCINT_FRMOR);
 1186              		.loc 1 854 0
 1187 010c 2946     		mov	r1, r5
 1188 010e 3068     		ldr	r0, [r6]
 1189 0110 FFF7FEFF 		bl	USB_HC_Halt
 1190              	.LVL96:
 855:Drivers/STM32F7xx_HAL_Driver/Src/stm32f7xx_hal_hcd.c ****   }
 1191              		.loc 1 855 0
 1192 0114 4FF40073 		mov	r3, #512
 1193 0118 A360     		str	r3, [r4, #8]
 1194 011a BCE7     		b	.L72
 1195              	.L95:
 875:Drivers/STM32F7xx_HAL_Driver/Src/stm32f7xx_hal_hcd.c ****       USB_HC_Halt(hhcd->Instance, chnum);
 1196              		.loc 1 875 0
 1197 011c E368     		ldr	r3, [r4, #12]
 1198 011e 43F00203 		orr	r3, r3, #2
 1199 0122 E360     		str	r3, [r4, #12]
 876:Drivers/STM32F7xx_HAL_Driver/Src/stm32f7xx_hal_hcd.c ****       __HAL_HCD_CLEAR_HC_INT(chnum, USB_OTG_HCINT_NAK);
 1200              		.loc 1 876 0
 1201 0124 2946     		mov	r1, r5
 1202 0126 3068     		ldr	r0, [r6]
ARM GAS  /tmp/ccGDlo4w.s 			page 46


 1203 0128 FFF7FEFF 		bl	USB_HC_Halt
 1204              	.LVL97:
 877:Drivers/STM32F7xx_HAL_Driver/Src/stm32f7xx_hal_hcd.c **** 
 1205              		.loc 1 877 0
 1206 012c 1023     		movs	r3, #16
 1207 012e A360     		str	r3, [r4, #8]
 1208 0130 A7E7     		b	.L82
 1209              	.L96:
 882:Drivers/STM32F7xx_HAL_Driver/Src/stm32f7xx_hal_hcd.c ****       hhcd->hc[chnum].urb_state = URB_DONE;
 1210              		.loc 1 882 0
 1211 0132 D7F80035 		ldr	r3, [r7, #1280]
 1212 0136 43F00053 		orr	r3, r3, #536870912
 1213 013a C7F80035 		str	r3, [r7, #1280]
 883:Drivers/STM32F7xx_HAL_Driver/Src/stm32f7xx_hal_hcd.c ****       HAL_HCD_HC_NotifyURBChange_Callback(hhcd, chnum, hhcd->hc[chnum].urb_state);
 1214              		.loc 1 883 0
 1215 013e 05EB8502 		add	r2, r5, r5, lsl #2
 1216 0142 D300     		lsls	r3, r2, #3
 1217 0144 3344     		add	r3, r3, r6
 1218 0146 0122     		movs	r2, #1
 1219 0148 83F85C20 		strb	r2, [r3, #92]
 884:Drivers/STM32F7xx_HAL_Driver/Src/stm32f7xx_hal_hcd.c ****     }
 1220              		.loc 1 884 0
 1221 014c 2946     		mov	r1, r5
 1222 014e 3046     		mov	r0, r6
 1223 0150 FFF7FEFF 		bl	HAL_HCD_HC_NotifyURBChange_Callback
 1224              	.LVL98:
 1225 0154 95E7     		b	.L82
 1226              	.L79:
 889:Drivers/STM32F7xx_HAL_Driver/Src/stm32f7xx_hal_hcd.c ****   {
 1227              		.loc 1 889 0
 1228 0156 A368     		ldr	r3, [r4, #8]
 1229 0158 13F0020F 		tst	r3, #2
 1230 015c 62D0     		beq	.L83
 891:Drivers/STM32F7xx_HAL_Driver/Src/stm32f7xx_hal_hcd.c **** 
 1231              		.loc 1 891 0
 1232 015e E368     		ldr	r3, [r4, #12]
 1233 0160 23F00203 		bic	r3, r3, #2
 1234 0164 E360     		str	r3, [r4, #12]
 893:Drivers/STM32F7xx_HAL_Driver/Src/stm32f7xx_hal_hcd.c ****     {
 1235              		.loc 1 893 0
 1236 0166 05EB8502 		add	r2, r5, r5, lsl #2
 1237 016a D300     		lsls	r3, r2, #3
 1238 016c 3344     		add	r3, r3, r6
 1239 016e 93F85D30 		ldrb	r3, [r3, #93]	@ zero_extendqisi2
 1240 0172 012B     		cmp	r3, #1
 1241 0174 20D0     		beq	.L98
 898:Drivers/STM32F7xx_HAL_Driver/Src/stm32f7xx_hal_hcd.c ****     {
 1242              		.loc 1 898 0
 1243 0176 052B     		cmp	r3, #5
 1244 0178 32D0     		beq	.L99
 903:Drivers/STM32F7xx_HAL_Driver/Src/stm32f7xx_hal_hcd.c ****             (hhcd->hc[chnum].state == HC_DATATGLERR))
 1245              		.loc 1 903 0
 1246 017a 082B     		cmp	r3, #8
 1247 017c 18BF     		it	ne
 1248 017e 062B     		cmpne	r3, #6
 1249 0180 3ED1     		bne	.L87
 906:Drivers/STM32F7xx_HAL_Driver/Src/stm32f7xx_hal_hcd.c ****       {
ARM GAS  /tmp/ccGDlo4w.s 			page 47


 1250              		.loc 1 906 0
 1251 0182 AA00     		lsls	r2, r5, #2
 1252 0184 2A44     		add	r2, r2, r5
 1253 0186 D300     		lsls	r3, r2, #3
 1254 0188 3344     		add	r3, r3, r6
 1255 018a 9A6D     		ldr	r2, [r3, #88]
 1256 018c 511C     		adds	r1, r2, #1
 1257 018e 9965     		str	r1, [r3, #88]
 1258 0190 032A     		cmp	r2, #3
 1259 0192 2DD9     		bls	.L88
 908:Drivers/STM32F7xx_HAL_Driver/Src/stm32f7xx_hal_hcd.c ****         hhcd->hc[chnum].urb_state = URB_ERROR;
 1260              		.loc 1 908 0
 1261 0194 AA00     		lsls	r2, r5, #2
 1262 0196 2A44     		add	r2, r2, r5
 1263 0198 D300     		lsls	r3, r2, #3
 1264 019a 3344     		add	r3, r3, r6
 1265 019c 0022     		movs	r2, #0
 1266 019e 9A65     		str	r2, [r3, #88]
 909:Drivers/STM32F7xx_HAL_Driver/Src/stm32f7xx_hal_hcd.c ****       }
 1267              		.loc 1 909 0
 1268 01a0 0422     		movs	r2, #4
 1269 01a2 83F85C20 		strb	r2, [r3, #92]
 1270              	.L89:
 917:Drivers/STM32F7xx_HAL_Driver/Src/stm32f7xx_hal_hcd.c ****       tmpreg &= ~USB_OTG_HCCHAR_CHDIS;
 1271              		.loc 1 917 0
 1272 01a6 D7F80035 		ldr	r3, [r7, #1280]
 1273              	.LVL99:
 918:Drivers/STM32F7xx_HAL_Driver/Src/stm32f7xx_hal_hcd.c ****       tmpreg |= USB_OTG_HCCHAR_CHENA;
 1274              		.loc 1 918 0
 1275 01aa 23F08043 		bic	r3, r3, #1073741824
 1276              	.LVL100:
 919:Drivers/STM32F7xx_HAL_Driver/Src/stm32f7xx_hal_hcd.c ****       USBx_HC(chnum)->HCCHAR = tmpreg;
 1277              		.loc 1 919 0
 1278 01ae 43F00043 		orr	r3, r3, #-2147483648
 1279              	.LVL101:
 920:Drivers/STM32F7xx_HAL_Driver/Src/stm32f7xx_hal_hcd.c ****     }
 1280              		.loc 1 920 0
 1281 01b2 C7F80035 		str	r3, [r7, #1280]
 1282 01b6 06E0     		b	.L85
 1283              	.LVL102:
 1284              	.L98:
 895:Drivers/STM32F7xx_HAL_Driver/Src/stm32f7xx_hal_hcd.c ****     }
 1285              		.loc 1 895 0
 1286 01b8 05EB8502 		add	r2, r5, r5, lsl #2
 1287 01bc D300     		lsls	r3, r2, #3
 1288 01be 3344     		add	r3, r3, r6
 1289 01c0 0122     		movs	r2, #1
 1290 01c2 83F85C20 		strb	r2, [r3, #92]
 1291              	.LVL103:
 1292              	.L85:
 931:Drivers/STM32F7xx_HAL_Driver/Src/stm32f7xx_hal_hcd.c ****     HAL_HCD_HC_NotifyURBChange_Callback(hhcd, chnum, hhcd->hc[chnum].urb_state);
 1293              		.loc 1 931 0
 1294 01c6 0223     		movs	r3, #2
 1295 01c8 A360     		str	r3, [r4, #8]
 932:Drivers/STM32F7xx_HAL_Driver/Src/stm32f7xx_hal_hcd.c ****   }
 1296              		.loc 1 932 0
 1297 01ca 05EB8502 		add	r2, r5, r5, lsl #2
ARM GAS  /tmp/ccGDlo4w.s 			page 48


 1298 01ce D300     		lsls	r3, r2, #3
 1299 01d0 3344     		add	r3, r3, r6
 1300 01d2 93F85C20 		ldrb	r2, [r3, #92]	@ zero_extendqisi2
 1301 01d6 2946     		mov	r1, r5
 1302 01d8 3046     		mov	r0, r6
 1303 01da FFF7FEFF 		bl	HAL_HCD_HC_NotifyURBChange_Callback
 1304              	.LVL104:
 1305 01de 5AE7     		b	.L72
 1306              	.LVL105:
 1307              	.L99:
 900:Drivers/STM32F7xx_HAL_Driver/Src/stm32f7xx_hal_hcd.c ****     }
 1308              		.loc 1 900 0
 1309 01e0 05EB8502 		add	r2, r5, r5, lsl #2
 1310 01e4 D300     		lsls	r3, r2, #3
 1311 01e6 3344     		add	r3, r3, r6
 1312 01e8 0522     		movs	r2, #5
 1313 01ea 83F85C20 		strb	r2, [r3, #92]
 1314 01ee EAE7     		b	.L85
 1315              	.L88:
 913:Drivers/STM32F7xx_HAL_Driver/Src/stm32f7xx_hal_hcd.c ****       }
 1316              		.loc 1 913 0
 1317 01f0 05EB8502 		add	r2, r5, r5, lsl #2
 1318 01f4 D300     		lsls	r3, r2, #3
 1319 01f6 3344     		add	r3, r3, r6
 1320 01f8 0222     		movs	r2, #2
 1321 01fa 83F85C20 		strb	r2, [r3, #92]
 1322 01fe D2E7     		b	.L89
 1323              	.L87:
 922:Drivers/STM32F7xx_HAL_Driver/Src/stm32f7xx_hal_hcd.c ****     {
 1324              		.loc 1 922 0
 1325 0200 032B     		cmp	r3, #3
 1326 0202 E0D1     		bne	.L85
 924:Drivers/STM32F7xx_HAL_Driver/Src/stm32f7xx_hal_hcd.c ****        /* re-activate the channel  */
 1327              		.loc 1 924 0
 1328 0204 05EB8502 		add	r2, r5, r5, lsl #2
 1329 0208 D300     		lsls	r3, r2, #3
 1330 020a 3344     		add	r3, r3, r6
 1331 020c 0222     		movs	r2, #2
 1332 020e 83F85C20 		strb	r2, [r3, #92]
 926:Drivers/STM32F7xx_HAL_Driver/Src/stm32f7xx_hal_hcd.c ****       tmpreg &= ~USB_OTG_HCCHAR_CHDIS;
 1333              		.loc 1 926 0
 1334 0212 D7F80035 		ldr	r3, [r7, #1280]
 1335              	.LVL106:
 927:Drivers/STM32F7xx_HAL_Driver/Src/stm32f7xx_hal_hcd.c ****       tmpreg |= USB_OTG_HCCHAR_CHENA;
 1336              		.loc 1 927 0
 1337 0216 23F08043 		bic	r3, r3, #1073741824
 1338              	.LVL107:
 928:Drivers/STM32F7xx_HAL_Driver/Src/stm32f7xx_hal_hcd.c ****       USBx_HC(chnum)->HCCHAR = tmpreg;
 1339              		.loc 1 928 0
 1340 021a 43F00043 		orr	r3, r3, #-2147483648
 1341              	.LVL108:
 929:Drivers/STM32F7xx_HAL_Driver/Src/stm32f7xx_hal_hcd.c ****     }
 1342              		.loc 1 929 0
 1343 021e C7F80035 		str	r3, [r7, #1280]
 1344 0222 D0E7     		b	.L85
 1345              	.LVL109:
 1346              	.L83:
ARM GAS  /tmp/ccGDlo4w.s 			page 49


 935:Drivers/STM32F7xx_HAL_Driver/Src/stm32f7xx_hal_hcd.c ****   {
 1347              		.loc 1 935 0
 1348 0224 A368     		ldr	r3, [r4, #8]
 1349 0226 13F0800F 		tst	r3, #128
 1350 022a 21D1     		bne	.L100
 943:Drivers/STM32F7xx_HAL_Driver/Src/stm32f7xx_hal_hcd.c ****   {
 1351              		.loc 1 943 0
 1352 022c A368     		ldr	r3, [r4, #8]
 1353 022e 13F0100F 		tst	r3, #16
 1354 0232 3FF430AF 		beq	.L72
 945:Drivers/STM32F7xx_HAL_Driver/Src/stm32f7xx_hal_hcd.c ****     {
 1355              		.loc 1 945 0
 1356 0236 05EB8502 		add	r2, r5, r5, lsl #2
 1357 023a D300     		lsls	r3, r2, #3
 1358 023c 1A46     		mov	r2, r3
 1359 023e 3344     		add	r3, r3, r6
 1360 0240 93F83F30 		ldrb	r3, [r3, #63]	@ zero_extendqisi2
 1361 0244 032B     		cmp	r3, #3
 1362 0246 2BD0     		beq	.L101
 951:Drivers/STM32F7xx_HAL_Driver/Src/stm32f7xx_hal_hcd.c ****              (hhcd->hc[chnum].ep_type == EP_TYPE_BULK))
 1363              		.loc 1 951 0
 1364 0248 022B     		cmp	r3, #2
 1365 024a 14BF     		ite	ne
 1366 024c 0022     		movne	r2, #0
 1367 024e 0122     		moveq	r2, #1
 1368 0250 002B     		cmp	r3, #0
 1369 0252 14BF     		ite	ne
 1370 0254 1346     		movne	r3, r2
 1371 0256 0123     		moveq	r3, #1
 1372 0258 3BB1     		cbz	r3, .L92
 954:Drivers/STM32F7xx_HAL_Driver/Src/stm32f7xx_hal_hcd.c ****        if (!hhcd->Init.dma_enable)
 1373              		.loc 1 954 0
 1374 025a 05EB8502 		add	r2, r5, r5, lsl #2
 1375 025e D300     		lsls	r3, r2, #3
 1376 0260 3344     		add	r3, r3, r6
 1377 0262 0022     		movs	r2, #0
 1378 0264 9A65     		str	r2, [r3, #88]
 955:Drivers/STM32F7xx_HAL_Driver/Src/stm32f7xx_hal_hcd.c ****        {
 1379              		.loc 1 955 0
 1380 0266 3369     		ldr	r3, [r6, #16]
 1381 0268 4BB3     		cbz	r3, .L102
 1382              	.L92:
 962:Drivers/STM32F7xx_HAL_Driver/Src/stm32f7xx_hal_hcd.c ****   }
 1383              		.loc 1 962 0
 1384 026a 1023     		movs	r3, #16
 1385 026c A360     		str	r3, [r4, #8]
 964:Drivers/STM32F7xx_HAL_Driver/Src/stm32f7xx_hal_hcd.c **** 
 1386              		.loc 1 964 0
 1387 026e 12E7     		b	.L72
 1388              	.L100:
 937:Drivers/STM32F7xx_HAL_Driver/Src/stm32f7xx_hal_hcd.c ****      hhcd->hc[chnum].ErrCnt++;
 1389              		.loc 1 937 0
 1390 0270 E368     		ldr	r3, [r4, #12]
 1391 0272 43F00203 		orr	r3, r3, #2
 1392 0276 E360     		str	r3, [r4, #12]
 938:Drivers/STM32F7xx_HAL_Driver/Src/stm32f7xx_hal_hcd.c ****      hhcd->hc[chnum].state = HC_XACTERR;
 1393              		.loc 1 938 0
ARM GAS  /tmp/ccGDlo4w.s 			page 50


 1394 0278 AB00     		lsls	r3, r5, #2
 1395 027a 5919     		adds	r1, r3, r5
 1396 027c CA00     		lsls	r2, r1, #3
 1397 027e 3244     		add	r2, r2, r6
 1398 0280 916D     		ldr	r1, [r2, #88]
 1399 0282 0131     		adds	r1, r1, #1
 1400 0284 9165     		str	r1, [r2, #88]
 939:Drivers/STM32F7xx_HAL_Driver/Src/stm32f7xx_hal_hcd.c ****      USB_HC_Halt(hhcd->Instance, chnum);
 1401              		.loc 1 939 0
 1402 0286 2B44     		add	r3, r3, r5
 1403 0288 DA00     		lsls	r2, r3, #3
 1404 028a 3244     		add	r2, r2, r6
 1405 028c 0623     		movs	r3, #6
 1406 028e 82F85D30 		strb	r3, [r2, #93]
 940:Drivers/STM32F7xx_HAL_Driver/Src/stm32f7xx_hal_hcd.c ****      __HAL_HCD_CLEAR_HC_INT(chnum, USB_OTG_HCINT_TXERR);
 1407              		.loc 1 940 0
 1408 0292 2946     		mov	r1, r5
 1409 0294 3068     		ldr	r0, [r6]
 1410 0296 FFF7FEFF 		bl	USB_HC_Halt
 1411              	.LVL110:
 941:Drivers/STM32F7xx_HAL_Driver/Src/stm32f7xx_hal_hcd.c ****   }
 1412              		.loc 1 941 0
 1413 029a 8023     		movs	r3, #128
 1414 029c A360     		str	r3, [r4, #8]
 1415 029e FAE6     		b	.L72
 1416              	.L101:
 947:Drivers/STM32F7xx_HAL_Driver/Src/stm32f7xx_hal_hcd.c ****       __HAL_HCD_UNMASK_HALT_HC_INT(chnum);
 1417              		.loc 1 947 0
 1418 02a0 05EB8502 		add	r2, r5, r5, lsl #2
 1419 02a4 D300     		lsls	r3, r2, #3
 1420 02a6 3344     		add	r3, r3, r6
 1421 02a8 0022     		movs	r2, #0
 1422 02aa 9A65     		str	r2, [r3, #88]
 948:Drivers/STM32F7xx_HAL_Driver/Src/stm32f7xx_hal_hcd.c ****       USB_HC_Halt(hhcd->Instance, chnum);
 1423              		.loc 1 948 0
 1424 02ac E368     		ldr	r3, [r4, #12]
 1425 02ae 43F00203 		orr	r3, r3, #2
 1426 02b2 E360     		str	r3, [r4, #12]
 949:Drivers/STM32F7xx_HAL_Driver/Src/stm32f7xx_hal_hcd.c ****     }
 1427              		.loc 1 949 0
 1428 02b4 2946     		mov	r1, r5
 1429 02b6 3068     		ldr	r0, [r6]
 1430 02b8 FFF7FEFF 		bl	USB_HC_Halt
 1431              	.LVL111:
 1432 02bc D5E7     		b	.L92
 1433              	.L102:
 957:Drivers/STM32F7xx_HAL_Driver/Src/stm32f7xx_hal_hcd.c ****          __HAL_HCD_UNMASK_HALT_HC_INT(chnum);
 1434              		.loc 1 957 0
 1435 02be 05EB8502 		add	r2, r5, r5, lsl #2
 1436 02c2 D300     		lsls	r3, r2, #3
 1437 02c4 3344     		add	r3, r3, r6
 1438 02c6 0322     		movs	r2, #3
 1439 02c8 83F85D20 		strb	r2, [r3, #93]
 958:Drivers/STM32F7xx_HAL_Driver/Src/stm32f7xx_hal_hcd.c ****          USB_HC_Halt(hhcd->Instance, chnum);
 1440              		.loc 1 958 0
 1441 02cc E368     		ldr	r3, [r4, #12]
 1442 02ce 43F00203 		orr	r3, r3, #2
ARM GAS  /tmp/ccGDlo4w.s 			page 51


 1443 02d2 E360     		str	r3, [r4, #12]
 959:Drivers/STM32F7xx_HAL_Driver/Src/stm32f7xx_hal_hcd.c ****        }
 1444              		.loc 1 959 0
 1445 02d4 2946     		mov	r1, r5
 1446 02d6 3068     		ldr	r0, [r6]
 1447 02d8 FFF7FEFF 		bl	USB_HC_Halt
 1448              	.LVL112:
 1449 02dc C5E7     		b	.L92
 1450              		.cfi_endproc
 1451              	.LFE161:
 1453              		.section	.text.HCD_HC_OUT_IRQHandler,"ax",%progbits
 1454              		.align	1
 1455              		.syntax unified
 1456              		.thumb
 1457              		.thumb_func
 1458              		.fpu fpv5-sp-d16
 1460              	HCD_HC_OUT_IRQHandler:
 1461              	.LFB162:
 974:Drivers/STM32F7xx_HAL_Driver/Src/stm32f7xx_hal_hcd.c ****   USB_OTG_GlobalTypeDef *USBx = hhcd->Instance;
 1462              		.loc 1 974 0
 1463              		.cfi_startproc
 1464              		@ args = 0, pretend = 0, frame = 0
 1465              		@ frame_needed = 0, uses_anonymous_args = 0
 1466              	.LVL113:
 1467 0000 F8B5     		push	{r3, r4, r5, r6, r7, lr}
 1468              	.LCFI19:
 1469              		.cfi_def_cfa_offset 24
 1470              		.cfi_offset 3, -24
 1471              		.cfi_offset 4, -20
 1472              		.cfi_offset 5, -16
 1473              		.cfi_offset 6, -12
 1474              		.cfi_offset 7, -8
 1475              		.cfi_offset 14, -4
 975:Drivers/STM32F7xx_HAL_Driver/Src/stm32f7xx_hal_hcd.c ****   uint32_t tmpreg = 0;
 1476              		.loc 1 975 0
 1477 0002 0368     		ldr	r3, [r0]
 1478              	.LVL114:
 978:Drivers/STM32F7xx_HAL_Driver/Src/stm32f7xx_hal_hcd.c ****   {
 1479              		.loc 1 978 0
 1480 0004 03EB4113 		add	r3, r3, r1, lsl #5
 1481              	.LVL115:
 1482 0008 03F5A064 		add	r4, r3, #1280
 1483 000c A268     		ldr	r2, [r4, #8]
 1484 000e 12F0040F 		tst	r2, #4
 1485 0012 24D1     		bne	.L123
 1486 0014 0E46     		mov	r6, r1
 1487 0016 0546     		mov	r5, r0
 983:Drivers/STM32F7xx_HAL_Driver/Src/stm32f7xx_hal_hcd.c ****   {
 1488              		.loc 1 983 0
 1489 0018 A268     		ldr	r2, [r4, #8]
 1490 001a 12F0200F 		tst	r2, #32
 1491 001e 25D0     		beq	.L106
 985:Drivers/STM32F7xx_HAL_Driver/Src/stm32f7xx_hal_hcd.c ****     if( hhcd->hc[chnum].do_ping == 1)
 1492              		.loc 1 985 0
 1493 0020 2023     		movs	r3, #32
 1494 0022 A360     		str	r3, [r4, #8]
 1495              	.LVL116:
ARM GAS  /tmp/ccGDlo4w.s 			page 52


 986:Drivers/STM32F7xx_HAL_Driver/Src/stm32f7xx_hal_hcd.c ****     {
 1496              		.loc 1 986 0
 1497 0024 01EB8102 		add	r2, r1, r1, lsl #2
 1498 0028 D300     		lsls	r3, r2, #3
 1499 002a 1A46     		mov	r2, r3
 1500 002c 0344     		add	r3, r3, r0
 1501 002e 93F83D30 		ldrb	r3, [r3, #61]	@ zero_extendqisi2
 1502 0032 012B     		cmp	r3, #1
 1503 0034 19D1     		bne	.L103
 988:Drivers/STM32F7xx_HAL_Driver/Src/stm32f7xx_hal_hcd.c ****       hhcd->hc[chnum].urb_state  = URB_NOTREADY;
 1504              		.loc 1 988 0
 1505 0036 8B00     		lsls	r3, r1, #2
 1506 0038 0244     		add	r2, r2, r0
 1507 003a 0021     		movs	r1, #0
 1508              	.LVL117:
 1509 003c 82F83D10 		strb	r1, [r2, #61]
 989:Drivers/STM32F7xx_HAL_Driver/Src/stm32f7xx_hal_hcd.c ****       __HAL_HCD_UNMASK_HALT_HC_INT(chnum);
 1510              		.loc 1 989 0
 1511 0040 3344     		add	r3, r3, r6
 1512 0042 DA00     		lsls	r2, r3, #3
 1513 0044 0244     		add	r2, r2, r0
 1514 0046 0223     		movs	r3, #2
 1515 0048 82F85C30 		strb	r3, [r2, #92]
 990:Drivers/STM32F7xx_HAL_Driver/Src/stm32f7xx_hal_hcd.c ****       USB_HC_Halt(hhcd->Instance, chnum);
 1516              		.loc 1 990 0
 1517 004c E368     		ldr	r3, [r4, #12]
 1518 004e 43F00203 		orr	r3, r3, #2
 1519 0052 E360     		str	r3, [r4, #12]
 991:Drivers/STM32F7xx_HAL_Driver/Src/stm32f7xx_hal_hcd.c ****     }
 1520              		.loc 1 991 0
 1521 0054 3146     		mov	r1, r6
 1522 0056 0068     		ldr	r0, [r0]
 1523              	.LVL118:
 1524 0058 FFF7FEFF 		bl	USB_HC_Halt
 1525              	.LVL119:
 1526 005c 05E0     		b	.L103
 1527              	.LVL120:
 1528              	.L123:
 980:Drivers/STM32F7xx_HAL_Driver/Src/stm32f7xx_hal_hcd.c ****     __HAL_HCD_UNMASK_HALT_HC_INT(chnum);
 1529              		.loc 1 980 0
 1530 005e 0423     		movs	r3, #4
 1531 0060 A360     		str	r3, [r4, #8]
 1532              	.LVL121:
 981:Drivers/STM32F7xx_HAL_Driver/Src/stm32f7xx_hal_hcd.c ****   }
 1533              		.loc 1 981 0
 1534 0062 E368     		ldr	r3, [r4, #12]
 1535 0064 43F00203 		orr	r3, r3, #2
 1536 0068 E360     		str	r3, [r4, #12]
 1537              	.LVL122:
 1538              	.L103:
1115:Drivers/STM32F7xx_HAL_Driver/Src/stm32f7xx_hal_hcd.c **** 
 1539              		.loc 1 1115 0
 1540 006a F8BD     		pop	{r3, r4, r5, r6, r7, pc}
 1541              	.LVL123:
 1542              	.L106:
 995:Drivers/STM32F7xx_HAL_Driver/Src/stm32f7xx_hal_hcd.c ****   {
 1543              		.loc 1 995 0
ARM GAS  /tmp/ccGDlo4w.s 			page 53


 1544 006c A268     		ldr	r2, [r4, #8]
 1545 006e 12F0400F 		tst	r2, #64
 1546 0072 34D1     		bne	.L124
1005:Drivers/STM32F7xx_HAL_Driver/Src/stm32f7xx_hal_hcd.c ****   {
 1547              		.loc 1 1005 0
 1548 0074 A268     		ldr	r2, [r4, #8]
 1549 0076 12F4007F 		tst	r2, #512
 1550 007a 4AD1     		bne	.L125
1012:Drivers/STM32F7xx_HAL_Driver/Src/stm32f7xx_hal_hcd.c ****   {
 1551              		.loc 1 1012 0
 1552 007c A268     		ldr	r2, [r4, #8]
 1553 007e 12F0010F 		tst	r2, #1
 1554 0082 51D1     		bne	.L126
1022:Drivers/STM32F7xx_HAL_Driver/Src/stm32f7xx_hal_hcd.c ****   {
 1555              		.loc 1 1022 0
 1556 0084 A268     		ldr	r2, [r4, #8]
 1557 0086 12F0080F 		tst	r2, #8
 1558 008a 62D1     		bne	.L127
1030:Drivers/STM32F7xx_HAL_Driver/Src/stm32f7xx_hal_hcd.c ****   {
 1559              		.loc 1 1030 0
 1560 008c A268     		ldr	r2, [r4, #8]
 1561 008e 12F0100F 		tst	r2, #16
 1562 0092 6FD0     		beq	.L111
1032:Drivers/STM32F7xx_HAL_Driver/Src/stm32f7xx_hal_hcd.c ****     hhcd->hc[chnum].state = HC_NAK;
 1563              		.loc 1 1032 0
 1564 0094 8A00     		lsls	r2, r1, #2
 1565 0096 0A44     		add	r2, r2, r1
 1566 0098 D300     		lsls	r3, r2, #3
 1567 009a 0344     		add	r3, r3, r0
 1568 009c 0022     		movs	r2, #0
 1569 009e 9A65     		str	r2, [r3, #88]
 1570              	.LVL124:
1033:Drivers/STM32F7xx_HAL_Driver/Src/stm32f7xx_hal_hcd.c **** 
 1571              		.loc 1 1033 0
 1572 00a0 0322     		movs	r2, #3
 1573 00a2 83F85D20 		strb	r2, [r3, #93]
1035:Drivers/STM32F7xx_HAL_Driver/Src/stm32f7xx_hal_hcd.c ****     {
 1574              		.loc 1 1035 0
 1575 00a6 93F83D30 		ldrb	r3, [r3, #61]	@ zero_extendqisi2
 1576 00aa 6BB9     		cbnz	r3, .L112
1037:Drivers/STM32F7xx_HAL_Driver/Src/stm32f7xx_hal_hcd.c ****       {
 1577              		.loc 1 1037 0
 1578 00ac 01EB8102 		add	r2, r1, r1, lsl #2
 1579 00b0 D300     		lsls	r3, r2, #3
 1580 00b2 0344     		add	r3, r3, r0
 1581 00b4 93F83C30 		ldrb	r3, [r3, #60]	@ zero_extendqisi2
 1582 00b8 33B9     		cbnz	r3, .L112
1039:Drivers/STM32F7xx_HAL_Driver/Src/stm32f7xx_hal_hcd.c ****       }
 1583              		.loc 1 1039 0
 1584 00ba 01EB8102 		add	r2, r1, r1, lsl #2
 1585 00be D300     		lsls	r3, r2, #3
 1586 00c0 0344     		add	r3, r3, r0
 1587 00c2 0122     		movs	r2, #1
 1588 00c4 83F83D20 		strb	r2, [r3, #61]
 1589              	.L112:
1043:Drivers/STM32F7xx_HAL_Driver/Src/stm32f7xx_hal_hcd.c ****     USB_HC_Halt(hhcd->Instance, chnum);
 1590              		.loc 1 1043 0
ARM GAS  /tmp/ccGDlo4w.s 			page 54


 1591 00c8 E368     		ldr	r3, [r4, #12]
 1592 00ca 43F00203 		orr	r3, r3, #2
 1593 00ce E360     		str	r3, [r4, #12]
1044:Drivers/STM32F7xx_HAL_Driver/Src/stm32f7xx_hal_hcd.c ****     __HAL_HCD_CLEAR_HC_INT(chnum, USB_OTG_HCINT_NAK);
 1594              		.loc 1 1044 0
 1595 00d0 3146     		mov	r1, r6
 1596              	.LVL125:
 1597 00d2 2868     		ldr	r0, [r5]
 1598              	.LVL126:
 1599 00d4 FFF7FEFF 		bl	USB_HC_Halt
 1600              	.LVL127:
1045:Drivers/STM32F7xx_HAL_Driver/Src/stm32f7xx_hal_hcd.c ****   }
 1601              		.loc 1 1045 0
 1602 00d8 1023     		movs	r3, #16
 1603 00da A360     		str	r3, [r4, #8]
 1604 00dc C5E7     		b	.L103
 1605              	.LVL128:
 1606              	.L124:
 997:Drivers/STM32F7xx_HAL_Driver/Src/stm32f7xx_hal_hcd.c ****     hhcd->hc[chnum].do_ping = 1;
 1607              		.loc 1 997 0
 1608 00de 8B00     		lsls	r3, r1, #2
 1609 00e0 5918     		adds	r1, r3, r1
 1610              	.LVL129:
 1611 00e2 CA00     		lsls	r2, r1, #3
 1612 00e4 0244     		add	r2, r2, r0
 1613 00e6 0421     		movs	r1, #4
 1614 00e8 82F85D10 		strb	r1, [r2, #93]
 1615              	.LVL130:
 998:Drivers/STM32F7xx_HAL_Driver/Src/stm32f7xx_hal_hcd.c ****     hhcd->hc[chnum].ErrCnt= 0;
 1616              		.loc 1 998 0
 1617 00ec 0121     		movs	r1, #1
 1618 00ee 82F83D10 		strb	r1, [r2, #61]
 999:Drivers/STM32F7xx_HAL_Driver/Src/stm32f7xx_hal_hcd.c ****     __HAL_HCD_UNMASK_HALT_HC_INT(chnum);
 1619              		.loc 1 999 0
 1620 00f2 3344     		add	r3, r3, r6
 1621 00f4 DA00     		lsls	r2, r3, #3
 1622 00f6 0244     		add	r2, r2, r0
 1623 00f8 0023     		movs	r3, #0
 1624 00fa 9365     		str	r3, [r2, #88]
1000:Drivers/STM32F7xx_HAL_Driver/Src/stm32f7xx_hal_hcd.c ****     USB_HC_Halt(hhcd->Instance, chnum);
 1625              		.loc 1 1000 0
 1626 00fc E368     		ldr	r3, [r4, #12]
 1627 00fe 43F00203 		orr	r3, r3, #2
 1628 0102 E360     		str	r3, [r4, #12]
1001:Drivers/STM32F7xx_HAL_Driver/Src/stm32f7xx_hal_hcd.c ****     __HAL_HCD_CLEAR_HC_INT(chnum, USB_OTG_HCINT_NYET);
 1629              		.loc 1 1001 0
 1630 0104 3146     		mov	r1, r6
 1631 0106 0068     		ldr	r0, [r0]
 1632              	.LVL131:
 1633 0108 FFF7FEFF 		bl	USB_HC_Halt
 1634              	.LVL132:
1002:Drivers/STM32F7xx_HAL_Driver/Src/stm32f7xx_hal_hcd.c ****   }
 1635              		.loc 1 1002 0
 1636 010c 4023     		movs	r3, #64
 1637 010e A360     		str	r3, [r4, #8]
 1638 0110 ABE7     		b	.L103
 1639              	.LVL133:
ARM GAS  /tmp/ccGDlo4w.s 			page 55


 1640              	.L125:
1007:Drivers/STM32F7xx_HAL_Driver/Src/stm32f7xx_hal_hcd.c ****     USB_HC_Halt(hhcd->Instance, chnum);
 1641              		.loc 1 1007 0
 1642 0112 E368     		ldr	r3, [r4, #12]
 1643 0114 43F00203 		orr	r3, r3, #2
 1644 0118 E360     		str	r3, [r4, #12]
 1645              	.LVL134:
1008:Drivers/STM32F7xx_HAL_Driver/Src/stm32f7xx_hal_hcd.c ****     __HAL_HCD_CLEAR_HC_INT(chnum, USB_OTG_HCINT_FRMOR);
 1646              		.loc 1 1008 0
 1647 011a 0068     		ldr	r0, [r0]
 1648              	.LVL135:
 1649 011c FFF7FEFF 		bl	USB_HC_Halt
 1650              	.LVL136:
1009:Drivers/STM32F7xx_HAL_Driver/Src/stm32f7xx_hal_hcd.c ****   }
 1651              		.loc 1 1009 0
 1652 0120 4FF40073 		mov	r3, #512
 1653 0124 A360     		str	r3, [r4, #8]
 1654 0126 A0E7     		b	.L103
 1655              	.LVL137:
 1656              	.L126:
1014:Drivers/STM32F7xx_HAL_Driver/Src/stm32f7xx_hal_hcd.c ****     __HAL_HCD_UNMASK_HALT_HC_INT(chnum);
 1657              		.loc 1 1014 0
 1658 0128 8F00     		lsls	r7, r1, #2
 1659 012a 7A18     		adds	r2, r7, r1
 1660 012c D300     		lsls	r3, r2, #3
 1661 012e 0344     		add	r3, r3, r0
 1662 0130 0022     		movs	r2, #0
 1663 0132 9A65     		str	r2, [r3, #88]
 1664              	.LVL138:
1015:Drivers/STM32F7xx_HAL_Driver/Src/stm32f7xx_hal_hcd.c ****     USB_HC_Halt(hhcd->Instance, chnum);
 1665              		.loc 1 1015 0
 1666 0134 E368     		ldr	r3, [r4, #12]
 1667 0136 43F00203 		orr	r3, r3, #2
 1668 013a E360     		str	r3, [r4, #12]
1016:Drivers/STM32F7xx_HAL_Driver/Src/stm32f7xx_hal_hcd.c ****     __HAL_HCD_CLEAR_HC_INT(chnum, USB_OTG_HCINT_XFRC);
 1669              		.loc 1 1016 0
 1670 013c 0068     		ldr	r0, [r0]
 1671              	.LVL139:
 1672 013e FFF7FEFF 		bl	USB_HC_Halt
 1673              	.LVL140:
1017:Drivers/STM32F7xx_HAL_Driver/Src/stm32f7xx_hal_hcd.c ****     hhcd->hc[chnum].state = HC_XFRC;
 1674              		.loc 1 1017 0
 1675 0142 0123     		movs	r3, #1
 1676 0144 A360     		str	r3, [r4, #8]
1018:Drivers/STM32F7xx_HAL_Driver/Src/stm32f7xx_hal_hcd.c **** 
 1677              		.loc 1 1018 0
 1678 0146 B919     		adds	r1, r7, r6
 1679 0148 C800     		lsls	r0, r1, #3
 1680 014a 2844     		add	r0, r0, r5
 1681 014c 80F85D30 		strb	r3, [r0, #93]
 1682 0150 8BE7     		b	.L103
 1683              	.LVL141:
 1684              	.L127:
1024:Drivers/STM32F7xx_HAL_Driver/Src/stm32f7xx_hal_hcd.c ****     __HAL_HCD_UNMASK_HALT_HC_INT(chnum);
 1685              		.loc 1 1024 0
 1686 0152 0823     		movs	r3, #8
 1687 0154 A360     		str	r3, [r4, #8]
ARM GAS  /tmp/ccGDlo4w.s 			page 56


 1688              	.LVL142:
1025:Drivers/STM32F7xx_HAL_Driver/Src/stm32f7xx_hal_hcd.c ****     USB_HC_Halt(hhcd->Instance, chnum);
 1689              		.loc 1 1025 0
 1690 0156 E368     		ldr	r3, [r4, #12]
 1691 0158 43F00203 		orr	r3, r3, #2
 1692 015c E360     		str	r3, [r4, #12]
1026:Drivers/STM32F7xx_HAL_Driver/Src/stm32f7xx_hal_hcd.c ****     hhcd->hc[chnum].state = HC_STALL;
 1693              		.loc 1 1026 0
 1694 015e 0068     		ldr	r0, [r0]
 1695              	.LVL143:
 1696 0160 FFF7FEFF 		bl	USB_HC_Halt
 1697              	.LVL144:
1027:Drivers/STM32F7xx_HAL_Driver/Src/stm32f7xx_hal_hcd.c ****   }
 1698              		.loc 1 1027 0
 1699 0164 06EB8601 		add	r1, r6, r6, lsl #2
 1700 0168 C800     		lsls	r0, r1, #3
 1701 016a 2844     		add	r0, r0, r5
 1702 016c 0523     		movs	r3, #5
 1703 016e 80F85D30 		strb	r3, [r0, #93]
 1704 0172 7AE7     		b	.L103
 1705              	.LVL145:
 1706              	.L111:
1048:Drivers/STM32F7xx_HAL_Driver/Src/stm32f7xx_hal_hcd.c ****   {
 1707              		.loc 1 1048 0
 1708 0174 A268     		ldr	r2, [r4, #8]
 1709 0176 12F0800F 		tst	r2, #128
 1710 017a 38D1     		bne	.L128
1056:Drivers/STM32F7xx_HAL_Driver/Src/stm32f7xx_hal_hcd.c ****   {
 1711              		.loc 1 1056 0
 1712 017c A268     		ldr	r2, [r4, #8]
 1713 017e 12F4806F 		tst	r2, #1024
 1714 0182 45D1     		bne	.L129
1065:Drivers/STM32F7xx_HAL_Driver/Src/stm32f7xx_hal_hcd.c ****   {
 1715              		.loc 1 1065 0
 1716 0184 A268     		ldr	r2, [r4, #8]
 1717 0186 12F0020F 		tst	r2, #2
 1718 018a 3FF46EAF 		beq	.L103
1067:Drivers/STM32F7xx_HAL_Driver/Src/stm32f7xx_hal_hcd.c **** 
 1719              		.loc 1 1067 0
 1720 018e E268     		ldr	r2, [r4, #12]
 1721 0190 22F00202 		bic	r2, r2, #2
 1722 0194 E260     		str	r2, [r4, #12]
 1723              	.LVL146:
1069:Drivers/STM32F7xx_HAL_Driver/Src/stm32f7xx_hal_hcd.c ****     {
 1724              		.loc 1 1069 0
 1725 0196 01EB8101 		add	r1, r1, r1, lsl #2
 1726              	.LVL147:
 1727 019a CA00     		lsls	r2, r1, #3
 1728 019c 1146     		mov	r1, r2
 1729 019e 0244     		add	r2, r2, r0
 1730 01a0 92F85D20 		ldrb	r2, [r2, #93]	@ zero_extendqisi2
 1731 01a4 012A     		cmp	r2, #1
 1732 01a6 47D0     		beq	.L130
1077:Drivers/STM32F7xx_HAL_Driver/Src/stm32f7xx_hal_hcd.c ****     {
 1733              		.loc 1 1077 0
 1734 01a8 032A     		cmp	r2, #3
 1735 01aa 64D0     		beq	.L131
ARM GAS  /tmp/ccGDlo4w.s 			page 57


1082:Drivers/STM32F7xx_HAL_Driver/Src/stm32f7xx_hal_hcd.c ****     {
 1736              		.loc 1 1082 0
 1737 01ac 042A     		cmp	r2, #4
 1738 01ae 6AD0     		beq	.L132
1087:Drivers/STM32F7xx_HAL_Driver/Src/stm32f7xx_hal_hcd.c ****     {
 1739              		.loc 1 1087 0
 1740 01b0 052A     		cmp	r2, #5
 1741 01b2 70D0     		beq	.L133
1092:Drivers/STM32F7xx_HAL_Driver/Src/stm32f7xx_hal_hcd.c ****             (hhcd->hc[chnum].state == HC_DATATGLERR))
 1742              		.loc 1 1092 0
 1743 01b4 082A     		cmp	r2, #8
 1744 01b6 18BF     		it	ne
 1745 01b8 062A     		cmpne	r2, #6
 1746 01ba 46D1     		bne	.L116
1095:Drivers/STM32F7xx_HAL_Driver/Src/stm32f7xx_hal_hcd.c ****       {
 1747              		.loc 1 1095 0
 1748 01bc 2822     		movs	r2, #40
 1749 01be 02FB0602 		mla	r2, r2, r6, r0
 1750 01c2 916D     		ldr	r1, [r2, #88]
 1751 01c4 481C     		adds	r0, r1, #1
 1752              	.LVL148:
 1753 01c6 9065     		str	r0, [r2, #88]
 1754 01c8 0329     		cmp	r1, #3
 1755 01ca 6AD9     		bls	.L120
1097:Drivers/STM32F7xx_HAL_Driver/Src/stm32f7xx_hal_hcd.c ****         hhcd->hc[chnum].urb_state = URB_ERROR;
 1756              		.loc 1 1097 0
 1757 01cc 2822     		movs	r2, #40
 1758 01ce 02FB0652 		mla	r2, r2, r6, r5
 1759 01d2 0021     		movs	r1, #0
 1760 01d4 9165     		str	r1, [r2, #88]
1098:Drivers/STM32F7xx_HAL_Driver/Src/stm32f7xx_hal_hcd.c ****       }
 1761              		.loc 1 1098 0
 1762 01d6 0421     		movs	r1, #4
 1763 01d8 82F85C10 		strb	r1, [r2, #92]
 1764              	.L121:
1106:Drivers/STM32F7xx_HAL_Driver/Src/stm32f7xx_hal_hcd.c ****       tmpreg &= ~USB_OTG_HCCHAR_CHDIS;
 1765              		.loc 1 1106 0
 1766 01dc D3F80025 		ldr	r2, [r3, #1280]
 1767              	.LVL149:
1107:Drivers/STM32F7xx_HAL_Driver/Src/stm32f7xx_hal_hcd.c ****       tmpreg |= USB_OTG_HCCHAR_CHENA;
 1768              		.loc 1 1107 0
 1769 01e0 22F08042 		bic	r2, r2, #1073741824
 1770              	.LVL150:
1108:Drivers/STM32F7xx_HAL_Driver/Src/stm32f7xx_hal_hcd.c ****       USBx_HC(chnum)->HCCHAR = tmpreg;
 1771              		.loc 1 1108 0
 1772 01e4 42F00042 		orr	r2, r2, #-2147483648
 1773              	.LVL151:
1109:Drivers/STM32F7xx_HAL_Driver/Src/stm32f7xx_hal_hcd.c ****     }
 1774              		.loc 1 1109 0
 1775 01e8 C3F80025 		str	r2, [r3, #1280]
 1776 01ec 2DE0     		b	.L116
 1777              	.LVL152:
 1778              	.L128:
1050:Drivers/STM32F7xx_HAL_Driver/Src/stm32f7xx_hal_hcd.c ****     USB_HC_Halt(hhcd->Instance, chnum);
 1779              		.loc 1 1050 0
 1780 01ee E368     		ldr	r3, [r4, #12]
 1781 01f0 43F00203 		orr	r3, r3, #2
ARM GAS  /tmp/ccGDlo4w.s 			page 58


 1782 01f4 E360     		str	r3, [r4, #12]
 1783              	.LVL153:
1051:Drivers/STM32F7xx_HAL_Driver/Src/stm32f7xx_hal_hcd.c ****     hhcd->hc[chnum].state = HC_XACTERR;
 1784              		.loc 1 1051 0
 1785 01f6 0068     		ldr	r0, [r0]
 1786              	.LVL154:
 1787 01f8 FFF7FEFF 		bl	USB_HC_Halt
 1788              	.LVL155:
1052:Drivers/STM32F7xx_HAL_Driver/Src/stm32f7xx_hal_hcd.c ****      __HAL_HCD_CLEAR_HC_INT(chnum, USB_OTG_HCINT_TXERR);
 1789              		.loc 1 1052 0
 1790 01fc 06EB8601 		add	r1, r6, r6, lsl #2
 1791 0200 CB00     		lsls	r3, r1, #3
 1792 0202 2B44     		add	r3, r3, r5
 1793 0204 0622     		movs	r2, #6
 1794 0206 83F85D20 		strb	r2, [r3, #93]
1053:Drivers/STM32F7xx_HAL_Driver/Src/stm32f7xx_hal_hcd.c ****   }
 1795              		.loc 1 1053 0
 1796 020a 8023     		movs	r3, #128
 1797 020c A360     		str	r3, [r4, #8]
 1798 020e 2CE7     		b	.L103
 1799              	.LVL156:
 1800              	.L129:
1058:Drivers/STM32F7xx_HAL_Driver/Src/stm32f7xx_hal_hcd.c ****     USB_HC_Halt(hhcd->Instance, chnum);
 1801              		.loc 1 1058 0
 1802 0210 E368     		ldr	r3, [r4, #12]
 1803 0212 43F00203 		orr	r3, r3, #2
 1804 0216 E360     		str	r3, [r4, #12]
 1805              	.LVL157:
1059:Drivers/STM32F7xx_HAL_Driver/Src/stm32f7xx_hal_hcd.c ****     __HAL_HCD_CLEAR_HC_INT(chnum, USB_OTG_HCINT_NAK);
 1806              		.loc 1 1059 0
 1807 0218 0068     		ldr	r0, [r0]
 1808              	.LVL158:
 1809 021a FFF7FEFF 		bl	USB_HC_Halt
 1810              	.LVL159:
1060:Drivers/STM32F7xx_HAL_Driver/Src/stm32f7xx_hal_hcd.c ****     __HAL_HCD_CLEAR_HC_INT(chnum, USB_OTG_HCINT_DTERR);
 1811              		.loc 1 1060 0
 1812 021e 1023     		movs	r3, #16
 1813 0220 A360     		str	r3, [r4, #8]
1061:Drivers/STM32F7xx_HAL_Driver/Src/stm32f7xx_hal_hcd.c ****     hhcd->hc[chnum].state = HC_DATATGLERR;
 1814              		.loc 1 1061 0
 1815 0222 4FF48063 		mov	r3, #1024
 1816 0226 A360     		str	r3, [r4, #8]
1062:Drivers/STM32F7xx_HAL_Driver/Src/stm32f7xx_hal_hcd.c ****   }
 1817              		.loc 1 1062 0
 1818 0228 06EB8601 		add	r1, r6, r6, lsl #2
 1819 022c CB00     		lsls	r3, r1, #3
 1820 022e 2B44     		add	r3, r3, r5
 1821 0230 0822     		movs	r2, #8
 1822 0232 83F85D20 		strb	r2, [r3, #93]
 1823 0236 18E7     		b	.L103
 1824              	.LVL160:
 1825              	.L130:
1071:Drivers/STM32F7xx_HAL_Driver/Src/stm32f7xx_hal_hcd.c ****       if (hhcd->hc[chnum].ep_type == EP_TYPE_BULK)
 1826              		.loc 1 1071 0
 1827 0238 0B46     		mov	r3, r1
 1828 023a 0344     		add	r3, r3, r0
 1829 023c 0122     		movs	r2, #1
ARM GAS  /tmp/ccGDlo4w.s 			page 59


 1830 023e 83F85C20 		strb	r2, [r3, #92]
1072:Drivers/STM32F7xx_HAL_Driver/Src/stm32f7xx_hal_hcd.c ****       {
 1831              		.loc 1 1072 0
 1832 0242 93F83F30 		ldrb	r3, [r3, #63]	@ zero_extendqisi2
 1833 0246 022B     		cmp	r3, #2
 1834 0248 0CD0     		beq	.L134
 1835              	.LVL161:
 1836              	.L116:
1112:Drivers/STM32F7xx_HAL_Driver/Src/stm32f7xx_hal_hcd.c ****     HAL_HCD_HC_NotifyURBChange_Callback(hhcd, chnum, hhcd->hc[chnum].urb_state);
 1837              		.loc 1 1112 0
 1838 024a 0223     		movs	r3, #2
 1839 024c A360     		str	r3, [r4, #8]
1113:Drivers/STM32F7xx_HAL_Driver/Src/stm32f7xx_hal_hcd.c ****   }
 1840              		.loc 1 1113 0
 1841 024e 06EB8602 		add	r2, r6, r6, lsl #2
 1842 0252 D300     		lsls	r3, r2, #3
 1843 0254 2B44     		add	r3, r3, r5
 1844 0256 93F85C20 		ldrb	r2, [r3, #92]	@ zero_extendqisi2
 1845 025a 3146     		mov	r1, r6
 1846 025c 2846     		mov	r0, r5
 1847 025e FFF7FEFF 		bl	HAL_HCD_HC_NotifyURBChange_Callback
 1848              	.LVL162:
1115:Drivers/STM32F7xx_HAL_Driver/Src/stm32f7xx_hal_hcd.c **** 
 1849              		.loc 1 1115 0
 1850 0262 02E7     		b	.L103
 1851              	.LVL163:
 1852              	.L134:
1074:Drivers/STM32F7xx_HAL_Driver/Src/stm32f7xx_hal_hcd.c ****       }
 1853              		.loc 1 1074 0
 1854 0264 0B46     		mov	r3, r1
 1855 0266 0344     		add	r3, r3, r0
 1856 0268 93F85120 		ldrb	r2, [r3, #81]	@ zero_extendqisi2
 1857 026c 82F00102 		eor	r2, r2, #1
 1858 0270 83F85120 		strb	r2, [r3, #81]
 1859 0274 E9E7     		b	.L116
 1860              	.L131:
1079:Drivers/STM32F7xx_HAL_Driver/Src/stm32f7xx_hal_hcd.c ****     }
 1861              		.loc 1 1079 0
 1862 0276 06EB8602 		add	r2, r6, r6, lsl #2
 1863 027a D300     		lsls	r3, r2, #3
 1864 027c 0344     		add	r3, r3, r0
 1865 027e 0222     		movs	r2, #2
 1866 0280 83F85C20 		strb	r2, [r3, #92]
 1867 0284 E1E7     		b	.L116
 1868              	.L132:
1084:Drivers/STM32F7xx_HAL_Driver/Src/stm32f7xx_hal_hcd.c ****     }
 1869              		.loc 1 1084 0
 1870 0286 06EB8602 		add	r2, r6, r6, lsl #2
 1871 028a D300     		lsls	r3, r2, #3
 1872 028c 0344     		add	r3, r3, r0
 1873 028e 0222     		movs	r2, #2
 1874 0290 83F85C20 		strb	r2, [r3, #92]
 1875 0294 D9E7     		b	.L116
 1876              	.L133:
1089:Drivers/STM32F7xx_HAL_Driver/Src/stm32f7xx_hal_hcd.c ****     }
 1877              		.loc 1 1089 0
 1878 0296 2823     		movs	r3, #40
ARM GAS  /tmp/ccGDlo4w.s 			page 60


 1879 0298 03FB0603 		mla	r3, r3, r6, r0
 1880 029c 83F85C20 		strb	r2, [r3, #92]
 1881 02a0 D3E7     		b	.L116
 1882              	.LVL164:
 1883              	.L120:
1102:Drivers/STM32F7xx_HAL_Driver/Src/stm32f7xx_hal_hcd.c ****       }
 1884              		.loc 1 1102 0
 1885 02a2 2822     		movs	r2, #40
 1886 02a4 02FB0652 		mla	r2, r2, r6, r5
 1887 02a8 0221     		movs	r1, #2
 1888 02aa 82F85C10 		strb	r1, [r2, #92]
 1889 02ae 95E7     		b	.L121
 1890              		.cfi_endproc
 1891              	.LFE162:
 1893              		.section	.text.HAL_HCD_IRQHandler,"ax",%progbits
 1894              		.align	1
 1895              		.global	HAL_HCD_IRQHandler
 1896              		.syntax unified
 1897              		.thumb
 1898              		.thumb_func
 1899              		.fpu fpv5-sp-d16
 1901              	HAL_HCD_IRQHandler:
 1902              	.LFB145:
 446:Drivers/STM32F7xx_HAL_Driver/Src/stm32f7xx_hal_hcd.c ****   USB_OTG_GlobalTypeDef *USBx = hhcd->Instance;
 1903              		.loc 1 446 0
 1904              		.cfi_startproc
 1905              		@ args = 0, pretend = 0, frame = 0
 1906              		@ frame_needed = 0, uses_anonymous_args = 0
 1907              	.LVL165:
 1908 0000 F8B5     		push	{r3, r4, r5, r6, r7, lr}
 1909              	.LCFI20:
 1910              		.cfi_def_cfa_offset 24
 1911              		.cfi_offset 3, -24
 1912              		.cfi_offset 4, -20
 1913              		.cfi_offset 5, -16
 1914              		.cfi_offset 6, -12
 1915              		.cfi_offset 7, -8
 1916              		.cfi_offset 14, -4
 1917 0002 0446     		mov	r4, r0
 447:Drivers/STM32F7xx_HAL_Driver/Src/stm32f7xx_hal_hcd.c ****   uint32_t i = 0 , interrupt = 0;
 1918              		.loc 1 447 0
 1919 0004 0568     		ldr	r5, [r0]
 1920              	.LVL166:
 451:Drivers/STM32F7xx_HAL_Driver/Src/stm32f7xx_hal_hcd.c ****   {
 1921              		.loc 1 451 0
 1922 0006 2846     		mov	r0, r5
 1923              	.LVL167:
 1924 0008 FFF7FEFF 		bl	USB_GetMode
 1925              	.LVL168:
 1926 000c 0128     		cmp	r0, #1
 1927 000e 00D0     		beq	.L150
 1928              	.LVL169:
 1929              	.L135:
 541:Drivers/STM32F7xx_HAL_Driver/Src/stm32f7xx_hal_hcd.c **** 
 1930              		.loc 1 541 0
 1931 0010 F8BD     		pop	{r3, r4, r5, r6, r7, pc}
 1932              	.LVL170:
ARM GAS  /tmp/ccGDlo4w.s 			page 61


 1933              	.L150:
 454:Drivers/STM32F7xx_HAL_Driver/Src/stm32f7xx_hal_hcd.c ****     {
 1934              		.loc 1 454 0
 1935 0012 2068     		ldr	r0, [r4]
 1936 0014 FFF7FEFF 		bl	USB_ReadInterrupts
 1937              	.LVL171:
 1938 0018 0028     		cmp	r0, #0
 1939 001a F9D0     		beq	.L135
 459:Drivers/STM32F7xx_HAL_Driver/Src/stm32f7xx_hal_hcd.c ****     {
 1940              		.loc 1 459 0
 1941 001c 2068     		ldr	r0, [r4]
 1942 001e FFF7FEFF 		bl	USB_ReadInterrupts
 1943              	.LVL172:
 1944 0022 10F4001F 		tst	r0, #2097152
 1945 0026 03D0     		beq	.L137
 462:Drivers/STM32F7xx_HAL_Driver/Src/stm32f7xx_hal_hcd.c ****     }
 1946              		.loc 1 462 0
 1947 0028 2368     		ldr	r3, [r4]
 1948 002a 4FF40012 		mov	r2, #2097152
 1949 002e 5A61     		str	r2, [r3, #20]
 1950              	.L137:
 465:Drivers/STM32F7xx_HAL_Driver/Src/stm32f7xx_hal_hcd.c ****     {
 1951              		.loc 1 465 0
 1952 0030 2068     		ldr	r0, [r4]
 1953 0032 FFF7FEFF 		bl	USB_ReadInterrupts
 1954              	.LVL173:
 1955 0036 10F4801F 		tst	r0, #1048576
 1956 003a 03D0     		beq	.L138
 468:Drivers/STM32F7xx_HAL_Driver/Src/stm32f7xx_hal_hcd.c ****     }
 1957              		.loc 1 468 0
 1958 003c 2368     		ldr	r3, [r4]
 1959 003e 4FF48012 		mov	r2, #1048576
 1960 0042 5A61     		str	r2, [r3, #20]
 1961              	.L138:
 471:Drivers/STM32F7xx_HAL_Driver/Src/stm32f7xx_hal_hcd.c ****     {
 1962              		.loc 1 471 0
 1963 0044 2068     		ldr	r0, [r4]
 1964 0046 FFF7FEFF 		bl	USB_ReadInterrupts
 1965              	.LVL174:
 1966 004a 10F0806F 		tst	r0, #67108864
 1967 004e 03D0     		beq	.L139
 474:Drivers/STM32F7xx_HAL_Driver/Src/stm32f7xx_hal_hcd.c ****     }
 1968              		.loc 1 474 0
 1969 0050 2368     		ldr	r3, [r4]
 1970 0052 4FF08062 		mov	r2, #67108864
 1971 0056 5A61     		str	r2, [r3, #20]
 1972              	.L139:
 477:Drivers/STM32F7xx_HAL_Driver/Src/stm32f7xx_hal_hcd.c ****     {
 1973              		.loc 1 477 0
 1974 0058 2068     		ldr	r0, [r4]
 1975 005a FFF7FEFF 		bl	USB_ReadInterrupts
 1976              	.LVL175:
 1977 005e 10F0020F 		tst	r0, #2
 1978 0062 02D0     		beq	.L140
 480:Drivers/STM32F7xx_HAL_Driver/Src/stm32f7xx_hal_hcd.c ****     }
 1979              		.loc 1 480 0
 1980 0064 2368     		ldr	r3, [r4]
ARM GAS  /tmp/ccGDlo4w.s 			page 62


 1981 0066 0222     		movs	r2, #2
 1982 0068 5A61     		str	r2, [r3, #20]
 1983              	.L140:
 484:Drivers/STM32F7xx_HAL_Driver/Src/stm32f7xx_hal_hcd.c ****     {
 1984              		.loc 1 484 0
 1985 006a 2068     		ldr	r0, [r4]
 1986 006c FFF7FEFF 		bl	USB_ReadInterrupts
 1987              	.LVL176:
 1988 0070 10F0005F 		tst	r0, #536870912
 1989 0074 25D1     		bne	.L151
 1990              	.L141:
 498:Drivers/STM32F7xx_HAL_Driver/Src/stm32f7xx_hal_hcd.c ****     {
 1991              		.loc 1 498 0
 1992 0076 2068     		ldr	r0, [r4]
 1993 0078 FFF7FEFF 		bl	USB_ReadInterrupts
 1994              	.LVL177:
 1995 007c 10F0807F 		tst	r0, #16777216
 1996 0080 31D1     		bne	.L152
 1997              	.L142:
 504:Drivers/STM32F7xx_HAL_Driver/Src/stm32f7xx_hal_hcd.c ****     {
 1998              		.loc 1 504 0
 1999 0082 2068     		ldr	r0, [r4]
 2000 0084 FFF7FEFF 		bl	USB_ReadInterrupts
 2001              	.LVL178:
 2002 0088 10F0080F 		tst	r0, #8
 2003 008c 2FD1     		bne	.L153
 2004              	.L143:
 511:Drivers/STM32F7xx_HAL_Driver/Src/stm32f7xx_hal_hcd.c ****     {
 2005              		.loc 1 511 0
 2006 008e 2068     		ldr	r0, [r4]
 2007 0090 FFF7FEFF 		bl	USB_ReadInterrupts
 2008              	.LVL179:
 2009 0094 10F0007F 		tst	r0, #33554432
 2010 0098 30D1     		bne	.L154
 2011              	.LVL180:
 2012              	.L144:
 532:Drivers/STM32F7xx_HAL_Driver/Src/stm32f7xx_hal_hcd.c ****     {
 2013              		.loc 1 532 0
 2014 009a 2068     		ldr	r0, [r4]
 2015 009c FFF7FEFF 		bl	USB_ReadInterrupts
 2016              	.LVL181:
 2017 00a0 10F0100F 		tst	r0, #16
 2018 00a4 B4D0     		beq	.L135
 534:Drivers/STM32F7xx_HAL_Driver/Src/stm32f7xx_hal_hcd.c **** 
 2019              		.loc 1 534 0
 2020 00a6 2268     		ldr	r2, [r4]
 2021 00a8 9369     		ldr	r3, [r2, #24]
 2022 00aa 23F01003 		bic	r3, r3, #16
 2023 00ae 9361     		str	r3, [r2, #24]
 536:Drivers/STM32F7xx_HAL_Driver/Src/stm32f7xx_hal_hcd.c **** 
 2024              		.loc 1 536 0
 2025 00b0 2046     		mov	r0, r4
 2026 00b2 FFF7FEFF 		bl	HCD_RXQLVL_IRQHandler
 2027              	.LVL182:
 538:Drivers/STM32F7xx_HAL_Driver/Src/stm32f7xx_hal_hcd.c ****     }
 2028              		.loc 1 538 0
 2029 00b6 2268     		ldr	r2, [r4]
ARM GAS  /tmp/ccGDlo4w.s 			page 63


 2030 00b8 9369     		ldr	r3, [r2, #24]
 2031 00ba 43F01003 		orr	r3, r3, #16
 2032 00be 9361     		str	r3, [r2, #24]
 2033 00c0 A6E7     		b	.L135
 2034              	.LVL183:
 2035              	.L151:
 488:Drivers/STM32F7xx_HAL_Driver/Src/stm32f7xx_hal_hcd.c ****         USB_OTG_HPRT_PENCHNG | USB_OTG_HPRT_POCCHNG );
 2036              		.loc 1 488 0
 2037 00c2 D5F84034 		ldr	r3, [r5, #1088]
 2038 00c6 23F02E03 		bic	r3, r3, #46
 2039 00ca C5F84034 		str	r3, [r5, #1088]
 492:Drivers/STM32F7xx_HAL_Driver/Src/stm32f7xx_hal_hcd.c ****        USB_InitFSLSPClkSel(hhcd->Instance ,HCFG_48_MHZ );
 2040              		.loc 1 492 0
 2041 00ce 2046     		mov	r0, r4
 2042 00d0 FFF7FEFF 		bl	HAL_HCD_Disconnect_Callback
 2043              	.LVL184:
 493:Drivers/STM32F7xx_HAL_Driver/Src/stm32f7xx_hal_hcd.c ****       __HAL_HCD_CLEAR_FLAG(hhcd, USB_OTG_GINTSTS_DISCINT);
 2044              		.loc 1 493 0
 2045 00d4 0121     		movs	r1, #1
 2046 00d6 2068     		ldr	r0, [r4]
 2047 00d8 FFF7FEFF 		bl	USB_InitFSLSPClkSel
 2048              	.LVL185:
 494:Drivers/STM32F7xx_HAL_Driver/Src/stm32f7xx_hal_hcd.c ****     }
 2049              		.loc 1 494 0
 2050 00dc 2368     		ldr	r3, [r4]
 2051 00de 4FF00052 		mov	r2, #536870912
 2052 00e2 5A61     		str	r2, [r3, #20]
 2053 00e4 C7E7     		b	.L141
 2054              	.L152:
 500:Drivers/STM32F7xx_HAL_Driver/Src/stm32f7xx_hal_hcd.c ****     }
 2055              		.loc 1 500 0
 2056 00e6 2046     		mov	r0, r4
 2057 00e8 FFF7FEFF 		bl	HCD_Port_IRQHandler
 2058              	.LVL186:
 2059 00ec C9E7     		b	.L142
 2060              	.L153:
 506:Drivers/STM32F7xx_HAL_Driver/Src/stm32f7xx_hal_hcd.c ****       __HAL_HCD_CLEAR_FLAG(hhcd, USB_OTG_GINTSTS_SOF);
 2061              		.loc 1 506 0
 2062 00ee 2046     		mov	r0, r4
 2063 00f0 FFF7FEFF 		bl	HAL_HCD_SOF_Callback
 2064              	.LVL187:
 507:Drivers/STM32F7xx_HAL_Driver/Src/stm32f7xx_hal_hcd.c ****     }
 2065              		.loc 1 507 0
 2066 00f4 2368     		ldr	r3, [r4]
 2067 00f6 0822     		movs	r2, #8
 2068 00f8 5A61     		str	r2, [r3, #20]
 2069 00fa C8E7     		b	.L143
 2070              	.L154:
 513:Drivers/STM32F7xx_HAL_Driver/Src/stm32f7xx_hal_hcd.c ****       for (i = 0; i < hhcd->Init.Host_channels ; i++)
 2071              		.loc 1 513 0
 2072 00fc 2068     		ldr	r0, [r4]
 2073 00fe FFF7FEFF 		bl	USB_HC_ReadInterrupt
 2074              	.LVL188:
 2075 0102 0746     		mov	r7, r0
 2076              	.LVL189:
 514:Drivers/STM32F7xx_HAL_Driver/Src/stm32f7xx_hal_hcd.c ****       {
 2077              		.loc 1 514 0
ARM GAS  /tmp/ccGDlo4w.s 			page 64


 2078 0104 0026     		movs	r6, #0
 2079 0106 04E0     		b	.L145
 2080              	.LVL190:
 2081              	.L147:
 524:Drivers/STM32F7xx_HAL_Driver/Src/stm32f7xx_hal_hcd.c ****           }
 2082              		.loc 1 524 0
 2083 0108 F1B2     		uxtb	r1, r6
 2084 010a 2046     		mov	r0, r4
 2085 010c FFF7FEFF 		bl	HCD_HC_OUT_IRQHandler
 2086              	.LVL191:
 2087              	.L146:
 514:Drivers/STM32F7xx_HAL_Driver/Src/stm32f7xx_hal_hcd.c ****       {
 2088              		.loc 1 514 0 discriminator 2
 2089 0110 0136     		adds	r6, r6, #1
 2090              	.LVL192:
 2091              	.L145:
 514:Drivers/STM32F7xx_HAL_Driver/Src/stm32f7xx_hal_hcd.c ****       {
 2092              		.loc 1 514 0 is_stmt 0 discriminator 1
 2093 0112 A368     		ldr	r3, [r4, #8]
 2094 0114 B342     		cmp	r3, r6
 2095 0116 0FD9     		bls	.L155
 516:Drivers/STM32F7xx_HAL_Driver/Src/stm32f7xx_hal_hcd.c ****         {
 2096              		.loc 1 516 0 is_stmt 1
 2097 0118 0123     		movs	r3, #1
 2098 011a B340     		lsls	r3, r3, r6
 2099 011c 3B42     		tst	r3, r7
 2100 011e F7D0     		beq	.L146
 518:Drivers/STM32F7xx_HAL_Driver/Src/stm32f7xx_hal_hcd.c ****           {
 2101              		.loc 1 518 0
 2102 0120 05EB4613 		add	r3, r5, r6, lsl #5
 2103 0124 D3F80035 		ldr	r3, [r3, #1280]
 2104 0128 13F4004F 		tst	r3, #32768
 2105 012c ECD0     		beq	.L147
 520:Drivers/STM32F7xx_HAL_Driver/Src/stm32f7xx_hal_hcd.c ****           }
 2106              		.loc 1 520 0
 2107 012e F1B2     		uxtb	r1, r6
 2108 0130 2046     		mov	r0, r4
 2109 0132 FFF7FEFF 		bl	HCD_HC_IN_IRQHandler
 2110              	.LVL193:
 2111 0136 EBE7     		b	.L146
 2112              	.L155:
 528:Drivers/STM32F7xx_HAL_Driver/Src/stm32f7xx_hal_hcd.c ****     }
 2113              		.loc 1 528 0
 2114 0138 2368     		ldr	r3, [r4]
 2115 013a 4FF00072 		mov	r2, #33554432
 2116 013e 5A61     		str	r2, [r3, #20]
 2117 0140 ABE7     		b	.L144
 2118              		.cfi_endproc
 2119              	.LFE145:
 2121              		.section	.text.HAL_HCD_Start,"ax",%progbits
 2122              		.align	1
 2123              		.global	HAL_HCD_Start
 2124              		.syntax unified
 2125              		.thumb
 2126              		.thumb_func
 2127              		.fpu fpv5-sp-d16
 2129              	HAL_HCD_Start:
ARM GAS  /tmp/ccGDlo4w.s 			page 65


 2130              	.LFB152:
 666:Drivers/STM32F7xx_HAL_Driver/Src/stm32f7xx_hal_hcd.c ****   __HAL_LOCK(hhcd);
 2131              		.loc 1 666 0
 2132              		.cfi_startproc
 2133              		@ args = 0, pretend = 0, frame = 0
 2134              		@ frame_needed = 0, uses_anonymous_args = 0
 2135              	.LVL194:
 2136 0000 38B5     		push	{r3, r4, r5, lr}
 2137              	.LCFI21:
 2138              		.cfi_def_cfa_offset 16
 2139              		.cfi_offset 3, -16
 2140              		.cfi_offset 4, -12
 2141              		.cfi_offset 5, -8
 2142              		.cfi_offset 14, -4
 667:Drivers/STM32F7xx_HAL_Driver/Src/stm32f7xx_hal_hcd.c ****   __HAL_HCD_ENABLE(hhcd);
 2143              		.loc 1 667 0
 2144 0002 90F89032 		ldrb	r3, [r0, #656]	@ zero_extendqisi2
 2145 0006 012B     		cmp	r3, #1
 2146 0008 0ED0     		beq	.L158
 2147 000a 0446     		mov	r4, r0
 667:Drivers/STM32F7xx_HAL_Driver/Src/stm32f7xx_hal_hcd.c ****   __HAL_HCD_ENABLE(hhcd);
 2148              		.loc 1 667 0 is_stmt 0 discriminator 2
 2149 000c 0125     		movs	r5, #1
 2150 000e 80F89052 		strb	r5, [r0, #656]
 668:Drivers/STM32F7xx_HAL_Driver/Src/stm32f7xx_hal_hcd.c ****   USB_DriveVbus(hhcd->Instance, 1);
 2151              		.loc 1 668 0 is_stmt 1 discriminator 2
 2152 0012 0068     		ldr	r0, [r0]
 2153              	.LVL195:
 2154 0014 FFF7FEFF 		bl	USB_EnableGlobalInt
 2155              	.LVL196:
 669:Drivers/STM32F7xx_HAL_Driver/Src/stm32f7xx_hal_hcd.c ****   __HAL_UNLOCK(hhcd);
 2156              		.loc 1 669 0 discriminator 2
 2157 0018 2946     		mov	r1, r5
 2158 001a 2068     		ldr	r0, [r4]
 2159 001c FFF7FEFF 		bl	USB_DriveVbus
 2160              	.LVL197:
 670:Drivers/STM32F7xx_HAL_Driver/Src/stm32f7xx_hal_hcd.c ****   return HAL_OK;
 2161              		.loc 1 670 0 discriminator 2
 2162 0020 0020     		movs	r0, #0
 2163 0022 84F89002 		strb	r0, [r4, #656]
 2164              	.LVL198:
 2165              	.L157:
 672:Drivers/STM32F7xx_HAL_Driver/Src/stm32f7xx_hal_hcd.c **** 
 2166              		.loc 1 672 0
 2167 0026 38BD     		pop	{r3, r4, r5, pc}
 2168              	.LVL199:
 2169              	.L158:
 667:Drivers/STM32F7xx_HAL_Driver/Src/stm32f7xx_hal_hcd.c ****   __HAL_HCD_ENABLE(hhcd);
 2170              		.loc 1 667 0
 2171 0028 0220     		movs	r0, #2
 2172              	.LVL200:
 2173 002a FCE7     		b	.L157
 2174              		.cfi_endproc
 2175              	.LFE152:
 2177              		.section	.text.HAL_HCD_Stop,"ax",%progbits
 2178              		.align	1
 2179              		.global	HAL_HCD_Stop
ARM GAS  /tmp/ccGDlo4w.s 			page 66


 2180              		.syntax unified
 2181              		.thumb
 2182              		.thumb_func
 2183              		.fpu fpv5-sp-d16
 2185              	HAL_HCD_Stop:
 2186              	.LFB153:
 681:Drivers/STM32F7xx_HAL_Driver/Src/stm32f7xx_hal_hcd.c ****   __HAL_LOCK(hhcd);
 2187              		.loc 1 681 0
 2188              		.cfi_startproc
 2189              		@ args = 0, pretend = 0, frame = 0
 2190              		@ frame_needed = 0, uses_anonymous_args = 0
 2191              	.LVL201:
 682:Drivers/STM32F7xx_HAL_Driver/Src/stm32f7xx_hal_hcd.c ****   USB_StopHost(hhcd->Instance);
 2192              		.loc 1 682 0
 2193 0000 90F89032 		ldrb	r3, [r0, #656]	@ zero_extendqisi2
 2194 0004 012B     		cmp	r3, #1
 2195 0006 0BD0     		beq	.L162
 681:Drivers/STM32F7xx_HAL_Driver/Src/stm32f7xx_hal_hcd.c ****   __HAL_LOCK(hhcd);
 2196              		.loc 1 681 0 discriminator 2
 2197 0008 10B5     		push	{r4, lr}
 2198              	.LCFI22:
 2199              		.cfi_def_cfa_offset 8
 2200              		.cfi_offset 4, -8
 2201              		.cfi_offset 14, -4
 2202 000a 0446     		mov	r4, r0
 682:Drivers/STM32F7xx_HAL_Driver/Src/stm32f7xx_hal_hcd.c ****   USB_StopHost(hhcd->Instance);
 2203              		.loc 1 682 0 discriminator 2
 2204 000c 0123     		movs	r3, #1
 2205 000e 80F89032 		strb	r3, [r0, #656]
 683:Drivers/STM32F7xx_HAL_Driver/Src/stm32f7xx_hal_hcd.c ****   __HAL_UNLOCK(hhcd);
 2206              		.loc 1 683 0 discriminator 2
 2207 0012 0068     		ldr	r0, [r0]
 2208              	.LVL202:
 2209 0014 FFF7FEFF 		bl	USB_StopHost
 2210              	.LVL203:
 684:Drivers/STM32F7xx_HAL_Driver/Src/stm32f7xx_hal_hcd.c ****   return HAL_OK;
 2211              		.loc 1 684 0 discriminator 2
 2212 0018 0020     		movs	r0, #0
 2213 001a 84F89002 		strb	r0, [r4, #656]
 686:Drivers/STM32F7xx_HAL_Driver/Src/stm32f7xx_hal_hcd.c **** 
 2214              		.loc 1 686 0 discriminator 2
 2215 001e 10BD     		pop	{r4, pc}
 2216              	.LVL204:
 2217              	.L162:
 2218              	.LCFI23:
 2219              		.cfi_def_cfa_offset 0
 2220              		.cfi_restore 4
 2221              		.cfi_restore 14
 682:Drivers/STM32F7xx_HAL_Driver/Src/stm32f7xx_hal_hcd.c ****   USB_StopHost(hhcd->Instance);
 2222              		.loc 1 682 0
 2223 0020 0220     		movs	r0, #2
 2224              	.LVL205:
 686:Drivers/STM32F7xx_HAL_Driver/Src/stm32f7xx_hal_hcd.c **** 
 2225              		.loc 1 686 0
 2226 0022 7047     		bx	lr
 2227              		.cfi_endproc
 2228              	.LFE153:
ARM GAS  /tmp/ccGDlo4w.s 			page 67


 2230              		.section	.text.HAL_HCD_ResetPort,"ax",%progbits
 2231              		.align	1
 2232              		.global	HAL_HCD_ResetPort
 2233              		.syntax unified
 2234              		.thumb
 2235              		.thumb_func
 2236              		.fpu fpv5-sp-d16
 2238              	HAL_HCD_ResetPort:
 2239              	.LFB154:
 694:Drivers/STM32F7xx_HAL_Driver/Src/stm32f7xx_hal_hcd.c ****   return (USB_ResetPort(hhcd->Instance));
 2240              		.loc 1 694 0
 2241              		.cfi_startproc
 2242              		@ args = 0, pretend = 0, frame = 0
 2243              		@ frame_needed = 0, uses_anonymous_args = 0
 2244              	.LVL206:
 2245 0000 08B5     		push	{r3, lr}
 2246              	.LCFI24:
 2247              		.cfi_def_cfa_offset 8
 2248              		.cfi_offset 3, -8
 2249              		.cfi_offset 14, -4
 695:Drivers/STM32F7xx_HAL_Driver/Src/stm32f7xx_hal_hcd.c **** }
 2250              		.loc 1 695 0
 2251 0002 0068     		ldr	r0, [r0]
 2252              	.LVL207:
 2253 0004 FFF7FEFF 		bl	USB_ResetPort
 2254              	.LVL208:
 696:Drivers/STM32F7xx_HAL_Driver/Src/stm32f7xx_hal_hcd.c **** 
 2255              		.loc 1 696 0
 2256 0008 08BD     		pop	{r3, pc}
 2257              		.cfi_endproc
 2258              	.LFE154:
 2260              		.section	.text.HAL_HCD_GetState,"ax",%progbits
 2261              		.align	1
 2262              		.global	HAL_HCD_GetState
 2263              		.syntax unified
 2264              		.thumb
 2265              		.thumb_func
 2266              		.fpu fpv5-sp-d16
 2268              	HAL_HCD_GetState:
 2269              	.LFB155:
 723:Drivers/STM32F7xx_HAL_Driver/Src/stm32f7xx_hal_hcd.c ****   return hhcd->State;
 2270              		.loc 1 723 0
 2271              		.cfi_startproc
 2272              		@ args = 0, pretend = 0, frame = 0
 2273              		@ frame_needed = 0, uses_anonymous_args = 0
 2274              		@ link register save eliminated.
 2275              	.LVL209:
 724:Drivers/STM32F7xx_HAL_Driver/Src/stm32f7xx_hal_hcd.c **** }
 2276              		.loc 1 724 0
 2277 0000 90F89102 		ldrb	r0, [r0, #657]	@ zero_extendqisi2
 2278              	.LVL210:
 725:Drivers/STM32F7xx_HAL_Driver/Src/stm32f7xx_hal_hcd.c **** 
 2279              		.loc 1 725 0
 2280 0004 7047     		bx	lr
 2281              		.cfi_endproc
 2282              	.LFE155:
 2284              		.section	.text.HAL_HCD_HC_GetURBState,"ax",%progbits
ARM GAS  /tmp/ccGDlo4w.s 			page 68


 2285              		.align	1
 2286              		.global	HAL_HCD_HC_GetURBState
 2287              		.syntax unified
 2288              		.thumb
 2289              		.thumb_func
 2290              		.fpu fpv5-sp-d16
 2292              	HAL_HCD_HC_GetURBState:
 2293              	.LFB156:
 742:Drivers/STM32F7xx_HAL_Driver/Src/stm32f7xx_hal_hcd.c ****   return hhcd->hc[chnum].urb_state;
 2294              		.loc 1 742 0
 2295              		.cfi_startproc
 2296              		@ args = 0, pretend = 0, frame = 0
 2297              		@ frame_needed = 0, uses_anonymous_args = 0
 2298              		@ link register save eliminated.
 2299              	.LVL211:
 743:Drivers/STM32F7xx_HAL_Driver/Src/stm32f7xx_hal_hcd.c **** }
 2300              		.loc 1 743 0
 2301 0000 01EB8101 		add	r1, r1, r1, lsl #2
 2302              	.LVL212:
 2303 0004 CB00     		lsls	r3, r1, #3
 2304 0006 1844     		add	r0, r0, r3
 2305              	.LVL213:
 744:Drivers/STM32F7xx_HAL_Driver/Src/stm32f7xx_hal_hcd.c **** 
 2306              		.loc 1 744 0
 2307 0008 90F85C00 		ldrb	r0, [r0, #92]	@ zero_extendqisi2
 2308 000c 7047     		bx	lr
 2309              		.cfi_endproc
 2310              	.LFE156:
 2312              		.section	.text.HAL_HCD_HC_GetXferCount,"ax",%progbits
 2313              		.align	1
 2314              		.global	HAL_HCD_HC_GetXferCount
 2315              		.syntax unified
 2316              		.thumb
 2317              		.thumb_func
 2318              		.fpu fpv5-sp-d16
 2320              	HAL_HCD_HC_GetXferCount:
 2321              	.LFB157:
 755:Drivers/STM32F7xx_HAL_Driver/Src/stm32f7xx_hal_hcd.c ****   return hhcd->hc[chnum].xfer_count;
 2322              		.loc 1 755 0
 2323              		.cfi_startproc
 2324              		@ args = 0, pretend = 0, frame = 0
 2325              		@ frame_needed = 0, uses_anonymous_args = 0
 2326              		@ link register save eliminated.
 2327              	.LVL214:
 756:Drivers/STM32F7xx_HAL_Driver/Src/stm32f7xx_hal_hcd.c **** }
 2328              		.loc 1 756 0
 2329 0000 01EB8101 		add	r1, r1, r1, lsl #2
 2330              	.LVL215:
 2331 0004 CB00     		lsls	r3, r1, #3
 2332 0006 1844     		add	r0, r0, r3
 2333              	.LVL216:
 757:Drivers/STM32F7xx_HAL_Driver/Src/stm32f7xx_hal_hcd.c **** 
 2334              		.loc 1 757 0
 2335 0008 C06C     		ldr	r0, [r0, #76]
 2336 000a 7047     		bx	lr
 2337              		.cfi_endproc
 2338              	.LFE157:
ARM GAS  /tmp/ccGDlo4w.s 			page 69


 2340              		.section	.text.HAL_HCD_HC_GetState,"ax",%progbits
 2341              		.align	1
 2342              		.global	HAL_HCD_HC_GetState
 2343              		.syntax unified
 2344              		.thumb
 2345              		.thumb_func
 2346              		.fpu fpv5-sp-d16
 2348              	HAL_HCD_HC_GetState:
 2349              	.LFB158:
 777:Drivers/STM32F7xx_HAL_Driver/Src/stm32f7xx_hal_hcd.c ****   return hhcd->hc[chnum].state;
 2350              		.loc 1 777 0
 2351              		.cfi_startproc
 2352              		@ args = 0, pretend = 0, frame = 0
 2353              		@ frame_needed = 0, uses_anonymous_args = 0
 2354              		@ link register save eliminated.
 2355              	.LVL217:
 778:Drivers/STM32F7xx_HAL_Driver/Src/stm32f7xx_hal_hcd.c **** }
 2356              		.loc 1 778 0
 2357 0000 01EB8101 		add	r1, r1, r1, lsl #2
 2358              	.LVL218:
 2359 0004 CB00     		lsls	r3, r1, #3
 2360 0006 1844     		add	r0, r0, r3
 2361              	.LVL219:
 779:Drivers/STM32F7xx_HAL_Driver/Src/stm32f7xx_hal_hcd.c **** 
 2362              		.loc 1 779 0
 2363 0008 90F85D00 		ldrb	r0, [r0, #93]	@ zero_extendqisi2
 2364 000c 7047     		bx	lr
 2365              		.cfi_endproc
 2366              	.LFE158:
 2368              		.section	.text.HAL_HCD_GetCurrentFrame,"ax",%progbits
 2369              		.align	1
 2370              		.global	HAL_HCD_GetCurrentFrame
 2371              		.syntax unified
 2372              		.thumb
 2373              		.thumb_func
 2374              		.fpu fpv5-sp-d16
 2376              	HAL_HCD_GetCurrentFrame:
 2377              	.LFB159:
 787:Drivers/STM32F7xx_HAL_Driver/Src/stm32f7xx_hal_hcd.c ****   return (USB_GetCurrentFrame(hhcd->Instance));
 2378              		.loc 1 787 0
 2379              		.cfi_startproc
 2380              		@ args = 0, pretend = 0, frame = 0
 2381              		@ frame_needed = 0, uses_anonymous_args = 0
 2382              	.LVL220:
 2383 0000 08B5     		push	{r3, lr}
 2384              	.LCFI25:
 2385              		.cfi_def_cfa_offset 8
 2386              		.cfi_offset 3, -8
 2387              		.cfi_offset 14, -4
 788:Drivers/STM32F7xx_HAL_Driver/Src/stm32f7xx_hal_hcd.c **** }
 2388              		.loc 1 788 0
 2389 0002 0068     		ldr	r0, [r0]
 2390              	.LVL221:
 2391 0004 FFF7FEFF 		bl	USB_GetCurrentFrame
 2392              	.LVL222:
 789:Drivers/STM32F7xx_HAL_Driver/Src/stm32f7xx_hal_hcd.c **** 
 2393              		.loc 1 789 0
ARM GAS  /tmp/ccGDlo4w.s 			page 70


 2394 0008 08BD     		pop	{r3, pc}
 2395              		.cfi_endproc
 2396              	.LFE159:
 2398              		.section	.text.HAL_HCD_GetCurrentSpeed,"ax",%progbits
 2399              		.align	1
 2400              		.global	HAL_HCD_GetCurrentSpeed
 2401              		.syntax unified
 2402              		.thumb
 2403              		.thumb_func
 2404              		.fpu fpv5-sp-d16
 2406              	HAL_HCD_GetCurrentSpeed:
 2407              	.LFB160:
 797:Drivers/STM32F7xx_HAL_Driver/Src/stm32f7xx_hal_hcd.c ****   return (USB_GetHostSpeed(hhcd->Instance));
 2408              		.loc 1 797 0
 2409              		.cfi_startproc
 2410              		@ args = 0, pretend = 0, frame = 0
 2411              		@ frame_needed = 0, uses_anonymous_args = 0
 2412              	.LVL223:
 2413 0000 08B5     		push	{r3, lr}
 2414              	.LCFI26:
 2415              		.cfi_def_cfa_offset 8
 2416              		.cfi_offset 3, -8
 2417              		.cfi_offset 14, -4
 798:Drivers/STM32F7xx_HAL_Driver/Src/stm32f7xx_hal_hcd.c **** }
 2418              		.loc 1 798 0
 2419 0002 0068     		ldr	r0, [r0]
 2420              	.LVL224:
 2421 0004 FFF7FEFF 		bl	USB_GetHostSpeed
 2422              	.LVL225:
 799:Drivers/STM32F7xx_HAL_Driver/Src/stm32f7xx_hal_hcd.c **** 
 2423              		.loc 1 799 0
 2424 0008 08BD     		pop	{r3, pc}
 2425              		.cfi_endproc
 2426              	.LFE160:
 2428              		.text
 2429              	.Letext0:
 2430              		.file 2 "/home/warranyu/opt/gcc-arm-none-eabi-7-2018-q2-update/arm-none-eabi/include/machine/_defa
 2431              		.file 3 "/home/warranyu/opt/gcc-arm-none-eabi-7-2018-q2-update/arm-none-eabi/include/sys/_stdint.h
 2432              		.file 4 "Drivers/CMSIS/Include/core_cm7.h"
 2433              		.file 5 "Drivers/CMSIS/Device/ST/STM32F7xx/Include/system_stm32f7xx.h"
 2434              		.file 6 "Drivers/CMSIS/Device/ST/STM32F7xx/Include/stm32f746xx.h"
 2435              		.file 7 "/home/warranyu/opt/gcc-arm-none-eabi-7-2018-q2-update/arm-none-eabi/include/sys/lock.h"
 2436              		.file 8 "/home/warranyu/opt/gcc-arm-none-eabi-7-2018-q2-update/arm-none-eabi/include/sys/_types.h"
 2437              		.file 9 "/home/warranyu/opt/gcc-arm-none-eabi-7-2018-q2-update/lib/gcc/arm-none-eabi/7.3.1/include
 2438              		.file 10 "/home/warranyu/opt/gcc-arm-none-eabi-7-2018-q2-update/arm-none-eabi/include/sys/reent.h"
 2439              		.file 11 "Drivers/STM32F7xx_HAL_Driver/Inc/stm32f7xx_hal_def.h"
 2440              		.file 12 "Drivers/STM32F7xx_HAL_Driver/Inc/stm32f7xx_ll_usb.h"
 2441              		.file 13 "Drivers/STM32F7xx_HAL_Driver/Inc/stm32f7xx_hal_hcd.h"
ARM GAS  /tmp/ccGDlo4w.s 			page 71


DEFINED SYMBOLS
                            *ABS*:0000000000000000 stm32f7xx_hal_hcd.c
     /tmp/ccGDlo4w.s:18     .text.HCD_RXQLVL_IRQHandler:0000000000000000 $t
     /tmp/ccGDlo4w.s:24     .text.HCD_RXQLVL_IRQHandler:0000000000000000 HCD_RXQLVL_IRQHandler
     /tmp/ccGDlo4w.s:121    .text.HCD_RXQLVL_IRQHandler:0000000000000078 $d
     /tmp/ccGDlo4w.s:126    .text.HAL_HCD_HC_Init:0000000000000000 $t
     /tmp/ccGDlo4w.s:133    .text.HAL_HCD_HC_Init:0000000000000000 HAL_HCD_HC_Init
     /tmp/ccGDlo4w.s:221    .text.HAL_HCD_HC_Halt:0000000000000000 $t
     /tmp/ccGDlo4w.s:228    .text.HAL_HCD_HC_Halt:0000000000000000 HAL_HCD_HC_Halt
     /tmp/ccGDlo4w.s:274    .text.HAL_HCD_MspInit:0000000000000000 $t
     /tmp/ccGDlo4w.s:281    .text.HAL_HCD_MspInit:0000000000000000 HAL_HCD_MspInit
     /tmp/ccGDlo4w.s:295    .text.HAL_HCD_Init:0000000000000000 $t
     /tmp/ccGDlo4w.s:302    .text.HAL_HCD_Init:0000000000000000 HAL_HCD_Init
     /tmp/ccGDlo4w.s:398    .text.HAL_HCD_MspDeInit:0000000000000000 $t
     /tmp/ccGDlo4w.s:405    .text.HAL_HCD_MspDeInit:0000000000000000 HAL_HCD_MspDeInit
     /tmp/ccGDlo4w.s:419    .text.HAL_HCD_DeInit:0000000000000000 $t
     /tmp/ccGDlo4w.s:426    .text.HAL_HCD_DeInit:0000000000000000 HAL_HCD_DeInit
     /tmp/ccGDlo4w.s:472    .text.HAL_HCD_HC_SubmitRequest:0000000000000000 $t
     /tmp/ccGDlo4w.s:479    .text.HAL_HCD_HC_SubmitRequest:0000000000000000 HAL_HCD_HC_SubmitRequest
     /tmp/ccGDlo4w.s:519    .text.HAL_HCD_HC_SubmitRequest:0000000000000034 $d
     /tmp/ccGDlo4w.s:523    .text.HAL_HCD_HC_SubmitRequest:0000000000000038 $t
     /tmp/ccGDlo4w.s:721    .text.HAL_HCD_SOF_Callback:0000000000000000 $t
     /tmp/ccGDlo4w.s:728    .text.HAL_HCD_SOF_Callback:0000000000000000 HAL_HCD_SOF_Callback
     /tmp/ccGDlo4w.s:742    .text.HAL_HCD_Connect_Callback:0000000000000000 $t
     /tmp/ccGDlo4w.s:749    .text.HAL_HCD_Connect_Callback:0000000000000000 HAL_HCD_Connect_Callback
     /tmp/ccGDlo4w.s:763    .text.HAL_HCD_Disconnect_Callback:0000000000000000 $t
     /tmp/ccGDlo4w.s:770    .text.HAL_HCD_Disconnect_Callback:0000000000000000 HAL_HCD_Disconnect_Callback
     /tmp/ccGDlo4w.s:784    .text.HAL_HCD_PortEnabled_Callback:0000000000000000 $t
     /tmp/ccGDlo4w.s:791    .text.HAL_HCD_PortEnabled_Callback:0000000000000000 HAL_HCD_PortEnabled_Callback
     /tmp/ccGDlo4w.s:805    .text.HAL_HCD_PortDisabled_Callback:0000000000000000 $t
     /tmp/ccGDlo4w.s:812    .text.HAL_HCD_PortDisabled_Callback:0000000000000000 HAL_HCD_PortDisabled_Callback
     /tmp/ccGDlo4w.s:826    .text.HCD_Port_IRQHandler:0000000000000000 $t
     /tmp/ccGDlo4w.s:832    .text.HCD_Port_IRQHandler:0000000000000000 HCD_Port_IRQHandler
     /tmp/ccGDlo4w.s:981    .text.HAL_HCD_HC_NotifyURBChange_Callback:0000000000000000 $t
     /tmp/ccGDlo4w.s:988    .text.HAL_HCD_HC_NotifyURBChange_Callback:0000000000000000 HAL_HCD_HC_NotifyURBChange_Callback
     /tmp/ccGDlo4w.s:1002   .text.HCD_HC_IN_IRQHandler:0000000000000000 $t
     /tmp/ccGDlo4w.s:1008   .text.HCD_HC_IN_IRQHandler:0000000000000000 HCD_HC_IN_IRQHandler
     /tmp/ccGDlo4w.s:1454   .text.HCD_HC_OUT_IRQHandler:0000000000000000 $t
     /tmp/ccGDlo4w.s:1460   .text.HCD_HC_OUT_IRQHandler:0000000000000000 HCD_HC_OUT_IRQHandler
     /tmp/ccGDlo4w.s:1894   .text.HAL_HCD_IRQHandler:0000000000000000 $t
     /tmp/ccGDlo4w.s:1901   .text.HAL_HCD_IRQHandler:0000000000000000 HAL_HCD_IRQHandler
     /tmp/ccGDlo4w.s:2122   .text.HAL_HCD_Start:0000000000000000 $t
     /tmp/ccGDlo4w.s:2129   .text.HAL_HCD_Start:0000000000000000 HAL_HCD_Start
     /tmp/ccGDlo4w.s:2178   .text.HAL_HCD_Stop:0000000000000000 $t
     /tmp/ccGDlo4w.s:2185   .text.HAL_HCD_Stop:0000000000000000 HAL_HCD_Stop
     /tmp/ccGDlo4w.s:2231   .text.HAL_HCD_ResetPort:0000000000000000 $t
     /tmp/ccGDlo4w.s:2238   .text.HAL_HCD_ResetPort:0000000000000000 HAL_HCD_ResetPort
     /tmp/ccGDlo4w.s:2261   .text.HAL_HCD_GetState:0000000000000000 $t
     /tmp/ccGDlo4w.s:2268   .text.HAL_HCD_GetState:0000000000000000 HAL_HCD_GetState
     /tmp/ccGDlo4w.s:2285   .text.HAL_HCD_HC_GetURBState:0000000000000000 $t
     /tmp/ccGDlo4w.s:2292   .text.HAL_HCD_HC_GetURBState:0000000000000000 HAL_HCD_HC_GetURBState
     /tmp/ccGDlo4w.s:2313   .text.HAL_HCD_HC_GetXferCount:0000000000000000 $t
     /tmp/ccGDlo4w.s:2320   .text.HAL_HCD_HC_GetXferCount:0000000000000000 HAL_HCD_HC_GetXferCount
     /tmp/ccGDlo4w.s:2341   .text.HAL_HCD_HC_GetState:0000000000000000 $t
     /tmp/ccGDlo4w.s:2348   .text.HAL_HCD_HC_GetState:0000000000000000 HAL_HCD_HC_GetState
     /tmp/ccGDlo4w.s:2369   .text.HAL_HCD_GetCurrentFrame:0000000000000000 $t
     /tmp/ccGDlo4w.s:2376   .text.HAL_HCD_GetCurrentFrame:0000000000000000 HAL_HCD_GetCurrentFrame
ARM GAS  /tmp/ccGDlo4w.s 			page 72


     /tmp/ccGDlo4w.s:2399   .text.HAL_HCD_GetCurrentSpeed:0000000000000000 $t
     /tmp/ccGDlo4w.s:2406   .text.HAL_HCD_GetCurrentSpeed:0000000000000000 HAL_HCD_GetCurrentSpeed

UNDEFINED SYMBOLS
USB_ReadPacket
USB_HC_Init
USB_HC_Halt
USB_DisableGlobalInt
USB_CoreInit
USB_SetCurrentMode
USB_HostInit
USB_HC_StartXfer
USB_InitFSLSPClkSel
USB_GetMode
USB_ReadInterrupts
USB_HC_ReadInterrupt
USB_EnableGlobalInt
USB_DriveVbus
USB_StopHost
USB_ResetPort
USB_GetCurrentFrame
USB_GetHostSpeed
