ARM GAS  /tmp/ccqNwYK1.s 			page 1


   1              		.cpu cortex-m7
   2              		.eabi_attribute 27, 1
   3              		.eabi_attribute 28, 1
   4              		.eabi_attribute 20, 1
   5              		.eabi_attribute 21, 1
   6              		.eabi_attribute 23, 3
   7              		.eabi_attribute 24, 1
   8              		.eabi_attribute 25, 1
   9              		.eabi_attribute 26, 1
  10              		.eabi_attribute 30, 1
  11              		.eabi_attribute 34, 1
  12              		.eabi_attribute 18, 4
  13              		.file	"usbh_cdc.c"
  14              		.text
  15              	.Ltext0:
  16              		.cfi_sections	.debug_frame
  17              		.section	.text.USBH_CDC_SOFProcess,"ax",%progbits
  18              		.align	1
  19              		.syntax unified
  20              		.thumb
  21              		.thumb_func
  22              		.fpu fpv5-sp-d16
  24              	USBH_CDC_SOFProcess:
  25              	.LFB147:
  26              		.file 1 "Middlewares/ST/STM32_USB_Host_Library/Class/CDC/Src/usbh_cdc.c"
   1:Middlewares/ST/STM32_USB_Host_Library/Class/CDC/Src/usbh_cdc.c **** /**
   2:Middlewares/ST/STM32_USB_Host_Library/Class/CDC/Src/usbh_cdc.c ****   ******************************************************************************
   3:Middlewares/ST/STM32_USB_Host_Library/Class/CDC/Src/usbh_cdc.c ****   * @file    usbh_cdc.c
   4:Middlewares/ST/STM32_USB_Host_Library/Class/CDC/Src/usbh_cdc.c ****   * @author  MCD Application Team
   5:Middlewares/ST/STM32_USB_Host_Library/Class/CDC/Src/usbh_cdc.c ****   * @brief   This file is the CDC Layer Handlers for USB Host CDC class.
   6:Middlewares/ST/STM32_USB_Host_Library/Class/CDC/Src/usbh_cdc.c ****   *           
   7:Middlewares/ST/STM32_USB_Host_Library/Class/CDC/Src/usbh_cdc.c ****   *  @verbatim
   8:Middlewares/ST/STM32_USB_Host_Library/Class/CDC/Src/usbh_cdc.c ****   *      
   9:Middlewares/ST/STM32_USB_Host_Library/Class/CDC/Src/usbh_cdc.c ****   *          ===================================================================      
  10:Middlewares/ST/STM32_USB_Host_Library/Class/CDC/Src/usbh_cdc.c ****   *                                CDC Class Driver Description
  11:Middlewares/ST/STM32_USB_Host_Library/Class/CDC/Src/usbh_cdc.c ****   *          =================================================================== 
  12:Middlewares/ST/STM32_USB_Host_Library/Class/CDC/Src/usbh_cdc.c ****   *           This driver manages the "Universal Serial Bus Class Definitions for Communications De
  13:Middlewares/ST/STM32_USB_Host_Library/Class/CDC/Src/usbh_cdc.c ****   *           Revision 1.2 November 16, 2007" and the sub-protocol specification of "Universal Seri
  14:Middlewares/ST/STM32_USB_Host_Library/Class/CDC/Src/usbh_cdc.c ****   *           Communications Class Subclass Specification for PSTN Devices Revision 1.2 February 9,
  15:Middlewares/ST/STM32_USB_Host_Library/Class/CDC/Src/usbh_cdc.c ****   *           This driver implements the following aspects of the specification:
  16:Middlewares/ST/STM32_USB_Host_Library/Class/CDC/Src/usbh_cdc.c ****   *             - Device descriptor management
  17:Middlewares/ST/STM32_USB_Host_Library/Class/CDC/Src/usbh_cdc.c ****   *             - Configuration descriptor management
  18:Middlewares/ST/STM32_USB_Host_Library/Class/CDC/Src/usbh_cdc.c ****   *             - Enumeration as CDC device with 2 data endpoints (IN and OUT) and 1 command endpoi
  19:Middlewares/ST/STM32_USB_Host_Library/Class/CDC/Src/usbh_cdc.c ****   *             - Requests management (as described in section 6.2 in specification)
  20:Middlewares/ST/STM32_USB_Host_Library/Class/CDC/Src/usbh_cdc.c ****   *             - Abstract Control Model compliant
  21:Middlewares/ST/STM32_USB_Host_Library/Class/CDC/Src/usbh_cdc.c ****   *             - Union Functional collection (using 1 IN endpoint for control)
  22:Middlewares/ST/STM32_USB_Host_Library/Class/CDC/Src/usbh_cdc.c ****   *             - Data interface class
  23:Middlewares/ST/STM32_USB_Host_Library/Class/CDC/Src/usbh_cdc.c ****   *                 
  24:Middlewares/ST/STM32_USB_Host_Library/Class/CDC/Src/usbh_cdc.c ****   *  @endverbatim
  25:Middlewares/ST/STM32_USB_Host_Library/Class/CDC/Src/usbh_cdc.c ****   * 
  26:Middlewares/ST/STM32_USB_Host_Library/Class/CDC/Src/usbh_cdc.c ****   ******************************************************************************
  27:Middlewares/ST/STM32_USB_Host_Library/Class/CDC/Src/usbh_cdc.c ****   * @attention
  28:Middlewares/ST/STM32_USB_Host_Library/Class/CDC/Src/usbh_cdc.c ****   *
  29:Middlewares/ST/STM32_USB_Host_Library/Class/CDC/Src/usbh_cdc.c ****   * <h2><center>&copy; COPYRIGHT 2015 STMicroelectronics</center></h2>
  30:Middlewares/ST/STM32_USB_Host_Library/Class/CDC/Src/usbh_cdc.c ****   *
  31:Middlewares/ST/STM32_USB_Host_Library/Class/CDC/Src/usbh_cdc.c ****   * Licensed under MCD-ST Liberty SW License Agreement V2, (the "License");
  32:Middlewares/ST/STM32_USB_Host_Library/Class/CDC/Src/usbh_cdc.c ****   * You may not use this file except in compliance with the License.
ARM GAS  /tmp/ccqNwYK1.s 			page 2


  33:Middlewares/ST/STM32_USB_Host_Library/Class/CDC/Src/usbh_cdc.c ****   * You may obtain a copy of the License at:
  34:Middlewares/ST/STM32_USB_Host_Library/Class/CDC/Src/usbh_cdc.c ****   *
  35:Middlewares/ST/STM32_USB_Host_Library/Class/CDC/Src/usbh_cdc.c ****   *        http://www.st.com/software_license_agreement_liberty_v2
  36:Middlewares/ST/STM32_USB_Host_Library/Class/CDC/Src/usbh_cdc.c ****   *
  37:Middlewares/ST/STM32_USB_Host_Library/Class/CDC/Src/usbh_cdc.c ****   * Unless required by applicable law or agreed to in writing, software 
  38:Middlewares/ST/STM32_USB_Host_Library/Class/CDC/Src/usbh_cdc.c ****   * distributed under the License is distributed on an "AS IS" BASIS, 
  39:Middlewares/ST/STM32_USB_Host_Library/Class/CDC/Src/usbh_cdc.c ****   * WITHOUT WARRANTIES OR CONDITIONS OF ANY KIND, either express or implied.
  40:Middlewares/ST/STM32_USB_Host_Library/Class/CDC/Src/usbh_cdc.c ****   * See the License for the specific language governing permissions and
  41:Middlewares/ST/STM32_USB_Host_Library/Class/CDC/Src/usbh_cdc.c ****   * limitations under the License.
  42:Middlewares/ST/STM32_USB_Host_Library/Class/CDC/Src/usbh_cdc.c ****   *
  43:Middlewares/ST/STM32_USB_Host_Library/Class/CDC/Src/usbh_cdc.c ****   ******************************************************************************
  44:Middlewares/ST/STM32_USB_Host_Library/Class/CDC/Src/usbh_cdc.c ****   */
  45:Middlewares/ST/STM32_USB_Host_Library/Class/CDC/Src/usbh_cdc.c **** 
  46:Middlewares/ST/STM32_USB_Host_Library/Class/CDC/Src/usbh_cdc.c ****   /* BSPDependencies
  47:Middlewares/ST/STM32_USB_Host_Library/Class/CDC/Src/usbh_cdc.c ****   - "stm32xxxxx_{eval}{discovery}{nucleo_144}.c"
  48:Middlewares/ST/STM32_USB_Host_Library/Class/CDC/Src/usbh_cdc.c ****   - "stm32xxxxx_{eval}{discovery}_io.c"
  49:Middlewares/ST/STM32_USB_Host_Library/Class/CDC/Src/usbh_cdc.c ****   - "stm32xxxxx_{eval}{discovery}{adafruit}_sd.c"
  50:Middlewares/ST/STM32_USB_Host_Library/Class/CDC/Src/usbh_cdc.c ****   - "stm32xxxxx_{eval}{discovery}{adafruit}_lcd.c"
  51:Middlewares/ST/STM32_USB_Host_Library/Class/CDC/Src/usbh_cdc.c ****   - "stm32xxxxx_{eval}{discovery}_sdram.c"
  52:Middlewares/ST/STM32_USB_Host_Library/Class/CDC/Src/usbh_cdc.c ****   EndBSPDependencies */
  53:Middlewares/ST/STM32_USB_Host_Library/Class/CDC/Src/usbh_cdc.c **** 
  54:Middlewares/ST/STM32_USB_Host_Library/Class/CDC/Src/usbh_cdc.c **** /* Includes ------------------------------------------------------------------*/
  55:Middlewares/ST/STM32_USB_Host_Library/Class/CDC/Src/usbh_cdc.c **** #include "usbh_cdc.h"
  56:Middlewares/ST/STM32_USB_Host_Library/Class/CDC/Src/usbh_cdc.c **** 
  57:Middlewares/ST/STM32_USB_Host_Library/Class/CDC/Src/usbh_cdc.c **** /** @addtogroup USBH_LIB
  58:Middlewares/ST/STM32_USB_Host_Library/Class/CDC/Src/usbh_cdc.c **** * @{
  59:Middlewares/ST/STM32_USB_Host_Library/Class/CDC/Src/usbh_cdc.c **** */
  60:Middlewares/ST/STM32_USB_Host_Library/Class/CDC/Src/usbh_cdc.c **** 
  61:Middlewares/ST/STM32_USB_Host_Library/Class/CDC/Src/usbh_cdc.c **** /** @addtogroup USBH_CLASS
  62:Middlewares/ST/STM32_USB_Host_Library/Class/CDC/Src/usbh_cdc.c **** * @{
  63:Middlewares/ST/STM32_USB_Host_Library/Class/CDC/Src/usbh_cdc.c **** */
  64:Middlewares/ST/STM32_USB_Host_Library/Class/CDC/Src/usbh_cdc.c **** 
  65:Middlewares/ST/STM32_USB_Host_Library/Class/CDC/Src/usbh_cdc.c **** /** @addtogroup USBH_CDC_CLASS
  66:Middlewares/ST/STM32_USB_Host_Library/Class/CDC/Src/usbh_cdc.c **** * @{
  67:Middlewares/ST/STM32_USB_Host_Library/Class/CDC/Src/usbh_cdc.c **** */
  68:Middlewares/ST/STM32_USB_Host_Library/Class/CDC/Src/usbh_cdc.c **** 
  69:Middlewares/ST/STM32_USB_Host_Library/Class/CDC/Src/usbh_cdc.c **** /** @defgroup USBH_CDC_CORE 
  70:Middlewares/ST/STM32_USB_Host_Library/Class/CDC/Src/usbh_cdc.c **** * @brief    This file includes CDC Layer Handlers for USB Host CDC class.
  71:Middlewares/ST/STM32_USB_Host_Library/Class/CDC/Src/usbh_cdc.c **** * @{
  72:Middlewares/ST/STM32_USB_Host_Library/Class/CDC/Src/usbh_cdc.c **** */ 
  73:Middlewares/ST/STM32_USB_Host_Library/Class/CDC/Src/usbh_cdc.c **** 
  74:Middlewares/ST/STM32_USB_Host_Library/Class/CDC/Src/usbh_cdc.c **** /** @defgroup USBH_CDC_CORE_Private_TypesDefinitions
  75:Middlewares/ST/STM32_USB_Host_Library/Class/CDC/Src/usbh_cdc.c **** * @{
  76:Middlewares/ST/STM32_USB_Host_Library/Class/CDC/Src/usbh_cdc.c **** */ 
  77:Middlewares/ST/STM32_USB_Host_Library/Class/CDC/Src/usbh_cdc.c **** /**
  78:Middlewares/ST/STM32_USB_Host_Library/Class/CDC/Src/usbh_cdc.c **** * @}
  79:Middlewares/ST/STM32_USB_Host_Library/Class/CDC/Src/usbh_cdc.c **** */ 
  80:Middlewares/ST/STM32_USB_Host_Library/Class/CDC/Src/usbh_cdc.c **** 
  81:Middlewares/ST/STM32_USB_Host_Library/Class/CDC/Src/usbh_cdc.c **** 
  82:Middlewares/ST/STM32_USB_Host_Library/Class/CDC/Src/usbh_cdc.c **** /** @defgroup USBH_CDC_CORE_Private_Defines
  83:Middlewares/ST/STM32_USB_Host_Library/Class/CDC/Src/usbh_cdc.c **** * @{
  84:Middlewares/ST/STM32_USB_Host_Library/Class/CDC/Src/usbh_cdc.c **** */ 
  85:Middlewares/ST/STM32_USB_Host_Library/Class/CDC/Src/usbh_cdc.c **** #define USBH_CDC_BUFFER_SIZE                 1024
  86:Middlewares/ST/STM32_USB_Host_Library/Class/CDC/Src/usbh_cdc.c **** /**
  87:Middlewares/ST/STM32_USB_Host_Library/Class/CDC/Src/usbh_cdc.c **** * @}
  88:Middlewares/ST/STM32_USB_Host_Library/Class/CDC/Src/usbh_cdc.c **** */ 
  89:Middlewares/ST/STM32_USB_Host_Library/Class/CDC/Src/usbh_cdc.c **** 
ARM GAS  /tmp/ccqNwYK1.s 			page 3


  90:Middlewares/ST/STM32_USB_Host_Library/Class/CDC/Src/usbh_cdc.c **** 
  91:Middlewares/ST/STM32_USB_Host_Library/Class/CDC/Src/usbh_cdc.c **** /** @defgroup USBH_CDC_CORE_Private_Macros
  92:Middlewares/ST/STM32_USB_Host_Library/Class/CDC/Src/usbh_cdc.c **** * @{
  93:Middlewares/ST/STM32_USB_Host_Library/Class/CDC/Src/usbh_cdc.c **** */ 
  94:Middlewares/ST/STM32_USB_Host_Library/Class/CDC/Src/usbh_cdc.c **** /**
  95:Middlewares/ST/STM32_USB_Host_Library/Class/CDC/Src/usbh_cdc.c **** * @}
  96:Middlewares/ST/STM32_USB_Host_Library/Class/CDC/Src/usbh_cdc.c **** */ 
  97:Middlewares/ST/STM32_USB_Host_Library/Class/CDC/Src/usbh_cdc.c **** 
  98:Middlewares/ST/STM32_USB_Host_Library/Class/CDC/Src/usbh_cdc.c **** 
  99:Middlewares/ST/STM32_USB_Host_Library/Class/CDC/Src/usbh_cdc.c **** /** @defgroup USBH_CDC_CORE_Private_Variables
 100:Middlewares/ST/STM32_USB_Host_Library/Class/CDC/Src/usbh_cdc.c **** * @{
 101:Middlewares/ST/STM32_USB_Host_Library/Class/CDC/Src/usbh_cdc.c **** */
 102:Middlewares/ST/STM32_USB_Host_Library/Class/CDC/Src/usbh_cdc.c **** /**
 103:Middlewares/ST/STM32_USB_Host_Library/Class/CDC/Src/usbh_cdc.c **** * @}
 104:Middlewares/ST/STM32_USB_Host_Library/Class/CDC/Src/usbh_cdc.c **** */ 
 105:Middlewares/ST/STM32_USB_Host_Library/Class/CDC/Src/usbh_cdc.c **** 
 106:Middlewares/ST/STM32_USB_Host_Library/Class/CDC/Src/usbh_cdc.c **** 
 107:Middlewares/ST/STM32_USB_Host_Library/Class/CDC/Src/usbh_cdc.c **** /** @defgroup USBH_CDC_CORE_Private_FunctionPrototypes
 108:Middlewares/ST/STM32_USB_Host_Library/Class/CDC/Src/usbh_cdc.c **** * @{
 109:Middlewares/ST/STM32_USB_Host_Library/Class/CDC/Src/usbh_cdc.c **** */ 
 110:Middlewares/ST/STM32_USB_Host_Library/Class/CDC/Src/usbh_cdc.c **** 
 111:Middlewares/ST/STM32_USB_Host_Library/Class/CDC/Src/usbh_cdc.c **** static USBH_StatusTypeDef USBH_CDC_InterfaceInit  (USBH_HandleTypeDef *phost);
 112:Middlewares/ST/STM32_USB_Host_Library/Class/CDC/Src/usbh_cdc.c **** 
 113:Middlewares/ST/STM32_USB_Host_Library/Class/CDC/Src/usbh_cdc.c **** static USBH_StatusTypeDef USBH_CDC_InterfaceDeInit  (USBH_HandleTypeDef *phost);
 114:Middlewares/ST/STM32_USB_Host_Library/Class/CDC/Src/usbh_cdc.c **** 
 115:Middlewares/ST/STM32_USB_Host_Library/Class/CDC/Src/usbh_cdc.c **** static USBH_StatusTypeDef USBH_CDC_Process(USBH_HandleTypeDef *phost);
 116:Middlewares/ST/STM32_USB_Host_Library/Class/CDC/Src/usbh_cdc.c **** 
 117:Middlewares/ST/STM32_USB_Host_Library/Class/CDC/Src/usbh_cdc.c **** static USBH_StatusTypeDef USBH_CDC_SOFProcess(USBH_HandleTypeDef *phost);
 118:Middlewares/ST/STM32_USB_Host_Library/Class/CDC/Src/usbh_cdc.c **** 
 119:Middlewares/ST/STM32_USB_Host_Library/Class/CDC/Src/usbh_cdc.c **** static USBH_StatusTypeDef USBH_CDC_ClassRequest (USBH_HandleTypeDef *phost);
 120:Middlewares/ST/STM32_USB_Host_Library/Class/CDC/Src/usbh_cdc.c **** 
 121:Middlewares/ST/STM32_USB_Host_Library/Class/CDC/Src/usbh_cdc.c **** static USBH_StatusTypeDef GetLineCoding(USBH_HandleTypeDef *phost, 
 122:Middlewares/ST/STM32_USB_Host_Library/Class/CDC/Src/usbh_cdc.c ****                                                  CDC_LineCodingTypeDef *linecoding);
 123:Middlewares/ST/STM32_USB_Host_Library/Class/CDC/Src/usbh_cdc.c **** 
 124:Middlewares/ST/STM32_USB_Host_Library/Class/CDC/Src/usbh_cdc.c **** static USBH_StatusTypeDef SetLineCoding(USBH_HandleTypeDef *phost, 
 125:Middlewares/ST/STM32_USB_Host_Library/Class/CDC/Src/usbh_cdc.c ****                                                  CDC_LineCodingTypeDef *linecoding);
 126:Middlewares/ST/STM32_USB_Host_Library/Class/CDC/Src/usbh_cdc.c **** 
 127:Middlewares/ST/STM32_USB_Host_Library/Class/CDC/Src/usbh_cdc.c **** static void CDC_ProcessTransmission(USBH_HandleTypeDef *phost);
 128:Middlewares/ST/STM32_USB_Host_Library/Class/CDC/Src/usbh_cdc.c **** 
 129:Middlewares/ST/STM32_USB_Host_Library/Class/CDC/Src/usbh_cdc.c **** static void CDC_ProcessReception(USBH_HandleTypeDef *phost);
 130:Middlewares/ST/STM32_USB_Host_Library/Class/CDC/Src/usbh_cdc.c **** 
 131:Middlewares/ST/STM32_USB_Host_Library/Class/CDC/Src/usbh_cdc.c **** USBH_ClassTypeDef  CDC_Class = 
 132:Middlewares/ST/STM32_USB_Host_Library/Class/CDC/Src/usbh_cdc.c **** {
 133:Middlewares/ST/STM32_USB_Host_Library/Class/CDC/Src/usbh_cdc.c ****   "CDC",
 134:Middlewares/ST/STM32_USB_Host_Library/Class/CDC/Src/usbh_cdc.c ****   USB_CDC_CLASS,
 135:Middlewares/ST/STM32_USB_Host_Library/Class/CDC/Src/usbh_cdc.c ****   USBH_CDC_InterfaceInit,
 136:Middlewares/ST/STM32_USB_Host_Library/Class/CDC/Src/usbh_cdc.c ****   USBH_CDC_InterfaceDeInit,
 137:Middlewares/ST/STM32_USB_Host_Library/Class/CDC/Src/usbh_cdc.c ****   USBH_CDC_ClassRequest,
 138:Middlewares/ST/STM32_USB_Host_Library/Class/CDC/Src/usbh_cdc.c ****   USBH_CDC_Process,
 139:Middlewares/ST/STM32_USB_Host_Library/Class/CDC/Src/usbh_cdc.c ****   USBH_CDC_SOFProcess,
 140:Middlewares/ST/STM32_USB_Host_Library/Class/CDC/Src/usbh_cdc.c ****   NULL,
 141:Middlewares/ST/STM32_USB_Host_Library/Class/CDC/Src/usbh_cdc.c **** };
 142:Middlewares/ST/STM32_USB_Host_Library/Class/CDC/Src/usbh_cdc.c **** /**
 143:Middlewares/ST/STM32_USB_Host_Library/Class/CDC/Src/usbh_cdc.c **** * @}
 144:Middlewares/ST/STM32_USB_Host_Library/Class/CDC/Src/usbh_cdc.c **** */ 
 145:Middlewares/ST/STM32_USB_Host_Library/Class/CDC/Src/usbh_cdc.c **** 
 146:Middlewares/ST/STM32_USB_Host_Library/Class/CDC/Src/usbh_cdc.c **** 
ARM GAS  /tmp/ccqNwYK1.s 			page 4


 147:Middlewares/ST/STM32_USB_Host_Library/Class/CDC/Src/usbh_cdc.c **** /** @defgroup USBH_CDC_CORE_Private_Functions
 148:Middlewares/ST/STM32_USB_Host_Library/Class/CDC/Src/usbh_cdc.c **** * @{
 149:Middlewares/ST/STM32_USB_Host_Library/Class/CDC/Src/usbh_cdc.c **** */ 
 150:Middlewares/ST/STM32_USB_Host_Library/Class/CDC/Src/usbh_cdc.c **** 
 151:Middlewares/ST/STM32_USB_Host_Library/Class/CDC/Src/usbh_cdc.c **** /**
 152:Middlewares/ST/STM32_USB_Host_Library/Class/CDC/Src/usbh_cdc.c ****   * @brief  USBH_CDC_InterfaceInit 
 153:Middlewares/ST/STM32_USB_Host_Library/Class/CDC/Src/usbh_cdc.c ****   *         The function init the CDC class.
 154:Middlewares/ST/STM32_USB_Host_Library/Class/CDC/Src/usbh_cdc.c ****   * @param  phost: Host handle
 155:Middlewares/ST/STM32_USB_Host_Library/Class/CDC/Src/usbh_cdc.c ****   * @retval USBH Status
 156:Middlewares/ST/STM32_USB_Host_Library/Class/CDC/Src/usbh_cdc.c ****   */
 157:Middlewares/ST/STM32_USB_Host_Library/Class/CDC/Src/usbh_cdc.c **** static USBH_StatusTypeDef USBH_CDC_InterfaceInit (USBH_HandleTypeDef *phost)
 158:Middlewares/ST/STM32_USB_Host_Library/Class/CDC/Src/usbh_cdc.c **** {	
 159:Middlewares/ST/STM32_USB_Host_Library/Class/CDC/Src/usbh_cdc.c **** 
 160:Middlewares/ST/STM32_USB_Host_Library/Class/CDC/Src/usbh_cdc.c ****   USBH_StatusTypeDef status = USBH_FAIL ;
 161:Middlewares/ST/STM32_USB_Host_Library/Class/CDC/Src/usbh_cdc.c ****   uint8_t interface;
 162:Middlewares/ST/STM32_USB_Host_Library/Class/CDC/Src/usbh_cdc.c ****   CDC_HandleTypeDef *CDC_Handle;
 163:Middlewares/ST/STM32_USB_Host_Library/Class/CDC/Src/usbh_cdc.c ****   
 164:Middlewares/ST/STM32_USB_Host_Library/Class/CDC/Src/usbh_cdc.c ****   interface = USBH_FindInterface(phost, 
 165:Middlewares/ST/STM32_USB_Host_Library/Class/CDC/Src/usbh_cdc.c ****                                  COMMUNICATION_INTERFACE_CLASS_CODE, 
 166:Middlewares/ST/STM32_USB_Host_Library/Class/CDC/Src/usbh_cdc.c ****                                  ABSTRACT_CONTROL_MODEL, 
 167:Middlewares/ST/STM32_USB_Host_Library/Class/CDC/Src/usbh_cdc.c ****                                  COMMON_AT_COMMAND);
 168:Middlewares/ST/STM32_USB_Host_Library/Class/CDC/Src/usbh_cdc.c ****   
 169:Middlewares/ST/STM32_USB_Host_Library/Class/CDC/Src/usbh_cdc.c ****   if(interface == 0xFF) /* No Valid Interface */
 170:Middlewares/ST/STM32_USB_Host_Library/Class/CDC/Src/usbh_cdc.c ****   {
 171:Middlewares/ST/STM32_USB_Host_Library/Class/CDC/Src/usbh_cdc.c ****     USBH_DbgLog ("Cannot Find the interface for Communication Interface Class.", phost->pActiveClas
 172:Middlewares/ST/STM32_USB_Host_Library/Class/CDC/Src/usbh_cdc.c ****   }
 173:Middlewares/ST/STM32_USB_Host_Library/Class/CDC/Src/usbh_cdc.c ****   else
 174:Middlewares/ST/STM32_USB_Host_Library/Class/CDC/Src/usbh_cdc.c ****   {
 175:Middlewares/ST/STM32_USB_Host_Library/Class/CDC/Src/usbh_cdc.c ****     USBH_SelectInterface (phost, interface);
 176:Middlewares/ST/STM32_USB_Host_Library/Class/CDC/Src/usbh_cdc.c ****     phost->pActiveClass->pData = (CDC_HandleTypeDef *)USBH_malloc (sizeof(CDC_HandleTypeDef));
 177:Middlewares/ST/STM32_USB_Host_Library/Class/CDC/Src/usbh_cdc.c ****     CDC_Handle =  (CDC_HandleTypeDef*) phost->pActiveClass->pData; 
 178:Middlewares/ST/STM32_USB_Host_Library/Class/CDC/Src/usbh_cdc.c ****     
 179:Middlewares/ST/STM32_USB_Host_Library/Class/CDC/Src/usbh_cdc.c ****     /*Collect the notification endpoint address and length*/
 180:Middlewares/ST/STM32_USB_Host_Library/Class/CDC/Src/usbh_cdc.c ****     if(phost->device.CfgDesc.Itf_Desc[interface].Ep_Desc[0].bEndpointAddress & 0x80)
 181:Middlewares/ST/STM32_USB_Host_Library/Class/CDC/Src/usbh_cdc.c ****     {
 182:Middlewares/ST/STM32_USB_Host_Library/Class/CDC/Src/usbh_cdc.c ****       CDC_Handle->CommItf.NotifEp = phost->device.CfgDesc.Itf_Desc[interface].Ep_Desc[0].bEndpointA
 183:Middlewares/ST/STM32_USB_Host_Library/Class/CDC/Src/usbh_cdc.c ****       CDC_Handle->CommItf.NotifEpSize  = phost->device.CfgDesc.Itf_Desc[interface].Ep_Desc[0].wMaxP
 184:Middlewares/ST/STM32_USB_Host_Library/Class/CDC/Src/usbh_cdc.c ****     }
 185:Middlewares/ST/STM32_USB_Host_Library/Class/CDC/Src/usbh_cdc.c ****     
 186:Middlewares/ST/STM32_USB_Host_Library/Class/CDC/Src/usbh_cdc.c ****     /*Allocate the length for host channel number in*/
 187:Middlewares/ST/STM32_USB_Host_Library/Class/CDC/Src/usbh_cdc.c ****     CDC_Handle->CommItf.NotifPipe = USBH_AllocPipe(phost, CDC_Handle->CommItf.NotifEp);
 188:Middlewares/ST/STM32_USB_Host_Library/Class/CDC/Src/usbh_cdc.c ****     
 189:Middlewares/ST/STM32_USB_Host_Library/Class/CDC/Src/usbh_cdc.c ****     /* Open pipe for Notification endpoint */
 190:Middlewares/ST/STM32_USB_Host_Library/Class/CDC/Src/usbh_cdc.c ****     USBH_OpenPipe  (phost,
 191:Middlewares/ST/STM32_USB_Host_Library/Class/CDC/Src/usbh_cdc.c ****                     CDC_Handle->CommItf.NotifPipe,
 192:Middlewares/ST/STM32_USB_Host_Library/Class/CDC/Src/usbh_cdc.c ****                     CDC_Handle->CommItf.NotifEp,                            
 193:Middlewares/ST/STM32_USB_Host_Library/Class/CDC/Src/usbh_cdc.c ****                     phost->device.address,
 194:Middlewares/ST/STM32_USB_Host_Library/Class/CDC/Src/usbh_cdc.c ****                     phost->device.speed,
 195:Middlewares/ST/STM32_USB_Host_Library/Class/CDC/Src/usbh_cdc.c ****                     USB_EP_TYPE_INTR,
 196:Middlewares/ST/STM32_USB_Host_Library/Class/CDC/Src/usbh_cdc.c ****                     CDC_Handle->CommItf.NotifEpSize); 
 197:Middlewares/ST/STM32_USB_Host_Library/Class/CDC/Src/usbh_cdc.c ****     
 198:Middlewares/ST/STM32_USB_Host_Library/Class/CDC/Src/usbh_cdc.c ****     USBH_LL_SetToggle (phost, CDC_Handle->CommItf.NotifPipe, 0);    
 199:Middlewares/ST/STM32_USB_Host_Library/Class/CDC/Src/usbh_cdc.c ****     
 200:Middlewares/ST/STM32_USB_Host_Library/Class/CDC/Src/usbh_cdc.c ****     interface = USBH_FindInterface(phost, 
 201:Middlewares/ST/STM32_USB_Host_Library/Class/CDC/Src/usbh_cdc.c ****                                    DATA_INTERFACE_CLASS_CODE, 
 202:Middlewares/ST/STM32_USB_Host_Library/Class/CDC/Src/usbh_cdc.c ****                                    RESERVED, 
 203:Middlewares/ST/STM32_USB_Host_Library/Class/CDC/Src/usbh_cdc.c ****                                    NO_CLASS_SPECIFIC_PROTOCOL_CODE);
ARM GAS  /tmp/ccqNwYK1.s 			page 5


 204:Middlewares/ST/STM32_USB_Host_Library/Class/CDC/Src/usbh_cdc.c ****     
 205:Middlewares/ST/STM32_USB_Host_Library/Class/CDC/Src/usbh_cdc.c ****     if(interface == 0xFF) /* No Valid Interface */
 206:Middlewares/ST/STM32_USB_Host_Library/Class/CDC/Src/usbh_cdc.c ****     {
 207:Middlewares/ST/STM32_USB_Host_Library/Class/CDC/Src/usbh_cdc.c ****       USBH_DbgLog ("Cannot Find the interface for Data Interface Class.", phost->pActiveClass->Name
 208:Middlewares/ST/STM32_USB_Host_Library/Class/CDC/Src/usbh_cdc.c ****     }
 209:Middlewares/ST/STM32_USB_Host_Library/Class/CDC/Src/usbh_cdc.c ****     else
 210:Middlewares/ST/STM32_USB_Host_Library/Class/CDC/Src/usbh_cdc.c ****     {    
 211:Middlewares/ST/STM32_USB_Host_Library/Class/CDC/Src/usbh_cdc.c ****       /*Collect the class specific endpoint address and length*/
 212:Middlewares/ST/STM32_USB_Host_Library/Class/CDC/Src/usbh_cdc.c ****       if(phost->device.CfgDesc.Itf_Desc[interface].Ep_Desc[0].bEndpointAddress & 0x80)
 213:Middlewares/ST/STM32_USB_Host_Library/Class/CDC/Src/usbh_cdc.c ****       {      
 214:Middlewares/ST/STM32_USB_Host_Library/Class/CDC/Src/usbh_cdc.c ****         CDC_Handle->DataItf.InEp = phost->device.CfgDesc.Itf_Desc[interface].Ep_Desc[0].bEndpointAd
 215:Middlewares/ST/STM32_USB_Host_Library/Class/CDC/Src/usbh_cdc.c ****         CDC_Handle->DataItf.InEpSize  = phost->device.CfgDesc.Itf_Desc[interface].Ep_Desc[0].wMaxPa
 216:Middlewares/ST/STM32_USB_Host_Library/Class/CDC/Src/usbh_cdc.c ****       }
 217:Middlewares/ST/STM32_USB_Host_Library/Class/CDC/Src/usbh_cdc.c ****       else
 218:Middlewares/ST/STM32_USB_Host_Library/Class/CDC/Src/usbh_cdc.c ****       {
 219:Middlewares/ST/STM32_USB_Host_Library/Class/CDC/Src/usbh_cdc.c ****         CDC_Handle->DataItf.OutEp = phost->device.CfgDesc.Itf_Desc[interface].Ep_Desc[0].bEndpointA
 220:Middlewares/ST/STM32_USB_Host_Library/Class/CDC/Src/usbh_cdc.c ****         CDC_Handle->DataItf.OutEpSize  = phost->device.CfgDesc.Itf_Desc[interface].Ep_Desc[0].wMaxP
 221:Middlewares/ST/STM32_USB_Host_Library/Class/CDC/Src/usbh_cdc.c ****       }
 222:Middlewares/ST/STM32_USB_Host_Library/Class/CDC/Src/usbh_cdc.c ****       
 223:Middlewares/ST/STM32_USB_Host_Library/Class/CDC/Src/usbh_cdc.c ****       if(phost->device.CfgDesc.Itf_Desc[interface].Ep_Desc[1].bEndpointAddress & 0x80)
 224:Middlewares/ST/STM32_USB_Host_Library/Class/CDC/Src/usbh_cdc.c ****       {      
 225:Middlewares/ST/STM32_USB_Host_Library/Class/CDC/Src/usbh_cdc.c ****         CDC_Handle->DataItf.InEp = phost->device.CfgDesc.Itf_Desc[interface].Ep_Desc[1].bEndpointAd
 226:Middlewares/ST/STM32_USB_Host_Library/Class/CDC/Src/usbh_cdc.c ****         CDC_Handle->DataItf.InEpSize  = phost->device.CfgDesc.Itf_Desc[interface].Ep_Desc[1].wMaxPa
 227:Middlewares/ST/STM32_USB_Host_Library/Class/CDC/Src/usbh_cdc.c ****       }
 228:Middlewares/ST/STM32_USB_Host_Library/Class/CDC/Src/usbh_cdc.c ****       else
 229:Middlewares/ST/STM32_USB_Host_Library/Class/CDC/Src/usbh_cdc.c ****       {
 230:Middlewares/ST/STM32_USB_Host_Library/Class/CDC/Src/usbh_cdc.c ****         CDC_Handle->DataItf.OutEp = phost->device.CfgDesc.Itf_Desc[interface].Ep_Desc[1].bEndpointA
 231:Middlewares/ST/STM32_USB_Host_Library/Class/CDC/Src/usbh_cdc.c ****         CDC_Handle->DataItf.OutEpSize  = phost->device.CfgDesc.Itf_Desc[interface].Ep_Desc[1].wMaxP
 232:Middlewares/ST/STM32_USB_Host_Library/Class/CDC/Src/usbh_cdc.c ****       }    
 233:Middlewares/ST/STM32_USB_Host_Library/Class/CDC/Src/usbh_cdc.c ****       
 234:Middlewares/ST/STM32_USB_Host_Library/Class/CDC/Src/usbh_cdc.c ****       /*Allocate the length for host channel number out*/
 235:Middlewares/ST/STM32_USB_Host_Library/Class/CDC/Src/usbh_cdc.c ****       CDC_Handle->DataItf.OutPipe = USBH_AllocPipe(phost, CDC_Handle->DataItf.OutEp);
 236:Middlewares/ST/STM32_USB_Host_Library/Class/CDC/Src/usbh_cdc.c ****       
 237:Middlewares/ST/STM32_USB_Host_Library/Class/CDC/Src/usbh_cdc.c ****       /*Allocate the length for host channel number in*/
 238:Middlewares/ST/STM32_USB_Host_Library/Class/CDC/Src/usbh_cdc.c ****       CDC_Handle->DataItf.InPipe = USBH_AllocPipe(phost, CDC_Handle->DataItf.InEp);  
 239:Middlewares/ST/STM32_USB_Host_Library/Class/CDC/Src/usbh_cdc.c ****       
 240:Middlewares/ST/STM32_USB_Host_Library/Class/CDC/Src/usbh_cdc.c ****       /* Open channel for OUT endpoint */
 241:Middlewares/ST/STM32_USB_Host_Library/Class/CDC/Src/usbh_cdc.c ****       USBH_OpenPipe  (phost,
 242:Middlewares/ST/STM32_USB_Host_Library/Class/CDC/Src/usbh_cdc.c ****                       CDC_Handle->DataItf.OutPipe,
 243:Middlewares/ST/STM32_USB_Host_Library/Class/CDC/Src/usbh_cdc.c ****                       CDC_Handle->DataItf.OutEp,
 244:Middlewares/ST/STM32_USB_Host_Library/Class/CDC/Src/usbh_cdc.c ****                       phost->device.address,
 245:Middlewares/ST/STM32_USB_Host_Library/Class/CDC/Src/usbh_cdc.c ****                       phost->device.speed,
 246:Middlewares/ST/STM32_USB_Host_Library/Class/CDC/Src/usbh_cdc.c ****                       USB_EP_TYPE_BULK,
 247:Middlewares/ST/STM32_USB_Host_Library/Class/CDC/Src/usbh_cdc.c ****                       CDC_Handle->DataItf.OutEpSize);  
 248:Middlewares/ST/STM32_USB_Host_Library/Class/CDC/Src/usbh_cdc.c ****       /* Open channel for IN endpoint */
 249:Middlewares/ST/STM32_USB_Host_Library/Class/CDC/Src/usbh_cdc.c ****       USBH_OpenPipe  (phost,
 250:Middlewares/ST/STM32_USB_Host_Library/Class/CDC/Src/usbh_cdc.c ****                       CDC_Handle->DataItf.InPipe,
 251:Middlewares/ST/STM32_USB_Host_Library/Class/CDC/Src/usbh_cdc.c ****                       CDC_Handle->DataItf.InEp,
 252:Middlewares/ST/STM32_USB_Host_Library/Class/CDC/Src/usbh_cdc.c ****                       phost->device.address,
 253:Middlewares/ST/STM32_USB_Host_Library/Class/CDC/Src/usbh_cdc.c ****                       phost->device.speed,
 254:Middlewares/ST/STM32_USB_Host_Library/Class/CDC/Src/usbh_cdc.c ****                       USB_EP_TYPE_BULK,
 255:Middlewares/ST/STM32_USB_Host_Library/Class/CDC/Src/usbh_cdc.c ****                       CDC_Handle->DataItf.InEpSize);
 256:Middlewares/ST/STM32_USB_Host_Library/Class/CDC/Src/usbh_cdc.c ****       
 257:Middlewares/ST/STM32_USB_Host_Library/Class/CDC/Src/usbh_cdc.c ****       CDC_Handle->state = CDC_IDLE_STATE;
 258:Middlewares/ST/STM32_USB_Host_Library/Class/CDC/Src/usbh_cdc.c ****       
 259:Middlewares/ST/STM32_USB_Host_Library/Class/CDC/Src/usbh_cdc.c ****       USBH_LL_SetToggle  (phost, CDC_Handle->DataItf.OutPipe,0);
 260:Middlewares/ST/STM32_USB_Host_Library/Class/CDC/Src/usbh_cdc.c ****       USBH_LL_SetToggle  (phost, CDC_Handle->DataItf.InPipe,0);
ARM GAS  /tmp/ccqNwYK1.s 			page 6


 261:Middlewares/ST/STM32_USB_Host_Library/Class/CDC/Src/usbh_cdc.c ****       status = USBH_OK; 
 262:Middlewares/ST/STM32_USB_Host_Library/Class/CDC/Src/usbh_cdc.c ****     }
 263:Middlewares/ST/STM32_USB_Host_Library/Class/CDC/Src/usbh_cdc.c ****   }
 264:Middlewares/ST/STM32_USB_Host_Library/Class/CDC/Src/usbh_cdc.c ****   return status;
 265:Middlewares/ST/STM32_USB_Host_Library/Class/CDC/Src/usbh_cdc.c **** }
 266:Middlewares/ST/STM32_USB_Host_Library/Class/CDC/Src/usbh_cdc.c **** 
 267:Middlewares/ST/STM32_USB_Host_Library/Class/CDC/Src/usbh_cdc.c **** 
 268:Middlewares/ST/STM32_USB_Host_Library/Class/CDC/Src/usbh_cdc.c **** 
 269:Middlewares/ST/STM32_USB_Host_Library/Class/CDC/Src/usbh_cdc.c **** /**
 270:Middlewares/ST/STM32_USB_Host_Library/Class/CDC/Src/usbh_cdc.c ****   * @brief  USBH_CDC_InterfaceDeInit 
 271:Middlewares/ST/STM32_USB_Host_Library/Class/CDC/Src/usbh_cdc.c ****   *         The function DeInit the Pipes used for the CDC class.
 272:Middlewares/ST/STM32_USB_Host_Library/Class/CDC/Src/usbh_cdc.c ****   * @param  phost: Host handle
 273:Middlewares/ST/STM32_USB_Host_Library/Class/CDC/Src/usbh_cdc.c ****   * @retval USBH Status
 274:Middlewares/ST/STM32_USB_Host_Library/Class/CDC/Src/usbh_cdc.c ****   */
 275:Middlewares/ST/STM32_USB_Host_Library/Class/CDC/Src/usbh_cdc.c **** USBH_StatusTypeDef USBH_CDC_InterfaceDeInit (USBH_HandleTypeDef *phost)
 276:Middlewares/ST/STM32_USB_Host_Library/Class/CDC/Src/usbh_cdc.c **** {
 277:Middlewares/ST/STM32_USB_Host_Library/Class/CDC/Src/usbh_cdc.c ****   CDC_HandleTypeDef *CDC_Handle =  (CDC_HandleTypeDef*) phost->pActiveClass->pData;
 278:Middlewares/ST/STM32_USB_Host_Library/Class/CDC/Src/usbh_cdc.c ****   
 279:Middlewares/ST/STM32_USB_Host_Library/Class/CDC/Src/usbh_cdc.c ****   if ( CDC_Handle->CommItf.NotifPipe)
 280:Middlewares/ST/STM32_USB_Host_Library/Class/CDC/Src/usbh_cdc.c ****   {
 281:Middlewares/ST/STM32_USB_Host_Library/Class/CDC/Src/usbh_cdc.c ****     USBH_ClosePipe(phost, CDC_Handle->CommItf.NotifPipe);
 282:Middlewares/ST/STM32_USB_Host_Library/Class/CDC/Src/usbh_cdc.c ****     USBH_FreePipe  (phost, CDC_Handle->CommItf.NotifPipe);
 283:Middlewares/ST/STM32_USB_Host_Library/Class/CDC/Src/usbh_cdc.c ****     CDC_Handle->CommItf.NotifPipe = 0;     /* Reset the Channel as Free */
 284:Middlewares/ST/STM32_USB_Host_Library/Class/CDC/Src/usbh_cdc.c ****   }
 285:Middlewares/ST/STM32_USB_Host_Library/Class/CDC/Src/usbh_cdc.c ****   
 286:Middlewares/ST/STM32_USB_Host_Library/Class/CDC/Src/usbh_cdc.c ****   if ( CDC_Handle->DataItf.InPipe)
 287:Middlewares/ST/STM32_USB_Host_Library/Class/CDC/Src/usbh_cdc.c ****   {
 288:Middlewares/ST/STM32_USB_Host_Library/Class/CDC/Src/usbh_cdc.c ****     USBH_ClosePipe(phost, CDC_Handle->DataItf.InPipe);
 289:Middlewares/ST/STM32_USB_Host_Library/Class/CDC/Src/usbh_cdc.c ****     USBH_FreePipe  (phost, CDC_Handle->DataItf.InPipe);
 290:Middlewares/ST/STM32_USB_Host_Library/Class/CDC/Src/usbh_cdc.c ****     CDC_Handle->DataItf.InPipe = 0;     /* Reset the Channel as Free */
 291:Middlewares/ST/STM32_USB_Host_Library/Class/CDC/Src/usbh_cdc.c ****   }
 292:Middlewares/ST/STM32_USB_Host_Library/Class/CDC/Src/usbh_cdc.c ****   
 293:Middlewares/ST/STM32_USB_Host_Library/Class/CDC/Src/usbh_cdc.c ****   if ( CDC_Handle->DataItf.OutPipe)
 294:Middlewares/ST/STM32_USB_Host_Library/Class/CDC/Src/usbh_cdc.c ****   {
 295:Middlewares/ST/STM32_USB_Host_Library/Class/CDC/Src/usbh_cdc.c ****     USBH_ClosePipe(phost, CDC_Handle->DataItf.OutPipe);
 296:Middlewares/ST/STM32_USB_Host_Library/Class/CDC/Src/usbh_cdc.c ****     USBH_FreePipe  (phost, CDC_Handle->DataItf.OutPipe);
 297:Middlewares/ST/STM32_USB_Host_Library/Class/CDC/Src/usbh_cdc.c ****     CDC_Handle->DataItf.OutPipe = 0;     /* Reset the Channel as Free */
 298:Middlewares/ST/STM32_USB_Host_Library/Class/CDC/Src/usbh_cdc.c ****   } 
 299:Middlewares/ST/STM32_USB_Host_Library/Class/CDC/Src/usbh_cdc.c ****   
 300:Middlewares/ST/STM32_USB_Host_Library/Class/CDC/Src/usbh_cdc.c ****   if(phost->pActiveClass->pData)
 301:Middlewares/ST/STM32_USB_Host_Library/Class/CDC/Src/usbh_cdc.c ****   {
 302:Middlewares/ST/STM32_USB_Host_Library/Class/CDC/Src/usbh_cdc.c ****     USBH_free (phost->pActiveClass->pData);
 303:Middlewares/ST/STM32_USB_Host_Library/Class/CDC/Src/usbh_cdc.c ****     phost->pActiveClass->pData = 0;
 304:Middlewares/ST/STM32_USB_Host_Library/Class/CDC/Src/usbh_cdc.c ****   }
 305:Middlewares/ST/STM32_USB_Host_Library/Class/CDC/Src/usbh_cdc.c ****    
 306:Middlewares/ST/STM32_USB_Host_Library/Class/CDC/Src/usbh_cdc.c ****   return USBH_OK;
 307:Middlewares/ST/STM32_USB_Host_Library/Class/CDC/Src/usbh_cdc.c **** }
 308:Middlewares/ST/STM32_USB_Host_Library/Class/CDC/Src/usbh_cdc.c **** 
 309:Middlewares/ST/STM32_USB_Host_Library/Class/CDC/Src/usbh_cdc.c **** /**
 310:Middlewares/ST/STM32_USB_Host_Library/Class/CDC/Src/usbh_cdc.c ****   * @brief  USBH_CDC_ClassRequest 
 311:Middlewares/ST/STM32_USB_Host_Library/Class/CDC/Src/usbh_cdc.c ****   *         The function is responsible for handling Standard requests
 312:Middlewares/ST/STM32_USB_Host_Library/Class/CDC/Src/usbh_cdc.c ****   *         for CDC class.
 313:Middlewares/ST/STM32_USB_Host_Library/Class/CDC/Src/usbh_cdc.c ****   * @param  phost: Host handle
 314:Middlewares/ST/STM32_USB_Host_Library/Class/CDC/Src/usbh_cdc.c ****   * @retval USBH Status
 315:Middlewares/ST/STM32_USB_Host_Library/Class/CDC/Src/usbh_cdc.c ****   */
 316:Middlewares/ST/STM32_USB_Host_Library/Class/CDC/Src/usbh_cdc.c **** static USBH_StatusTypeDef USBH_CDC_ClassRequest (USBH_HandleTypeDef *phost)
 317:Middlewares/ST/STM32_USB_Host_Library/Class/CDC/Src/usbh_cdc.c **** {   
ARM GAS  /tmp/ccqNwYK1.s 			page 7


 318:Middlewares/ST/STM32_USB_Host_Library/Class/CDC/Src/usbh_cdc.c ****   USBH_StatusTypeDef status = USBH_FAIL ;  
 319:Middlewares/ST/STM32_USB_Host_Library/Class/CDC/Src/usbh_cdc.c ****   CDC_HandleTypeDef *CDC_Handle =  (CDC_HandleTypeDef*) phost->pActiveClass->pData;  
 320:Middlewares/ST/STM32_USB_Host_Library/Class/CDC/Src/usbh_cdc.c ****   
 321:Middlewares/ST/STM32_USB_Host_Library/Class/CDC/Src/usbh_cdc.c ****   /*Issue the get line coding request*/
 322:Middlewares/ST/STM32_USB_Host_Library/Class/CDC/Src/usbh_cdc.c ****   status =   GetLineCoding(phost, &CDC_Handle->LineCoding);
 323:Middlewares/ST/STM32_USB_Host_Library/Class/CDC/Src/usbh_cdc.c ****   if(status == USBH_OK)
 324:Middlewares/ST/STM32_USB_Host_Library/Class/CDC/Src/usbh_cdc.c ****   {
 325:Middlewares/ST/STM32_USB_Host_Library/Class/CDC/Src/usbh_cdc.c ****     phost->pUser(phost, HOST_USER_CLASS_ACTIVE); 
 326:Middlewares/ST/STM32_USB_Host_Library/Class/CDC/Src/usbh_cdc.c ****   }
 327:Middlewares/ST/STM32_USB_Host_Library/Class/CDC/Src/usbh_cdc.c ****   return status;
 328:Middlewares/ST/STM32_USB_Host_Library/Class/CDC/Src/usbh_cdc.c **** }
 329:Middlewares/ST/STM32_USB_Host_Library/Class/CDC/Src/usbh_cdc.c **** 
 330:Middlewares/ST/STM32_USB_Host_Library/Class/CDC/Src/usbh_cdc.c **** 
 331:Middlewares/ST/STM32_USB_Host_Library/Class/CDC/Src/usbh_cdc.c **** /**
 332:Middlewares/ST/STM32_USB_Host_Library/Class/CDC/Src/usbh_cdc.c ****   * @brief  USBH_CDC_Process 
 333:Middlewares/ST/STM32_USB_Host_Library/Class/CDC/Src/usbh_cdc.c ****   *         The function is for managing state machine for CDC data transfers 
 334:Middlewares/ST/STM32_USB_Host_Library/Class/CDC/Src/usbh_cdc.c ****   * @param  phost: Host handle
 335:Middlewares/ST/STM32_USB_Host_Library/Class/CDC/Src/usbh_cdc.c ****   * @retval USBH Status
 336:Middlewares/ST/STM32_USB_Host_Library/Class/CDC/Src/usbh_cdc.c ****   */
 337:Middlewares/ST/STM32_USB_Host_Library/Class/CDC/Src/usbh_cdc.c **** static USBH_StatusTypeDef USBH_CDC_Process (USBH_HandleTypeDef *phost)
 338:Middlewares/ST/STM32_USB_Host_Library/Class/CDC/Src/usbh_cdc.c **** {
 339:Middlewares/ST/STM32_USB_Host_Library/Class/CDC/Src/usbh_cdc.c ****   USBH_StatusTypeDef status = USBH_BUSY;
 340:Middlewares/ST/STM32_USB_Host_Library/Class/CDC/Src/usbh_cdc.c ****   USBH_StatusTypeDef req_status = USBH_OK;
 341:Middlewares/ST/STM32_USB_Host_Library/Class/CDC/Src/usbh_cdc.c ****   CDC_HandleTypeDef *CDC_Handle =  (CDC_HandleTypeDef*) phost->pActiveClass->pData; 
 342:Middlewares/ST/STM32_USB_Host_Library/Class/CDC/Src/usbh_cdc.c ****   
 343:Middlewares/ST/STM32_USB_Host_Library/Class/CDC/Src/usbh_cdc.c ****   switch(CDC_Handle->state)
 344:Middlewares/ST/STM32_USB_Host_Library/Class/CDC/Src/usbh_cdc.c ****   {
 345:Middlewares/ST/STM32_USB_Host_Library/Class/CDC/Src/usbh_cdc.c ****     
 346:Middlewares/ST/STM32_USB_Host_Library/Class/CDC/Src/usbh_cdc.c ****   case CDC_IDLE_STATE:
 347:Middlewares/ST/STM32_USB_Host_Library/Class/CDC/Src/usbh_cdc.c ****     status = USBH_OK;
 348:Middlewares/ST/STM32_USB_Host_Library/Class/CDC/Src/usbh_cdc.c ****     break;
 349:Middlewares/ST/STM32_USB_Host_Library/Class/CDC/Src/usbh_cdc.c ****     
 350:Middlewares/ST/STM32_USB_Host_Library/Class/CDC/Src/usbh_cdc.c ****   case CDC_SET_LINE_CODING_STATE:
 351:Middlewares/ST/STM32_USB_Host_Library/Class/CDC/Src/usbh_cdc.c ****     req_status = SetLineCoding(phost, CDC_Handle->pUserLineCoding);
 352:Middlewares/ST/STM32_USB_Host_Library/Class/CDC/Src/usbh_cdc.c ****     
 353:Middlewares/ST/STM32_USB_Host_Library/Class/CDC/Src/usbh_cdc.c ****     if(req_status == USBH_OK)
 354:Middlewares/ST/STM32_USB_Host_Library/Class/CDC/Src/usbh_cdc.c ****     {
 355:Middlewares/ST/STM32_USB_Host_Library/Class/CDC/Src/usbh_cdc.c ****       CDC_Handle->state = CDC_GET_LAST_LINE_CODING_STATE; 
 356:Middlewares/ST/STM32_USB_Host_Library/Class/CDC/Src/usbh_cdc.c ****     }
 357:Middlewares/ST/STM32_USB_Host_Library/Class/CDC/Src/usbh_cdc.c ****     
 358:Middlewares/ST/STM32_USB_Host_Library/Class/CDC/Src/usbh_cdc.c ****     else if(req_status != USBH_BUSY)
 359:Middlewares/ST/STM32_USB_Host_Library/Class/CDC/Src/usbh_cdc.c ****     {
 360:Middlewares/ST/STM32_USB_Host_Library/Class/CDC/Src/usbh_cdc.c ****       CDC_Handle->state = CDC_ERROR_STATE; 
 361:Middlewares/ST/STM32_USB_Host_Library/Class/CDC/Src/usbh_cdc.c ****     }
 362:Middlewares/ST/STM32_USB_Host_Library/Class/CDC/Src/usbh_cdc.c ****     break;
 363:Middlewares/ST/STM32_USB_Host_Library/Class/CDC/Src/usbh_cdc.c ****     
 364:Middlewares/ST/STM32_USB_Host_Library/Class/CDC/Src/usbh_cdc.c ****     
 365:Middlewares/ST/STM32_USB_Host_Library/Class/CDC/Src/usbh_cdc.c ****   case CDC_GET_LAST_LINE_CODING_STATE:
 366:Middlewares/ST/STM32_USB_Host_Library/Class/CDC/Src/usbh_cdc.c ****     req_status = GetLineCoding(phost, &(CDC_Handle->LineCoding));
 367:Middlewares/ST/STM32_USB_Host_Library/Class/CDC/Src/usbh_cdc.c ****     
 368:Middlewares/ST/STM32_USB_Host_Library/Class/CDC/Src/usbh_cdc.c ****     if(req_status == USBH_OK)
 369:Middlewares/ST/STM32_USB_Host_Library/Class/CDC/Src/usbh_cdc.c ****     {
 370:Middlewares/ST/STM32_USB_Host_Library/Class/CDC/Src/usbh_cdc.c ****       CDC_Handle->state = CDC_IDLE_STATE; 
 371:Middlewares/ST/STM32_USB_Host_Library/Class/CDC/Src/usbh_cdc.c ****       
 372:Middlewares/ST/STM32_USB_Host_Library/Class/CDC/Src/usbh_cdc.c ****       if((CDC_Handle->LineCoding.b.bCharFormat == CDC_Handle->pUserLineCoding->b.bCharFormat) && 
 373:Middlewares/ST/STM32_USB_Host_Library/Class/CDC/Src/usbh_cdc.c ****          (CDC_Handle->LineCoding.b.bDataBits == CDC_Handle->pUserLineCoding->b.bDataBits) &&
 374:Middlewares/ST/STM32_USB_Host_Library/Class/CDC/Src/usbh_cdc.c ****          (CDC_Handle->LineCoding.b.bParityType == CDC_Handle->pUserLineCoding->b.bParityType) &&
ARM GAS  /tmp/ccqNwYK1.s 			page 8


 375:Middlewares/ST/STM32_USB_Host_Library/Class/CDC/Src/usbh_cdc.c ****          (CDC_Handle->LineCoding.b.dwDTERate == CDC_Handle->pUserLineCoding->b.dwDTERate))
 376:Middlewares/ST/STM32_USB_Host_Library/Class/CDC/Src/usbh_cdc.c ****       {
 377:Middlewares/ST/STM32_USB_Host_Library/Class/CDC/Src/usbh_cdc.c ****         USBH_CDC_LineCodingChanged(phost);
 378:Middlewares/ST/STM32_USB_Host_Library/Class/CDC/Src/usbh_cdc.c ****       }
 379:Middlewares/ST/STM32_USB_Host_Library/Class/CDC/Src/usbh_cdc.c ****     }
 380:Middlewares/ST/STM32_USB_Host_Library/Class/CDC/Src/usbh_cdc.c ****     
 381:Middlewares/ST/STM32_USB_Host_Library/Class/CDC/Src/usbh_cdc.c ****     else if(req_status != USBH_BUSY)
 382:Middlewares/ST/STM32_USB_Host_Library/Class/CDC/Src/usbh_cdc.c ****     {
 383:Middlewares/ST/STM32_USB_Host_Library/Class/CDC/Src/usbh_cdc.c ****       CDC_Handle->state = CDC_ERROR_STATE; 
 384:Middlewares/ST/STM32_USB_Host_Library/Class/CDC/Src/usbh_cdc.c ****     }   
 385:Middlewares/ST/STM32_USB_Host_Library/Class/CDC/Src/usbh_cdc.c **** 
 386:Middlewares/ST/STM32_USB_Host_Library/Class/CDC/Src/usbh_cdc.c ****     break;
 387:Middlewares/ST/STM32_USB_Host_Library/Class/CDC/Src/usbh_cdc.c ****     
 388:Middlewares/ST/STM32_USB_Host_Library/Class/CDC/Src/usbh_cdc.c ****   case CDC_TRANSFER_DATA:
 389:Middlewares/ST/STM32_USB_Host_Library/Class/CDC/Src/usbh_cdc.c ****     CDC_ProcessTransmission(phost);
 390:Middlewares/ST/STM32_USB_Host_Library/Class/CDC/Src/usbh_cdc.c ****     CDC_ProcessReception(phost);
 391:Middlewares/ST/STM32_USB_Host_Library/Class/CDC/Src/usbh_cdc.c ****     break;   
 392:Middlewares/ST/STM32_USB_Host_Library/Class/CDC/Src/usbh_cdc.c ****     
 393:Middlewares/ST/STM32_USB_Host_Library/Class/CDC/Src/usbh_cdc.c ****   case CDC_ERROR_STATE:
 394:Middlewares/ST/STM32_USB_Host_Library/Class/CDC/Src/usbh_cdc.c ****     req_status = USBH_ClrFeature(phost, 0x00); 
 395:Middlewares/ST/STM32_USB_Host_Library/Class/CDC/Src/usbh_cdc.c ****     
 396:Middlewares/ST/STM32_USB_Host_Library/Class/CDC/Src/usbh_cdc.c ****     if(req_status == USBH_OK )
 397:Middlewares/ST/STM32_USB_Host_Library/Class/CDC/Src/usbh_cdc.c ****     {        
 398:Middlewares/ST/STM32_USB_Host_Library/Class/CDC/Src/usbh_cdc.c ****       /*Change the state to waiting*/
 399:Middlewares/ST/STM32_USB_Host_Library/Class/CDC/Src/usbh_cdc.c ****       CDC_Handle->state = CDC_IDLE_STATE ;
 400:Middlewares/ST/STM32_USB_Host_Library/Class/CDC/Src/usbh_cdc.c ****     }    
 401:Middlewares/ST/STM32_USB_Host_Library/Class/CDC/Src/usbh_cdc.c ****     break;
 402:Middlewares/ST/STM32_USB_Host_Library/Class/CDC/Src/usbh_cdc.c ****     
 403:Middlewares/ST/STM32_USB_Host_Library/Class/CDC/Src/usbh_cdc.c ****   default:
 404:Middlewares/ST/STM32_USB_Host_Library/Class/CDC/Src/usbh_cdc.c ****     break;
 405:Middlewares/ST/STM32_USB_Host_Library/Class/CDC/Src/usbh_cdc.c ****     
 406:Middlewares/ST/STM32_USB_Host_Library/Class/CDC/Src/usbh_cdc.c ****   }
 407:Middlewares/ST/STM32_USB_Host_Library/Class/CDC/Src/usbh_cdc.c ****   
 408:Middlewares/ST/STM32_USB_Host_Library/Class/CDC/Src/usbh_cdc.c ****   return status;
 409:Middlewares/ST/STM32_USB_Host_Library/Class/CDC/Src/usbh_cdc.c **** }
 410:Middlewares/ST/STM32_USB_Host_Library/Class/CDC/Src/usbh_cdc.c **** 
 411:Middlewares/ST/STM32_USB_Host_Library/Class/CDC/Src/usbh_cdc.c **** /**
 412:Middlewares/ST/STM32_USB_Host_Library/Class/CDC/Src/usbh_cdc.c ****   * @brief  USBH_CDC_SOFProcess 
 413:Middlewares/ST/STM32_USB_Host_Library/Class/CDC/Src/usbh_cdc.c ****   *         The function is for managing SOF callback 
 414:Middlewares/ST/STM32_USB_Host_Library/Class/CDC/Src/usbh_cdc.c ****   * @param  phost: Host handle
 415:Middlewares/ST/STM32_USB_Host_Library/Class/CDC/Src/usbh_cdc.c ****   * @retval USBH Status
 416:Middlewares/ST/STM32_USB_Host_Library/Class/CDC/Src/usbh_cdc.c ****   */
 417:Middlewares/ST/STM32_USB_Host_Library/Class/CDC/Src/usbh_cdc.c **** static USBH_StatusTypeDef USBH_CDC_SOFProcess (USBH_HandleTypeDef *phost)
 418:Middlewares/ST/STM32_USB_Host_Library/Class/CDC/Src/usbh_cdc.c **** {
  27              		.loc 1 418 0
  28              		.cfi_startproc
  29              		@ args = 0, pretend = 0, frame = 0
  30              		@ frame_needed = 0, uses_anonymous_args = 0
  31              		@ link register save eliminated.
  32              	.LVL0:
 419:Middlewares/ST/STM32_USB_Host_Library/Class/CDC/Src/usbh_cdc.c ****   return USBH_OK;  
 420:Middlewares/ST/STM32_USB_Host_Library/Class/CDC/Src/usbh_cdc.c **** }
  33              		.loc 1 420 0
  34 0000 0020     		movs	r0, #0
  35              	.LVL1:
  36 0002 7047     		bx	lr
  37              		.cfi_endproc
ARM GAS  /tmp/ccqNwYK1.s 			page 9


  38              	.LFE147:
  40              		.section	.text.SetLineCoding,"ax",%progbits
  41              		.align	1
  42              		.syntax unified
  43              		.thumb
  44              		.thumb_func
  45              		.fpu fpv5-sp-d16
  47              	SetLineCoding:
  48              	.LFB150:
 421:Middlewares/ST/STM32_USB_Host_Library/Class/CDC/Src/usbh_cdc.c ****                                    
 422:Middlewares/ST/STM32_USB_Host_Library/Class/CDC/Src/usbh_cdc.c ****   
 423:Middlewares/ST/STM32_USB_Host_Library/Class/CDC/Src/usbh_cdc.c **** /**
 424:Middlewares/ST/STM32_USB_Host_Library/Class/CDC/Src/usbh_cdc.c ****   * @brief  USBH_CDC_Stop 
 425:Middlewares/ST/STM32_USB_Host_Library/Class/CDC/Src/usbh_cdc.c ****   *         Stop current CDC Transmission 
 426:Middlewares/ST/STM32_USB_Host_Library/Class/CDC/Src/usbh_cdc.c ****   * @param  phost: Host handle
 427:Middlewares/ST/STM32_USB_Host_Library/Class/CDC/Src/usbh_cdc.c ****   * @retval USBH Status
 428:Middlewares/ST/STM32_USB_Host_Library/Class/CDC/Src/usbh_cdc.c ****   */
 429:Middlewares/ST/STM32_USB_Host_Library/Class/CDC/Src/usbh_cdc.c **** USBH_StatusTypeDef  USBH_CDC_Stop(USBH_HandleTypeDef *phost)
 430:Middlewares/ST/STM32_USB_Host_Library/Class/CDC/Src/usbh_cdc.c **** {
 431:Middlewares/ST/STM32_USB_Host_Library/Class/CDC/Src/usbh_cdc.c ****   CDC_HandleTypeDef *CDC_Handle =  (CDC_HandleTypeDef*) phost->pActiveClass->pData; 
 432:Middlewares/ST/STM32_USB_Host_Library/Class/CDC/Src/usbh_cdc.c ****   
 433:Middlewares/ST/STM32_USB_Host_Library/Class/CDC/Src/usbh_cdc.c ****   if(phost->gState == HOST_CLASS)
 434:Middlewares/ST/STM32_USB_Host_Library/Class/CDC/Src/usbh_cdc.c ****   {
 435:Middlewares/ST/STM32_USB_Host_Library/Class/CDC/Src/usbh_cdc.c ****     CDC_Handle->state = CDC_IDLE_STATE;
 436:Middlewares/ST/STM32_USB_Host_Library/Class/CDC/Src/usbh_cdc.c ****     
 437:Middlewares/ST/STM32_USB_Host_Library/Class/CDC/Src/usbh_cdc.c ****     USBH_ClosePipe(phost, CDC_Handle->CommItf.NotifPipe);
 438:Middlewares/ST/STM32_USB_Host_Library/Class/CDC/Src/usbh_cdc.c ****     USBH_ClosePipe(phost, CDC_Handle->DataItf.InPipe);
 439:Middlewares/ST/STM32_USB_Host_Library/Class/CDC/Src/usbh_cdc.c ****     USBH_ClosePipe(phost, CDC_Handle->DataItf.OutPipe);
 440:Middlewares/ST/STM32_USB_Host_Library/Class/CDC/Src/usbh_cdc.c ****   }
 441:Middlewares/ST/STM32_USB_Host_Library/Class/CDC/Src/usbh_cdc.c ****   return USBH_OK;  
 442:Middlewares/ST/STM32_USB_Host_Library/Class/CDC/Src/usbh_cdc.c **** }
 443:Middlewares/ST/STM32_USB_Host_Library/Class/CDC/Src/usbh_cdc.c **** /**
 444:Middlewares/ST/STM32_USB_Host_Library/Class/CDC/Src/usbh_cdc.c ****   * @brief  This request allows the host to find out the currently 
 445:Middlewares/ST/STM32_USB_Host_Library/Class/CDC/Src/usbh_cdc.c ****   *         configured line coding.
 446:Middlewares/ST/STM32_USB_Host_Library/Class/CDC/Src/usbh_cdc.c ****   * @param  pdev: Selected device
 447:Middlewares/ST/STM32_USB_Host_Library/Class/CDC/Src/usbh_cdc.c ****   * @retval USBH_StatusTypeDef : USB ctl xfer status
 448:Middlewares/ST/STM32_USB_Host_Library/Class/CDC/Src/usbh_cdc.c ****   */
 449:Middlewares/ST/STM32_USB_Host_Library/Class/CDC/Src/usbh_cdc.c **** static USBH_StatusTypeDef GetLineCoding(USBH_HandleTypeDef *phost, CDC_LineCodingTypeDef *linecodin
 450:Middlewares/ST/STM32_USB_Host_Library/Class/CDC/Src/usbh_cdc.c **** {
 451:Middlewares/ST/STM32_USB_Host_Library/Class/CDC/Src/usbh_cdc.c ****  
 452:Middlewares/ST/STM32_USB_Host_Library/Class/CDC/Src/usbh_cdc.c ****   phost->Control.setup.b.bmRequestType = USB_D2H | USB_REQ_TYPE_CLASS | \
 453:Middlewares/ST/STM32_USB_Host_Library/Class/CDC/Src/usbh_cdc.c ****                               USB_REQ_RECIPIENT_INTERFACE;
 454:Middlewares/ST/STM32_USB_Host_Library/Class/CDC/Src/usbh_cdc.c ****   
 455:Middlewares/ST/STM32_USB_Host_Library/Class/CDC/Src/usbh_cdc.c ****   phost->Control.setup.b.bRequest = CDC_GET_LINE_CODING;
 456:Middlewares/ST/STM32_USB_Host_Library/Class/CDC/Src/usbh_cdc.c ****   phost->Control.setup.b.wValue.w = 0;
 457:Middlewares/ST/STM32_USB_Host_Library/Class/CDC/Src/usbh_cdc.c ****   phost->Control.setup.b.wIndex.w = 0;
 458:Middlewares/ST/STM32_USB_Host_Library/Class/CDC/Src/usbh_cdc.c ****   phost->Control.setup.b.wLength.w = LINE_CODING_STRUCTURE_SIZE;           
 459:Middlewares/ST/STM32_USB_Host_Library/Class/CDC/Src/usbh_cdc.c ****  
 460:Middlewares/ST/STM32_USB_Host_Library/Class/CDC/Src/usbh_cdc.c ****   return USBH_CtlReq(phost, linecoding->Array, LINE_CODING_STRUCTURE_SIZE);
 461:Middlewares/ST/STM32_USB_Host_Library/Class/CDC/Src/usbh_cdc.c **** }
 462:Middlewares/ST/STM32_USB_Host_Library/Class/CDC/Src/usbh_cdc.c **** 
 463:Middlewares/ST/STM32_USB_Host_Library/Class/CDC/Src/usbh_cdc.c **** 
 464:Middlewares/ST/STM32_USB_Host_Library/Class/CDC/Src/usbh_cdc.c **** /**
 465:Middlewares/ST/STM32_USB_Host_Library/Class/CDC/Src/usbh_cdc.c ****   * @brief  This request allows the host to specify typical asynchronous 
 466:Middlewares/ST/STM32_USB_Host_Library/Class/CDC/Src/usbh_cdc.c ****   * line-character formatting properties 
 467:Middlewares/ST/STM32_USB_Host_Library/Class/CDC/Src/usbh_cdc.c ****   * This request applies to asynchronous byte stream data class interfaces 
 468:Middlewares/ST/STM32_USB_Host_Library/Class/CDC/Src/usbh_cdc.c ****   * and endpoints
ARM GAS  /tmp/ccqNwYK1.s 			page 10


 469:Middlewares/ST/STM32_USB_Host_Library/Class/CDC/Src/usbh_cdc.c ****   * @param  pdev: Selected device
 470:Middlewares/ST/STM32_USB_Host_Library/Class/CDC/Src/usbh_cdc.c ****   * @retval USBH_StatusTypeDef : USB ctl xfer status
 471:Middlewares/ST/STM32_USB_Host_Library/Class/CDC/Src/usbh_cdc.c ****   */
 472:Middlewares/ST/STM32_USB_Host_Library/Class/CDC/Src/usbh_cdc.c **** static USBH_StatusTypeDef SetLineCoding(USBH_HandleTypeDef *phost, CDC_LineCodingTypeDef *linecodin
 473:Middlewares/ST/STM32_USB_Host_Library/Class/CDC/Src/usbh_cdc.c **** {
  49              		.loc 1 473 0
  50              		.cfi_startproc
  51              		@ args = 0, pretend = 0, frame = 0
  52              		@ frame_needed = 0, uses_anonymous_args = 0
  53              	.LVL2:
  54 0000 08B5     		push	{r3, lr}
  55              	.LCFI0:
  56              		.cfi_def_cfa_offset 8
  57              		.cfi_offset 3, -8
  58              		.cfi_offset 14, -4
 474:Middlewares/ST/STM32_USB_Host_Library/Class/CDC/Src/usbh_cdc.c ****   phost->Control.setup.b.bmRequestType = USB_H2D | USB_REQ_TYPE_CLASS | \
  59              		.loc 1 474 0
  60 0002 2122     		movs	r2, #33
  61 0004 0274     		strb	r2, [r0, #16]
 475:Middlewares/ST/STM32_USB_Host_Library/Class/CDC/Src/usbh_cdc.c ****                               USB_REQ_RECIPIENT_INTERFACE;
 476:Middlewares/ST/STM32_USB_Host_Library/Class/CDC/Src/usbh_cdc.c ****   
 477:Middlewares/ST/STM32_USB_Host_Library/Class/CDC/Src/usbh_cdc.c ****   phost->Control.setup.b.bRequest = CDC_SET_LINE_CODING;
  62              		.loc 1 477 0
  63 0006 2022     		movs	r2, #32
  64 0008 4274     		strb	r2, [r0, #17]
 478:Middlewares/ST/STM32_USB_Host_Library/Class/CDC/Src/usbh_cdc.c ****   phost->Control.setup.b.wValue.w = 0;
  65              		.loc 1 478 0
  66 000a 0022     		movs	r2, #0
  67 000c 4282     		strh	r2, [r0, #18]	@ movhi
 479:Middlewares/ST/STM32_USB_Host_Library/Class/CDC/Src/usbh_cdc.c **** 
 480:Middlewares/ST/STM32_USB_Host_Library/Class/CDC/Src/usbh_cdc.c ****   phost->Control.setup.b.wIndex.w = 0;
  68              		.loc 1 480 0
  69 000e 8282     		strh	r2, [r0, #20]	@ movhi
 481:Middlewares/ST/STM32_USB_Host_Library/Class/CDC/Src/usbh_cdc.c **** 
 482:Middlewares/ST/STM32_USB_Host_Library/Class/CDC/Src/usbh_cdc.c ****   phost->Control.setup.b.wLength.w = LINE_CODING_STRUCTURE_SIZE;           
  70              		.loc 1 482 0
  71 0010 0722     		movs	r2, #7
  72 0012 C282     		strh	r2, [r0, #22]	@ movhi
 483:Middlewares/ST/STM32_USB_Host_Library/Class/CDC/Src/usbh_cdc.c ****   
 484:Middlewares/ST/STM32_USB_Host_Library/Class/CDC/Src/usbh_cdc.c ****   return USBH_CtlReq(phost, linecodin->Array , LINE_CODING_STRUCTURE_SIZE );  
  73              		.loc 1 484 0
  74 0014 FFF7FEFF 		bl	USBH_CtlReq
  75              	.LVL3:
 485:Middlewares/ST/STM32_USB_Host_Library/Class/CDC/Src/usbh_cdc.c **** }
  76              		.loc 1 485 0
  77 0018 08BD     		pop	{r3, pc}
  78              		.cfi_endproc
  79              	.LFE150:
  81              		.section	.text.GetLineCoding,"ax",%progbits
  82              		.align	1
  83              		.syntax unified
  84              		.thumb
  85              		.thumb_func
  86              		.fpu fpv5-sp-d16
  88              	GetLineCoding:
  89              	.LFB149:
 450:Middlewares/ST/STM32_USB_Host_Library/Class/CDC/Src/usbh_cdc.c ****  
ARM GAS  /tmp/ccqNwYK1.s 			page 11


  90              		.loc 1 450 0
  91              		.cfi_startproc
  92              		@ args = 0, pretend = 0, frame = 0
  93              		@ frame_needed = 0, uses_anonymous_args = 0
  94              	.LVL4:
  95 0000 08B5     		push	{r3, lr}
  96              	.LCFI1:
  97              		.cfi_def_cfa_offset 8
  98              		.cfi_offset 3, -8
  99              		.cfi_offset 14, -4
 452:Middlewares/ST/STM32_USB_Host_Library/Class/CDC/Src/usbh_cdc.c ****                               USB_REQ_RECIPIENT_INTERFACE;
 100              		.loc 1 452 0
 101 0002 A122     		movs	r2, #161
 102 0004 0274     		strb	r2, [r0, #16]
 455:Middlewares/ST/STM32_USB_Host_Library/Class/CDC/Src/usbh_cdc.c ****   phost->Control.setup.b.wValue.w = 0;
 103              		.loc 1 455 0
 104 0006 2122     		movs	r2, #33
 105 0008 4274     		strb	r2, [r0, #17]
 456:Middlewares/ST/STM32_USB_Host_Library/Class/CDC/Src/usbh_cdc.c ****   phost->Control.setup.b.wIndex.w = 0;
 106              		.loc 1 456 0
 107 000a 0022     		movs	r2, #0
 108 000c 4282     		strh	r2, [r0, #18]	@ movhi
 457:Middlewares/ST/STM32_USB_Host_Library/Class/CDC/Src/usbh_cdc.c ****   phost->Control.setup.b.wLength.w = LINE_CODING_STRUCTURE_SIZE;           
 109              		.loc 1 457 0
 110 000e 8282     		strh	r2, [r0, #20]	@ movhi
 458:Middlewares/ST/STM32_USB_Host_Library/Class/CDC/Src/usbh_cdc.c ****  
 111              		.loc 1 458 0
 112 0010 0722     		movs	r2, #7
 113 0012 C282     		strh	r2, [r0, #22]	@ movhi
 460:Middlewares/ST/STM32_USB_Host_Library/Class/CDC/Src/usbh_cdc.c **** }
 114              		.loc 1 460 0
 115 0014 FFF7FEFF 		bl	USBH_CtlReq
 116              	.LVL5:
 461:Middlewares/ST/STM32_USB_Host_Library/Class/CDC/Src/usbh_cdc.c **** 
 117              		.loc 1 461 0
 118 0018 08BD     		pop	{r3, pc}
 119              		.cfi_endproc
 120              	.LFE149:
 122              		.section	.text.USBH_CDC_ClassRequest,"ax",%progbits
 123              		.align	1
 124              		.syntax unified
 125              		.thumb
 126              		.thumb_func
 127              		.fpu fpv5-sp-d16
 129              	USBH_CDC_ClassRequest:
 130              	.LFB145:
 317:Middlewares/ST/STM32_USB_Host_Library/Class/CDC/Src/usbh_cdc.c ****   USBH_StatusTypeDef status = USBH_FAIL ;  
 131              		.loc 1 317 0
 132              		.cfi_startproc
 133              		@ args = 0, pretend = 0, frame = 0
 134              		@ frame_needed = 0, uses_anonymous_args = 0
 135              	.LVL6:
 136 0000 38B5     		push	{r3, r4, r5, lr}
 137              	.LCFI2:
 138              		.cfi_def_cfa_offset 16
 139              		.cfi_offset 3, -16
 140              		.cfi_offset 4, -12
ARM GAS  /tmp/ccqNwYK1.s 			page 12


 141              		.cfi_offset 5, -8
 142              		.cfi_offset 14, -4
 143 0002 0446     		mov	r4, r0
 144              	.LVL7:
 319:Middlewares/ST/STM32_USB_Host_Library/Class/CDC/Src/usbh_cdc.c ****   
 145              		.loc 1 319 0
 146 0004 D0F87433 		ldr	r3, [r0, #884]
 147 0008 D969     		ldr	r1, [r3, #28]
 148              	.LVL8:
 322:Middlewares/ST/STM32_USB_Host_Library/Class/CDC/Src/usbh_cdc.c ****   if(status == USBH_OK)
 149              		.loc 1 322 0
 150 000a 4031     		adds	r1, r1, #64
 151              	.LVL9:
 152 000c FFF7FEFF 		bl	GetLineCoding
 153              	.LVL10:
 323:Middlewares/ST/STM32_USB_Host_Library/Class/CDC/Src/usbh_cdc.c ****   {
 154              		.loc 1 323 0
 155 0010 0546     		mov	r5, r0
 156 0012 20B9     		cbnz	r0, .L7
 325:Middlewares/ST/STM32_USB_Host_Library/Class/CDC/Src/usbh_cdc.c ****   }
 157              		.loc 1 325 0
 158 0014 D4F8C433 		ldr	r3, [r4, #964]
 159 0018 0221     		movs	r1, #2
 160 001a 2046     		mov	r0, r4
 161              	.LVL11:
 162 001c 9847     		blx	r3
 163              	.LVL12:
 164              	.L7:
 328:Middlewares/ST/STM32_USB_Host_Library/Class/CDC/Src/usbh_cdc.c **** 
 165              		.loc 1 328 0
 166 001e 2846     		mov	r0, r5
 167 0020 38BD     		pop	{r3, r4, r5, pc}
 168              		.cfi_endproc
 169              	.LFE145:
 171              		.section	.text.USBH_CDC_InterfaceDeInit,"ax",%progbits
 172              		.align	1
 173              		.syntax unified
 174              		.thumb
 175              		.thumb_func
 176              		.fpu fpv5-sp-d16
 178              	USBH_CDC_InterfaceDeInit:
 179              	.LFB144:
 276:Middlewares/ST/STM32_USB_Host_Library/Class/CDC/Src/usbh_cdc.c ****   CDC_HandleTypeDef *CDC_Handle =  (CDC_HandleTypeDef*) phost->pActiveClass->pData;
 180              		.loc 1 276 0
 181              		.cfi_startproc
 182              		@ args = 0, pretend = 0, frame = 0
 183              		@ frame_needed = 0, uses_anonymous_args = 0
 184              	.LVL13:
 185 0000 38B5     		push	{r3, r4, r5, lr}
 186              	.LCFI3:
 187              		.cfi_def_cfa_offset 16
 188              		.cfi_offset 3, -16
 189              		.cfi_offset 4, -12
 190              		.cfi_offset 5, -8
 191              		.cfi_offset 14, -4
 192 0002 0546     		mov	r5, r0
 277:Middlewares/ST/STM32_USB_Host_Library/Class/CDC/Src/usbh_cdc.c ****   
ARM GAS  /tmp/ccqNwYK1.s 			page 13


 193              		.loc 1 277 0
 194 0004 D0F87433 		ldr	r3, [r0, #884]
 195 0008 DC69     		ldr	r4, [r3, #28]
 196              	.LVL14:
 279:Middlewares/ST/STM32_USB_Host_Library/Class/CDC/Src/usbh_cdc.c ****   {
 197              		.loc 1 279 0
 198 000a 2178     		ldrb	r1, [r4]	@ zero_extendqisi2
 199 000c 79B9     		cbnz	r1, .L15
 200              	.LVL15:
 201              	.L10:
 286:Middlewares/ST/STM32_USB_Host_Library/Class/CDC/Src/usbh_cdc.c ****   {
 202              		.loc 1 286 0
 203 000e 217B     		ldrb	r1, [r4, #12]	@ zero_extendqisi2
 204 0010 B1B9     		cbnz	r1, .L16
 205              	.L11:
 293:Middlewares/ST/STM32_USB_Host_Library/Class/CDC/Src/usbh_cdc.c ****   {
 206              		.loc 1 293 0
 207 0012 617B     		ldrb	r1, [r4, #13]	@ zero_extendqisi2
 208 0014 F1B9     		cbnz	r1, .L17
 209              	.L12:
 300:Middlewares/ST/STM32_USB_Host_Library/Class/CDC/Src/usbh_cdc.c ****   {
 210              		.loc 1 300 0
 211 0016 D5F87433 		ldr	r3, [r5, #884]
 212 001a D869     		ldr	r0, [r3, #28]
 213 001c 28B1     		cbz	r0, .L13
 302:Middlewares/ST/STM32_USB_Host_Library/Class/CDC/Src/usbh_cdc.c ****     phost->pActiveClass->pData = 0;
 214              		.loc 1 302 0
 215 001e FFF7FEFF 		bl	free
 216              	.LVL16:
 303:Middlewares/ST/STM32_USB_Host_Library/Class/CDC/Src/usbh_cdc.c ****   }
 217              		.loc 1 303 0
 218 0022 D5F87433 		ldr	r3, [r5, #884]
 219 0026 0022     		movs	r2, #0
 220 0028 DA61     		str	r2, [r3, #28]
 221              	.L13:
 307:Middlewares/ST/STM32_USB_Host_Library/Class/CDC/Src/usbh_cdc.c **** 
 222              		.loc 1 307 0
 223 002a 0020     		movs	r0, #0
 224 002c 38BD     		pop	{r3, r4, r5, pc}
 225              	.LVL17:
 226              	.L15:
 281:Middlewares/ST/STM32_USB_Host_Library/Class/CDC/Src/usbh_cdc.c ****     USBH_FreePipe  (phost, CDC_Handle->CommItf.NotifPipe);
 227              		.loc 1 281 0
 228 002e FFF7FEFF 		bl	USBH_ClosePipe
 229              	.LVL18:
 282:Middlewares/ST/STM32_USB_Host_Library/Class/CDC/Src/usbh_cdc.c ****     CDC_Handle->CommItf.NotifPipe = 0;     /* Reset the Channel as Free */
 230              		.loc 1 282 0
 231 0032 2178     		ldrb	r1, [r4]	@ zero_extendqisi2
 232 0034 2846     		mov	r0, r5
 233 0036 FFF7FEFF 		bl	USBH_FreePipe
 234              	.LVL19:
 283:Middlewares/ST/STM32_USB_Host_Library/Class/CDC/Src/usbh_cdc.c ****   }
 235              		.loc 1 283 0
 236 003a 0023     		movs	r3, #0
 237 003c 2370     		strb	r3, [r4]
 238 003e E6E7     		b	.L10
 239              	.L16:
ARM GAS  /tmp/ccqNwYK1.s 			page 14


 288:Middlewares/ST/STM32_USB_Host_Library/Class/CDC/Src/usbh_cdc.c ****     USBH_FreePipe  (phost, CDC_Handle->DataItf.InPipe);
 240              		.loc 1 288 0
 241 0040 2846     		mov	r0, r5
 242 0042 FFF7FEFF 		bl	USBH_ClosePipe
 243              	.LVL20:
 289:Middlewares/ST/STM32_USB_Host_Library/Class/CDC/Src/usbh_cdc.c ****     CDC_Handle->DataItf.InPipe = 0;     /* Reset the Channel as Free */
 244              		.loc 1 289 0
 245 0046 217B     		ldrb	r1, [r4, #12]	@ zero_extendqisi2
 246 0048 2846     		mov	r0, r5
 247 004a FFF7FEFF 		bl	USBH_FreePipe
 248              	.LVL21:
 290:Middlewares/ST/STM32_USB_Host_Library/Class/CDC/Src/usbh_cdc.c ****   }
 249              		.loc 1 290 0
 250 004e 0023     		movs	r3, #0
 251 0050 2373     		strb	r3, [r4, #12]
 252 0052 DEE7     		b	.L11
 253              	.L17:
 295:Middlewares/ST/STM32_USB_Host_Library/Class/CDC/Src/usbh_cdc.c ****     USBH_FreePipe  (phost, CDC_Handle->DataItf.OutPipe);
 254              		.loc 1 295 0
 255 0054 2846     		mov	r0, r5
 256 0056 FFF7FEFF 		bl	USBH_ClosePipe
 257              	.LVL22:
 296:Middlewares/ST/STM32_USB_Host_Library/Class/CDC/Src/usbh_cdc.c ****     CDC_Handle->DataItf.OutPipe = 0;     /* Reset the Channel as Free */
 258              		.loc 1 296 0
 259 005a 617B     		ldrb	r1, [r4, #13]	@ zero_extendqisi2
 260 005c 2846     		mov	r0, r5
 261 005e FFF7FEFF 		bl	USBH_FreePipe
 262              	.LVL23:
 297:Middlewares/ST/STM32_USB_Host_Library/Class/CDC/Src/usbh_cdc.c ****   } 
 263              		.loc 1 297 0
 264 0062 0023     		movs	r3, #0
 265 0064 6373     		strb	r3, [r4, #13]
 266 0066 D6E7     		b	.L12
 267              		.cfi_endproc
 268              	.LFE144:
 270              		.section	.text.USBH_CDC_InterfaceInit,"ax",%progbits
 271              		.align	1
 272              		.syntax unified
 273              		.thumb
 274              		.thumb_func
 275              		.fpu fpv5-sp-d16
 277              	USBH_CDC_InterfaceInit:
 278              	.LFB143:
 158:Middlewares/ST/STM32_USB_Host_Library/Class/CDC/Src/usbh_cdc.c **** 
 279              		.loc 1 158 0
 280              		.cfi_startproc
 281              		@ args = 0, pretend = 0, frame = 0
 282              		@ frame_needed = 0, uses_anonymous_args = 0
 283              	.LVL24:
 284 0000 70B5     		push	{r4, r5, r6, lr}
 285              	.LCFI4:
 286              		.cfi_def_cfa_offset 16
 287              		.cfi_offset 4, -16
 288              		.cfi_offset 5, -12
 289              		.cfi_offset 6, -8
 290              		.cfi_offset 14, -4
 291 0002 84B0     		sub	sp, sp, #16
ARM GAS  /tmp/ccqNwYK1.s 			page 15


 292              	.LCFI5:
 293              		.cfi_def_cfa_offset 32
 294 0004 0446     		mov	r4, r0
 295              	.LVL25:
 164:Middlewares/ST/STM32_USB_Host_Library/Class/CDC/Src/usbh_cdc.c ****                                  COMMUNICATION_INTERFACE_CLASS_CODE, 
 296              		.loc 1 164 0
 297 0006 0123     		movs	r3, #1
 298 0008 0222     		movs	r2, #2
 299 000a 1146     		mov	r1, r2
 300 000c FFF7FEFF 		bl	USBH_FindInterface
 301              	.LVL26:
 169:Middlewares/ST/STM32_USB_Host_Library/Class/CDC/Src/usbh_cdc.c ****   {
 302              		.loc 1 169 0
 303 0010 FF28     		cmp	r0, #255
 304 0012 00F0A180 		beq	.L25
 305 0016 0646     		mov	r6, r0
 175:Middlewares/ST/STM32_USB_Host_Library/Class/CDC/Src/usbh_cdc.c ****     phost->pActiveClass->pData = (CDC_HandleTypeDef *)USBH_malloc (sizeof(CDC_HandleTypeDef));
 306              		.loc 1 175 0
 307 0018 0146     		mov	r1, r0
 308 001a 2046     		mov	r0, r4
 309              	.LVL27:
 310 001c FFF7FEFF 		bl	USBH_SelectInterface
 311              	.LVL28:
 176:Middlewares/ST/STM32_USB_Host_Library/Class/CDC/Src/usbh_cdc.c ****     CDC_Handle =  (CDC_HandleTypeDef*) phost->pActiveClass->pData; 
 312              		.loc 1 176 0
 313 0020 D4F87453 		ldr	r5, [r4, #884]
 314 0024 5020     		movs	r0, #80
 315 0026 FFF7FEFF 		bl	malloc
 316              	.LVL29:
 317 002a E861     		str	r0, [r5, #28]
 177:Middlewares/ST/STM32_USB_Host_Library/Class/CDC/Src/usbh_cdc.c ****     
 318              		.loc 1 177 0
 319 002c D4F87433 		ldr	r3, [r4, #884]
 320 0030 DD69     		ldr	r5, [r3, #28]
 321              	.LVL30:
 180:Middlewares/ST/STM32_USB_Host_Library/Class/CDC/Src/usbh_cdc.c ****     {
 322              		.loc 1 180 0
 323 0032 1A23     		movs	r3, #26
 324 0034 03FB0643 		mla	r3, r3, r6, r4
 325 0038 93F84833 		ldrb	r3, [r3, #840]	@ zero_extendqisi2
 326 003c 13F0800F 		tst	r3, #128
 327 0040 72D1     		bne	.L28
 328              	.L20:
 187:Middlewares/ST/STM32_USB_Host_Library/Class/CDC/Src/usbh_cdc.c ****     
 329              		.loc 1 187 0
 330 0042 6978     		ldrb	r1, [r5, #1]	@ zero_extendqisi2
 331 0044 2046     		mov	r0, r4
 332 0046 FFF7FEFF 		bl	USBH_AllocPipe
 333              	.LVL31:
 334 004a 0146     		mov	r1, r0
 335 004c 2870     		strb	r0, [r5]
 190:Middlewares/ST/STM32_USB_Host_Library/Class/CDC/Src/usbh_cdc.c ****                     CDC_Handle->CommItf.NotifPipe,
 336              		.loc 1 190 0
 337 004e 94F81C33 		ldrb	r3, [r4, #796]	@ zero_extendqisi2
 338 0052 6A78     		ldrb	r2, [r5, #1]	@ zero_extendqisi2
 339 0054 6889     		ldrh	r0, [r5, #10]
 340 0056 0290     		str	r0, [sp, #8]
ARM GAS  /tmp/ccqNwYK1.s 			page 16


 341 0058 0320     		movs	r0, #3
 342 005a 0190     		str	r0, [sp, #4]
 343 005c 94F81D03 		ldrb	r0, [r4, #797]	@ zero_extendqisi2
 344 0060 0090     		str	r0, [sp]
 345 0062 2046     		mov	r0, r4
 346 0064 FFF7FEFF 		bl	USBH_OpenPipe
 347              	.LVL32:
 198:Middlewares/ST/STM32_USB_Host_Library/Class/CDC/Src/usbh_cdc.c ****     
 348              		.loc 1 198 0
 349 0068 0022     		movs	r2, #0
 350 006a 2978     		ldrb	r1, [r5]	@ zero_extendqisi2
 351 006c 2046     		mov	r0, r4
 352 006e FFF7FEFF 		bl	USBH_LL_SetToggle
 353              	.LVL33:
 200:Middlewares/ST/STM32_USB_Host_Library/Class/CDC/Src/usbh_cdc.c ****                                    DATA_INTERFACE_CLASS_CODE, 
 354              		.loc 1 200 0
 355 0072 0023     		movs	r3, #0
 356 0074 1A46     		mov	r2, r3
 357 0076 0A21     		movs	r1, #10
 358 0078 2046     		mov	r0, r4
 359 007a FFF7FEFF 		bl	USBH_FindInterface
 360              	.LVL34:
 205:Middlewares/ST/STM32_USB_Host_Library/Class/CDC/Src/usbh_cdc.c ****     {
 361              		.loc 1 205 0
 362 007e FF28     		cmp	r0, #255
 363 0080 6CD0     		beq	.L26
 212:Middlewares/ST/STM32_USB_Host_Library/Class/CDC/Src/usbh_cdc.c ****       {      
 364              		.loc 1 212 0
 365 0082 1A23     		movs	r3, #26
 366 0084 03FB0043 		mla	r3, r3, r0, r4
 367 0088 93F84833 		ldrb	r3, [r3, #840]	@ zero_extendqisi2
 368 008c 13F0800F 		tst	r3, #128
 369 0090 52D1     		bne	.L29
 219:Middlewares/ST/STM32_USB_Host_Library/Class/CDC/Src/usbh_cdc.c ****         CDC_Handle->DataItf.OutEpSize  = phost->device.CfgDesc.Itf_Desc[interface].Ep_Desc[0].wMaxP
 370              		.loc 1 219 0
 371 0092 AB73     		strb	r3, [r5, #14]
 220:Middlewares/ST/STM32_USB_Host_Library/Class/CDC/Src/usbh_cdc.c ****       }
 372              		.loc 1 220 0
 373 0094 1A23     		movs	r3, #26
 374 0096 03FB0043 		mla	r3, r3, r0, r4
 375 009a B3F84A33 		ldrh	r3, [r3, #842]
 376 009e 2B83     		strh	r3, [r5, #24]	@ movhi
 377              	.L22:
 223:Middlewares/ST/STM32_USB_Host_Library/Class/CDC/Src/usbh_cdc.c ****       {      
 378              		.loc 1 223 0
 379 00a0 1A23     		movs	r3, #26
 380 00a2 03FB0043 		mla	r3, r3, r0, r4
 381 00a6 93F85033 		ldrb	r3, [r3, #848]	@ zero_extendqisi2
 382 00aa 13F0800F 		tst	r3, #128
 383 00ae 4BD1     		bne	.L30
 230:Middlewares/ST/STM32_USB_Host_Library/Class/CDC/Src/usbh_cdc.c ****         CDC_Handle->DataItf.OutEpSize  = phost->device.CfgDesc.Itf_Desc[interface].Ep_Desc[1].wMaxP
 384              		.loc 1 230 0
 385 00b0 AB73     		strb	r3, [r5, #14]
 231:Middlewares/ST/STM32_USB_Host_Library/Class/CDC/Src/usbh_cdc.c ****       }    
 386              		.loc 1 231 0
 387 00b2 1A23     		movs	r3, #26
 388 00b4 03FB0040 		mla	r0, r3, r0, r4
ARM GAS  /tmp/ccqNwYK1.s 			page 17


 389              	.LVL35:
 390 00b8 B0F85233 		ldrh	r3, [r0, #850]
 391 00bc 2B83     		strh	r3, [r5, #24]	@ movhi
 392              	.L24:
 235:Middlewares/ST/STM32_USB_Host_Library/Class/CDC/Src/usbh_cdc.c ****       
 393              		.loc 1 235 0
 394 00be A97B     		ldrb	r1, [r5, #14]	@ zero_extendqisi2
 395 00c0 2046     		mov	r0, r4
 396 00c2 FFF7FEFF 		bl	USBH_AllocPipe
 397              	.LVL36:
 398 00c6 6873     		strb	r0, [r5, #13]
 238:Middlewares/ST/STM32_USB_Host_Library/Class/CDC/Src/usbh_cdc.c ****       
 399              		.loc 1 238 0
 400 00c8 E97B     		ldrb	r1, [r5, #15]	@ zero_extendqisi2
 401 00ca 2046     		mov	r0, r4
 402 00cc FFF7FEFF 		bl	USBH_AllocPipe
 403              	.LVL37:
 404 00d0 2873     		strb	r0, [r5, #12]
 241:Middlewares/ST/STM32_USB_Host_Library/Class/CDC/Src/usbh_cdc.c ****                       CDC_Handle->DataItf.OutPipe,
 405              		.loc 1 241 0
 406 00d2 94F81C33 		ldrb	r3, [r4, #796]	@ zero_extendqisi2
 407 00d6 AA7B     		ldrb	r2, [r5, #14]	@ zero_extendqisi2
 408 00d8 697B     		ldrb	r1, [r5, #13]	@ zero_extendqisi2
 409 00da 288B     		ldrh	r0, [r5, #24]
 410 00dc 0290     		str	r0, [sp, #8]
 411 00de 0226     		movs	r6, #2
 412 00e0 0196     		str	r6, [sp, #4]
 413 00e2 94F81D03 		ldrb	r0, [r4, #797]	@ zero_extendqisi2
 414 00e6 0090     		str	r0, [sp]
 415 00e8 2046     		mov	r0, r4
 416 00ea FFF7FEFF 		bl	USBH_OpenPipe
 417              	.LVL38:
 249:Middlewares/ST/STM32_USB_Host_Library/Class/CDC/Src/usbh_cdc.c ****                       CDC_Handle->DataItf.InPipe,
 418              		.loc 1 249 0
 419 00ee 94F81C33 		ldrb	r3, [r4, #796]	@ zero_extendqisi2
 420 00f2 EA7B     		ldrb	r2, [r5, #15]	@ zero_extendqisi2
 421 00f4 297B     		ldrb	r1, [r5, #12]	@ zero_extendqisi2
 422 00f6 688B     		ldrh	r0, [r5, #26]
 423 00f8 0290     		str	r0, [sp, #8]
 424 00fa 0196     		str	r6, [sp, #4]
 425 00fc 94F81D03 		ldrb	r0, [r4, #797]	@ zero_extendqisi2
 426 0100 0090     		str	r0, [sp]
 427 0102 2046     		mov	r0, r4
 428 0104 FFF7FEFF 		bl	USBH_OpenPipe
 429              	.LVL39:
 257:Middlewares/ST/STM32_USB_Host_Library/Class/CDC/Src/usbh_cdc.c ****       
 430              		.loc 1 257 0
 431 0108 0026     		movs	r6, #0
 432 010a 85F84C60 		strb	r6, [r5, #76]
 259:Middlewares/ST/STM32_USB_Host_Library/Class/CDC/Src/usbh_cdc.c ****       USBH_LL_SetToggle  (phost, CDC_Handle->DataItf.InPipe,0);
 433              		.loc 1 259 0
 434 010e 3246     		mov	r2, r6
 435 0110 697B     		ldrb	r1, [r5, #13]	@ zero_extendqisi2
 436 0112 2046     		mov	r0, r4
 437 0114 FFF7FEFF 		bl	USBH_LL_SetToggle
 438              	.LVL40:
 260:Middlewares/ST/STM32_USB_Host_Library/Class/CDC/Src/usbh_cdc.c ****       status = USBH_OK; 
ARM GAS  /tmp/ccqNwYK1.s 			page 18


 439              		.loc 1 260 0
 440 0118 3246     		mov	r2, r6
 441 011a 297B     		ldrb	r1, [r5, #12]	@ zero_extendqisi2
 442 011c 2046     		mov	r0, r4
 443 011e FFF7FEFF 		bl	USBH_LL_SetToggle
 444              	.LVL41:
 261:Middlewares/ST/STM32_USB_Host_Library/Class/CDC/Src/usbh_cdc.c ****     }
 445              		.loc 1 261 0
 446 0122 3046     		mov	r0, r6
 447              	.LVL42:
 448              	.L19:
 265:Middlewares/ST/STM32_USB_Host_Library/Class/CDC/Src/usbh_cdc.c **** 
 449              		.loc 1 265 0
 450 0124 04B0     		add	sp, sp, #16
 451              	.LCFI6:
 452              		.cfi_remember_state
 453              		.cfi_def_cfa_offset 16
 454              		@ sp needed
 455 0126 70BD     		pop	{r4, r5, r6, pc}
 456              	.LVL43:
 457              	.L28:
 458              	.LCFI7:
 459              		.cfi_restore_state
 182:Middlewares/ST/STM32_USB_Host_Library/Class/CDC/Src/usbh_cdc.c ****       CDC_Handle->CommItf.NotifEpSize  = phost->device.CfgDesc.Itf_Desc[interface].Ep_Desc[0].wMaxP
 460              		.loc 1 182 0
 461 0128 6B70     		strb	r3, [r5, #1]
 183:Middlewares/ST/STM32_USB_Host_Library/Class/CDC/Src/usbh_cdc.c ****     }
 462              		.loc 1 183 0
 463 012a 1A23     		movs	r3, #26
 464 012c 03FB0646 		mla	r6, r3, r6, r4
 465 0130 B6F84A33 		ldrh	r3, [r6, #842]
 466 0134 6B81     		strh	r3, [r5, #10]	@ movhi
 467 0136 84E7     		b	.L20
 468              	.LVL44:
 469              	.L29:
 214:Middlewares/ST/STM32_USB_Host_Library/Class/CDC/Src/usbh_cdc.c ****         CDC_Handle->DataItf.InEpSize  = phost->device.CfgDesc.Itf_Desc[interface].Ep_Desc[0].wMaxPa
 470              		.loc 1 214 0
 471 0138 EB73     		strb	r3, [r5, #15]
 215:Middlewares/ST/STM32_USB_Host_Library/Class/CDC/Src/usbh_cdc.c ****       }
 472              		.loc 1 215 0
 473 013a 1A23     		movs	r3, #26
 474 013c 03FB0043 		mla	r3, r3, r0, r4
 475 0140 B3F84A33 		ldrh	r3, [r3, #842]
 476 0144 6B83     		strh	r3, [r5, #26]	@ movhi
 477 0146 ABE7     		b	.L22
 478              	.L30:
 225:Middlewares/ST/STM32_USB_Host_Library/Class/CDC/Src/usbh_cdc.c ****         CDC_Handle->DataItf.InEpSize  = phost->device.CfgDesc.Itf_Desc[interface].Ep_Desc[1].wMaxPa
 479              		.loc 1 225 0
 480 0148 EB73     		strb	r3, [r5, #15]
 226:Middlewares/ST/STM32_USB_Host_Library/Class/CDC/Src/usbh_cdc.c ****       }
 481              		.loc 1 226 0
 482 014a 1A23     		movs	r3, #26
 483 014c 03FB0040 		mla	r0, r3, r0, r4
 484              	.LVL45:
 485 0150 B0F85233 		ldrh	r3, [r0, #850]
 486 0154 6B83     		strh	r3, [r5, #26]	@ movhi
 487 0156 B2E7     		b	.L24
ARM GAS  /tmp/ccqNwYK1.s 			page 19


 488              	.LVL46:
 489              	.L25:
 160:Middlewares/ST/STM32_USB_Host_Library/Class/CDC/Src/usbh_cdc.c ****   uint8_t interface;
 490              		.loc 1 160 0
 491 0158 0220     		movs	r0, #2
 492              	.LVL47:
 493 015a E3E7     		b	.L19
 494              	.LVL48:
 495              	.L26:
 496 015c 0220     		movs	r0, #2
 497              	.LVL49:
 498 015e E1E7     		b	.L19
 499              		.cfi_endproc
 500              	.LFE143:
 502              		.section	.text.USBH_CDC_Stop,"ax",%progbits
 503              		.align	1
 504              		.global	USBH_CDC_Stop
 505              		.syntax unified
 506              		.thumb
 507              		.thumb_func
 508              		.fpu fpv5-sp-d16
 510              	USBH_CDC_Stop:
 511              	.LFB148:
 430:Middlewares/ST/STM32_USB_Host_Library/Class/CDC/Src/usbh_cdc.c ****   CDC_HandleTypeDef *CDC_Handle =  (CDC_HandleTypeDef*) phost->pActiveClass->pData; 
 512              		.loc 1 430 0
 513              		.cfi_startproc
 514              		@ args = 0, pretend = 0, frame = 0
 515              		@ frame_needed = 0, uses_anonymous_args = 0
 516              	.LVL50:
 517 0000 38B5     		push	{r3, r4, r5, lr}
 518              	.LCFI8:
 519              		.cfi_def_cfa_offset 16
 520              		.cfi_offset 3, -16
 521              		.cfi_offset 4, -12
 522              		.cfi_offset 5, -8
 523              		.cfi_offset 14, -4
 431:Middlewares/ST/STM32_USB_Host_Library/Class/CDC/Src/usbh_cdc.c ****   
 524              		.loc 1 431 0
 525 0002 D0F87433 		ldr	r3, [r0, #884]
 526 0006 DD69     		ldr	r5, [r3, #28]
 527              	.LVL51:
 433:Middlewares/ST/STM32_USB_Host_Library/Class/CDC/Src/usbh_cdc.c ****   {
 528              		.loc 1 433 0
 529 0008 0378     		ldrb	r3, [r0]	@ zero_extendqisi2
 530 000a DBB2     		uxtb	r3, r3
 531 000c 0A2B     		cmp	r3, #10
 532 000e 01D0     		beq	.L34
 533              	.LVL52:
 534              	.L32:
 442:Middlewares/ST/STM32_USB_Host_Library/Class/CDC/Src/usbh_cdc.c **** /**
 535              		.loc 1 442 0
 536 0010 0020     		movs	r0, #0
 537 0012 38BD     		pop	{r3, r4, r5, pc}
 538              	.LVL53:
 539              	.L34:
 540 0014 0446     		mov	r4, r0
 435:Middlewares/ST/STM32_USB_Host_Library/Class/CDC/Src/usbh_cdc.c ****     
ARM GAS  /tmp/ccqNwYK1.s 			page 20


 541              		.loc 1 435 0
 542 0016 0023     		movs	r3, #0
 543 0018 85F84C30 		strb	r3, [r5, #76]
 437:Middlewares/ST/STM32_USB_Host_Library/Class/CDC/Src/usbh_cdc.c ****     USBH_ClosePipe(phost, CDC_Handle->DataItf.InPipe);
 544              		.loc 1 437 0
 545 001c 2978     		ldrb	r1, [r5]	@ zero_extendqisi2
 546 001e FFF7FEFF 		bl	USBH_ClosePipe
 547              	.LVL54:
 438:Middlewares/ST/STM32_USB_Host_Library/Class/CDC/Src/usbh_cdc.c ****     USBH_ClosePipe(phost, CDC_Handle->DataItf.OutPipe);
 548              		.loc 1 438 0
 549 0022 297B     		ldrb	r1, [r5, #12]	@ zero_extendqisi2
 550 0024 2046     		mov	r0, r4
 551 0026 FFF7FEFF 		bl	USBH_ClosePipe
 552              	.LVL55:
 439:Middlewares/ST/STM32_USB_Host_Library/Class/CDC/Src/usbh_cdc.c ****   }
 553              		.loc 1 439 0
 554 002a 697B     		ldrb	r1, [r5, #13]	@ zero_extendqisi2
 555 002c 2046     		mov	r0, r4
 556 002e FFF7FEFF 		bl	USBH_ClosePipe
 557              	.LVL56:
 558 0032 EDE7     		b	.L32
 559              		.cfi_endproc
 560              	.LFE148:
 562              		.section	.text.USBH_CDC_SetLineCoding,"ax",%progbits
 563              		.align	1
 564              		.global	USBH_CDC_SetLineCoding
 565              		.syntax unified
 566              		.thumb
 567              		.thumb_func
 568              		.fpu fpv5-sp-d16
 570              	USBH_CDC_SetLineCoding:
 571              	.LFB151:
 486:Middlewares/ST/STM32_USB_Host_Library/Class/CDC/Src/usbh_cdc.c **** 
 487:Middlewares/ST/STM32_USB_Host_Library/Class/CDC/Src/usbh_cdc.c **** /**
 488:Middlewares/ST/STM32_USB_Host_Library/Class/CDC/Src/usbh_cdc.c **** * @brief  This function prepares the state before issuing the class specific commands
 489:Middlewares/ST/STM32_USB_Host_Library/Class/CDC/Src/usbh_cdc.c **** * @param  None
 490:Middlewares/ST/STM32_USB_Host_Library/Class/CDC/Src/usbh_cdc.c **** * @retval None
 491:Middlewares/ST/STM32_USB_Host_Library/Class/CDC/Src/usbh_cdc.c **** */
 492:Middlewares/ST/STM32_USB_Host_Library/Class/CDC/Src/usbh_cdc.c **** USBH_StatusTypeDef USBH_CDC_SetLineCoding(USBH_HandleTypeDef *phost, CDC_LineCodingTypeDef *linecod
 493:Middlewares/ST/STM32_USB_Host_Library/Class/CDC/Src/usbh_cdc.c **** {
 572              		.loc 1 493 0
 573              		.cfi_startproc
 574              		@ args = 0, pretend = 0, frame = 0
 575              		@ frame_needed = 0, uses_anonymous_args = 0
 576              	.LVL57:
 577 0000 08B5     		push	{r3, lr}
 578              	.LCFI9:
 579              		.cfi_def_cfa_offset 8
 580              		.cfi_offset 3, -8
 581              		.cfi_offset 14, -4
 494:Middlewares/ST/STM32_USB_Host_Library/Class/CDC/Src/usbh_cdc.c ****   CDC_HandleTypeDef *CDC_Handle =  (CDC_HandleTypeDef*) phost->pActiveClass->pData;
 582              		.loc 1 494 0
 583 0002 D0F87433 		ldr	r3, [r0, #884]
 584 0006 DA69     		ldr	r2, [r3, #28]
 585              	.LVL58:
 495:Middlewares/ST/STM32_USB_Host_Library/Class/CDC/Src/usbh_cdc.c ****   if(phost->gState == HOST_CLASS)
 586              		.loc 1 495 0
ARM GAS  /tmp/ccqNwYK1.s 			page 21


 587 0008 0378     		ldrb	r3, [r0]	@ zero_extendqisi2
 588 000a DBB2     		uxtb	r3, r3
 589 000c 0A2B     		cmp	r3, #10
 590 000e 01D0     		beq	.L38
 591              	.LVL59:
 592              	.L36:
 496:Middlewares/ST/STM32_USB_Host_Library/Class/CDC/Src/usbh_cdc.c ****   {
 497:Middlewares/ST/STM32_USB_Host_Library/Class/CDC/Src/usbh_cdc.c ****     CDC_Handle->state = CDC_SET_LINE_CODING_STATE;
 498:Middlewares/ST/STM32_USB_Host_Library/Class/CDC/Src/usbh_cdc.c ****     CDC_Handle->pUserLineCoding = linecodin;    
 499:Middlewares/ST/STM32_USB_Host_Library/Class/CDC/Src/usbh_cdc.c ****     
 500:Middlewares/ST/STM32_USB_Host_Library/Class/CDC/Src/usbh_cdc.c **** #if (USBH_USE_OS == 1)
 501:Middlewares/ST/STM32_USB_Host_Library/Class/CDC/Src/usbh_cdc.c ****     osMessagePut ( phost->os_event, USBH_CLASS_EVENT, 0);
 502:Middlewares/ST/STM32_USB_Host_Library/Class/CDC/Src/usbh_cdc.c **** #endif  
 503:Middlewares/ST/STM32_USB_Host_Library/Class/CDC/Src/usbh_cdc.c ****   }    
 504:Middlewares/ST/STM32_USB_Host_Library/Class/CDC/Src/usbh_cdc.c ****   return USBH_OK;
 505:Middlewares/ST/STM32_USB_Host_Library/Class/CDC/Src/usbh_cdc.c **** }
 593              		.loc 1 505 0
 594 0010 0020     		movs	r0, #0
 595 0012 08BD     		pop	{r3, pc}
 596              	.LVL60:
 597              	.L38:
 497:Middlewares/ST/STM32_USB_Host_Library/Class/CDC/Src/usbh_cdc.c ****     CDC_Handle->pUserLineCoding = linecodin;    
 598              		.loc 1 497 0
 599 0014 0123     		movs	r3, #1
 600 0016 82F84C30 		strb	r3, [r2, #76]
 498:Middlewares/ST/STM32_USB_Host_Library/Class/CDC/Src/usbh_cdc.c ****     
 601              		.loc 1 498 0
 602 001a 9164     		str	r1, [r2, #72]
 501:Middlewares/ST/STM32_USB_Host_Library/Class/CDC/Src/usbh_cdc.c **** #endif  
 603              		.loc 1 501 0
 604 001c 0022     		movs	r2, #0
 605              	.LVL61:
 606 001e 0421     		movs	r1, #4
 607              	.LVL62:
 608 0020 D0F8C803 		ldr	r0, [r0, #968]
 609              	.LVL63:
 610 0024 FFF7FEFF 		bl	osMessagePut
 611              	.LVL64:
 612 0028 F2E7     		b	.L36
 613              		.cfi_endproc
 614              	.LFE151:
 616              		.section	.text.USBH_CDC_GetLineCoding,"ax",%progbits
 617              		.align	1
 618              		.global	USBH_CDC_GetLineCoding
 619              		.syntax unified
 620              		.thumb
 621              		.thumb_func
 622              		.fpu fpv5-sp-d16
 624              	USBH_CDC_GetLineCoding:
 625              	.LFB152:
 506:Middlewares/ST/STM32_USB_Host_Library/Class/CDC/Src/usbh_cdc.c **** 
 507:Middlewares/ST/STM32_USB_Host_Library/Class/CDC/Src/usbh_cdc.c **** /**
 508:Middlewares/ST/STM32_USB_Host_Library/Class/CDC/Src/usbh_cdc.c **** * @brief  This function prepares the state before issuing the class specific commands
 509:Middlewares/ST/STM32_USB_Host_Library/Class/CDC/Src/usbh_cdc.c **** * @param  None
 510:Middlewares/ST/STM32_USB_Host_Library/Class/CDC/Src/usbh_cdc.c **** * @retval None
 511:Middlewares/ST/STM32_USB_Host_Library/Class/CDC/Src/usbh_cdc.c **** */
 512:Middlewares/ST/STM32_USB_Host_Library/Class/CDC/Src/usbh_cdc.c **** USBH_StatusTypeDef  USBH_CDC_GetLineCoding(USBH_HandleTypeDef *phost, CDC_LineCodingTypeDef *lineco
ARM GAS  /tmp/ccqNwYK1.s 			page 22


 513:Middlewares/ST/STM32_USB_Host_Library/Class/CDC/Src/usbh_cdc.c **** {
 626              		.loc 1 513 0
 627              		.cfi_startproc
 628              		@ args = 0, pretend = 0, frame = 0
 629              		@ frame_needed = 0, uses_anonymous_args = 0
 630              		@ link register save eliminated.
 631              	.LVL65:
 632 0000 10B4     		push	{r4}
 633              	.LCFI10:
 634              		.cfi_def_cfa_offset 4
 635              		.cfi_offset 4, -4
 636 0002 0C46     		mov	r4, r1
 514:Middlewares/ST/STM32_USB_Host_Library/Class/CDC/Src/usbh_cdc.c ****   CDC_HandleTypeDef *CDC_Handle =  (CDC_HandleTypeDef*) phost->pActiveClass->pData; 
 637              		.loc 1 514 0
 638 0004 D0F87433 		ldr	r3, [r0, #884]
 639 0008 DA69     		ldr	r2, [r3, #28]
 640              	.LVL66:
 515:Middlewares/ST/STM32_USB_Host_Library/Class/CDC/Src/usbh_cdc.c ****   
 516:Middlewares/ST/STM32_USB_Host_Library/Class/CDC/Src/usbh_cdc.c ****   if((phost->gState == HOST_CLASS) ||(phost->gState == HOST_CLASS_REQUEST))
 641              		.loc 1 516 0
 642 000a 0378     		ldrb	r3, [r0]	@ zero_extendqisi2
 643 000c DBB2     		uxtb	r3, r3
 644 000e 0A2B     		cmp	r3, #10
 645 0010 03D0     		beq	.L40
 646              		.loc 1 516 0 is_stmt 0 discriminator 1
 647 0012 0378     		ldrb	r3, [r0]	@ zero_extendqisi2
 648 0014 DBB2     		uxtb	r3, r3
 649 0016 062B     		cmp	r3, #6
 650 0018 09D1     		bne	.L42
 651              	.L40:
 517:Middlewares/ST/STM32_USB_Host_Library/Class/CDC/Src/usbh_cdc.c ****   {
 518:Middlewares/ST/STM32_USB_Host_Library/Class/CDC/Src/usbh_cdc.c ****     *linecodin = CDC_Handle->LineCoding;
 652              		.loc 1 518 0 is_stmt 1
 653 001a 02F14003 		add	r3, r2, #64
 654 001e 93E80300 		ldm	r3, {r0, r1}
 655              	.LVL67:
 656 0022 84E80300 		stm	r4, {r0, r1}
 519:Middlewares/ST/STM32_USB_Host_Library/Class/CDC/Src/usbh_cdc.c ****     return USBH_OK;
 657              		.loc 1 519 0
 658 0026 0020     		movs	r0, #0
 659              	.L41:
 520:Middlewares/ST/STM32_USB_Host_Library/Class/CDC/Src/usbh_cdc.c ****   }
 521:Middlewares/ST/STM32_USB_Host_Library/Class/CDC/Src/usbh_cdc.c ****   else
 522:Middlewares/ST/STM32_USB_Host_Library/Class/CDC/Src/usbh_cdc.c ****   {
 523:Middlewares/ST/STM32_USB_Host_Library/Class/CDC/Src/usbh_cdc.c ****     return USBH_FAIL;
 524:Middlewares/ST/STM32_USB_Host_Library/Class/CDC/Src/usbh_cdc.c ****   }
 525:Middlewares/ST/STM32_USB_Host_Library/Class/CDC/Src/usbh_cdc.c **** }
 660              		.loc 1 525 0
 661 0028 5DF8044B 		ldr	r4, [sp], #4
 662              	.LCFI11:
 663              		.cfi_remember_state
 664              		.cfi_restore 4
 665              		.cfi_def_cfa_offset 0
 666              	.LVL68:
 667 002c 7047     		bx	lr
 668              	.LVL69:
 669              	.L42:
ARM GAS  /tmp/ccqNwYK1.s 			page 23


 670              	.LCFI12:
 671              		.cfi_restore_state
 523:Middlewares/ST/STM32_USB_Host_Library/Class/CDC/Src/usbh_cdc.c ****   }
 672              		.loc 1 523 0
 673 002e 0220     		movs	r0, #2
 674              	.LVL70:
 675 0030 FAE7     		b	.L41
 676              		.cfi_endproc
 677              	.LFE152:
 679              		.section	.text.USBH_CDC_GetLastReceivedDataSize,"ax",%progbits
 680              		.align	1
 681              		.global	USBH_CDC_GetLastReceivedDataSize
 682              		.syntax unified
 683              		.thumb
 684              		.thumb_func
 685              		.fpu fpv5-sp-d16
 687              	USBH_CDC_GetLastReceivedDataSize:
 688              	.LFB153:
 526:Middlewares/ST/STM32_USB_Host_Library/Class/CDC/Src/usbh_cdc.c **** 
 527:Middlewares/ST/STM32_USB_Host_Library/Class/CDC/Src/usbh_cdc.c **** /**
 528:Middlewares/ST/STM32_USB_Host_Library/Class/CDC/Src/usbh_cdc.c ****   * @brief  This function return last received data size
 529:Middlewares/ST/STM32_USB_Host_Library/Class/CDC/Src/usbh_cdc.c ****   * @param  None
 530:Middlewares/ST/STM32_USB_Host_Library/Class/CDC/Src/usbh_cdc.c ****   * @retval None
 531:Middlewares/ST/STM32_USB_Host_Library/Class/CDC/Src/usbh_cdc.c ****   */
 532:Middlewares/ST/STM32_USB_Host_Library/Class/CDC/Src/usbh_cdc.c **** uint16_t USBH_CDC_GetLastReceivedDataSize(USBH_HandleTypeDef *phost)
 533:Middlewares/ST/STM32_USB_Host_Library/Class/CDC/Src/usbh_cdc.c **** {
 689              		.loc 1 533 0
 690              		.cfi_startproc
 691              		@ args = 0, pretend = 0, frame = 0
 692              		@ frame_needed = 0, uses_anonymous_args = 0
 693              	.LVL71:
 694 0000 08B5     		push	{r3, lr}
 695              	.LCFI13:
 696              		.cfi_def_cfa_offset 8
 697              		.cfi_offset 3, -8
 698              		.cfi_offset 14, -4
 534:Middlewares/ST/STM32_USB_Host_Library/Class/CDC/Src/usbh_cdc.c ****   CDC_HandleTypeDef *CDC_Handle =  (CDC_HandleTypeDef*) phost->pActiveClass->pData; 
 699              		.loc 1 534 0
 700 0002 D0F87433 		ldr	r3, [r0, #884]
 701 0006 DA69     		ldr	r2, [r3, #28]
 702              	.LVL72:
 535:Middlewares/ST/STM32_USB_Host_Library/Class/CDC/Src/usbh_cdc.c ****   
 536:Middlewares/ST/STM32_USB_Host_Library/Class/CDC/Src/usbh_cdc.c ****   if(phost->gState == HOST_CLASS)
 703              		.loc 1 536 0
 704 0008 0378     		ldrb	r3, [r0]	@ zero_extendqisi2
 705 000a DBB2     		uxtb	r3, r3
 706 000c 0A2B     		cmp	r3, #10
 707 000e 01D0     		beq	.L48
 537:Middlewares/ST/STM32_USB_Host_Library/Class/CDC/Src/usbh_cdc.c ****   {
 538:Middlewares/ST/STM32_USB_Host_Library/Class/CDC/Src/usbh_cdc.c ****     return USBH_LL_GetLastXferSize(phost, CDC_Handle->DataItf.InPipe);;
 539:Middlewares/ST/STM32_USB_Host_Library/Class/CDC/Src/usbh_cdc.c ****   }
 540:Middlewares/ST/STM32_USB_Host_Library/Class/CDC/Src/usbh_cdc.c ****   else
 541:Middlewares/ST/STM32_USB_Host_Library/Class/CDC/Src/usbh_cdc.c ****   {
 542:Middlewares/ST/STM32_USB_Host_Library/Class/CDC/Src/usbh_cdc.c ****     return 0;
 708              		.loc 1 542 0
 709 0010 0020     		movs	r0, #0
 710              	.LVL73:
ARM GAS  /tmp/ccqNwYK1.s 			page 24


 711              	.L45:
 543:Middlewares/ST/STM32_USB_Host_Library/Class/CDC/Src/usbh_cdc.c ****   }
 544:Middlewares/ST/STM32_USB_Host_Library/Class/CDC/Src/usbh_cdc.c **** }
 712              		.loc 1 544 0
 713 0012 08BD     		pop	{r3, pc}
 714              	.LVL74:
 715              	.L48:
 538:Middlewares/ST/STM32_USB_Host_Library/Class/CDC/Src/usbh_cdc.c ****   }
 716              		.loc 1 538 0
 717 0014 117B     		ldrb	r1, [r2, #12]	@ zero_extendqisi2
 718 0016 FFF7FEFF 		bl	USBH_LL_GetLastXferSize
 719              	.LVL75:
 720 001a 80B2     		uxth	r0, r0
 721 001c F9E7     		b	.L45
 722              		.cfi_endproc
 723              	.LFE153:
 725              		.section	.text.USBH_CDC_Transmit,"ax",%progbits
 726              		.align	1
 727              		.global	USBH_CDC_Transmit
 728              		.syntax unified
 729              		.thumb
 730              		.thumb_func
 731              		.fpu fpv5-sp-d16
 733              	USBH_CDC_Transmit:
 734              	.LFB154:
 545:Middlewares/ST/STM32_USB_Host_Library/Class/CDC/Src/usbh_cdc.c **** 
 546:Middlewares/ST/STM32_USB_Host_Library/Class/CDC/Src/usbh_cdc.c **** /**
 547:Middlewares/ST/STM32_USB_Host_Library/Class/CDC/Src/usbh_cdc.c ****   * @brief  This function prepares the state before issuing the class specific commands
 548:Middlewares/ST/STM32_USB_Host_Library/Class/CDC/Src/usbh_cdc.c ****   * @param  None
 549:Middlewares/ST/STM32_USB_Host_Library/Class/CDC/Src/usbh_cdc.c ****   * @retval None
 550:Middlewares/ST/STM32_USB_Host_Library/Class/CDC/Src/usbh_cdc.c ****   */
 551:Middlewares/ST/STM32_USB_Host_Library/Class/CDC/Src/usbh_cdc.c **** USBH_StatusTypeDef  USBH_CDC_Transmit(USBH_HandleTypeDef *phost, uint8_t *pbuff, uint32_t length)
 552:Middlewares/ST/STM32_USB_Host_Library/Class/CDC/Src/usbh_cdc.c **** {
 735              		.loc 1 552 0
 736              		.cfi_startproc
 737              		@ args = 0, pretend = 0, frame = 0
 738              		@ frame_needed = 0, uses_anonymous_args = 0
 739              	.LVL76:
 740 0000 38B5     		push	{r3, r4, r5, lr}
 741              	.LCFI14:
 742              		.cfi_def_cfa_offset 16
 743              		.cfi_offset 3, -16
 744              		.cfi_offset 4, -12
 745              		.cfi_offset 5, -8
 746              		.cfi_offset 14, -4
 747              	.LVL77:
 553:Middlewares/ST/STM32_USB_Host_Library/Class/CDC/Src/usbh_cdc.c ****   USBH_StatusTypeDef Status = USBH_BUSY;
 554:Middlewares/ST/STM32_USB_Host_Library/Class/CDC/Src/usbh_cdc.c ****   CDC_HandleTypeDef *CDC_Handle =  (CDC_HandleTypeDef*) phost->pActiveClass->pData;
 748              		.loc 1 554 0
 749 0002 D0F87433 		ldr	r3, [r0, #884]
 750 0006 DC69     		ldr	r4, [r3, #28]
 751              	.LVL78:
 555:Middlewares/ST/STM32_USB_Host_Library/Class/CDC/Src/usbh_cdc.c ****   
 556:Middlewares/ST/STM32_USB_Host_Library/Class/CDC/Src/usbh_cdc.c ****   if((CDC_Handle->state == CDC_IDLE_STATE) || (CDC_Handle->state == CDC_TRANSFER_DATA))
 752              		.loc 1 556 0
 753 0008 94F84C50 		ldrb	r5, [r4, #76]	@ zero_extendqisi2
 754 000c 032D     		cmp	r5, #3
ARM GAS  /tmp/ccqNwYK1.s 			page 25


 755 000e 14BF     		ite	ne
 756 0010 0023     		movne	r3, #0
 757 0012 0123     		moveq	r3, #1
 758 0014 002D     		cmp	r5, #0
 759 0016 08BF     		it	eq
 760 0018 0123     		moveq	r3, #1
 761 001a 0BB9     		cbnz	r3, .L53
 553:Middlewares/ST/STM32_USB_Host_Library/Class/CDC/Src/usbh_cdc.c ****   USBH_StatusTypeDef Status = USBH_BUSY;
 762              		.loc 1 553 0
 763 001c 0120     		movs	r0, #1
 764              	.LVL79:
 765              	.L50:
 557:Middlewares/ST/STM32_USB_Host_Library/Class/CDC/Src/usbh_cdc.c ****   {
 558:Middlewares/ST/STM32_USB_Host_Library/Class/CDC/Src/usbh_cdc.c ****     CDC_Handle->pTxData = pbuff;
 559:Middlewares/ST/STM32_USB_Host_Library/Class/CDC/Src/usbh_cdc.c ****     CDC_Handle->TxDataLength = length;  
 560:Middlewares/ST/STM32_USB_Host_Library/Class/CDC/Src/usbh_cdc.c ****     CDC_Handle->state = CDC_TRANSFER_DATA;
 561:Middlewares/ST/STM32_USB_Host_Library/Class/CDC/Src/usbh_cdc.c ****     CDC_Handle->data_tx_state = CDC_SEND_DATA; 
 562:Middlewares/ST/STM32_USB_Host_Library/Class/CDC/Src/usbh_cdc.c ****     Status = USBH_OK;
 563:Middlewares/ST/STM32_USB_Host_Library/Class/CDC/Src/usbh_cdc.c **** #if (USBH_USE_OS == 1)
 564:Middlewares/ST/STM32_USB_Host_Library/Class/CDC/Src/usbh_cdc.c ****       osMessagePut ( phost->os_event, USBH_CLASS_EVENT, 0);
 565:Middlewares/ST/STM32_USB_Host_Library/Class/CDC/Src/usbh_cdc.c **** #endif      
 566:Middlewares/ST/STM32_USB_Host_Library/Class/CDC/Src/usbh_cdc.c ****   }
 567:Middlewares/ST/STM32_USB_Host_Library/Class/CDC/Src/usbh_cdc.c ****   return Status;    
 568:Middlewares/ST/STM32_USB_Host_Library/Class/CDC/Src/usbh_cdc.c **** }
 766              		.loc 1 568 0
 767 001e 38BD     		pop	{r3, r4, r5, pc}
 768              	.LVL80:
 769              	.L53:
 558:Middlewares/ST/STM32_USB_Host_Library/Class/CDC/Src/usbh_cdc.c ****     CDC_Handle->TxDataLength = length;  
 770              		.loc 1 558 0
 771 0020 E161     		str	r1, [r4, #28]
 559:Middlewares/ST/STM32_USB_Host_Library/Class/CDC/Src/usbh_cdc.c ****     CDC_Handle->state = CDC_TRANSFER_DATA;
 772              		.loc 1 559 0
 773 0022 6262     		str	r2, [r4, #36]
 560:Middlewares/ST/STM32_USB_Host_Library/Class/CDC/Src/usbh_cdc.c ****     CDC_Handle->data_tx_state = CDC_SEND_DATA; 
 774              		.loc 1 560 0
 775 0024 0323     		movs	r3, #3
 776 0026 84F84C30 		strb	r3, [r4, #76]
 561:Middlewares/ST/STM32_USB_Host_Library/Class/CDC/Src/usbh_cdc.c ****     Status = USBH_OK;
 777              		.loc 1 561 0
 778 002a 0123     		movs	r3, #1
 779 002c 84F84D30 		strb	r3, [r4, #77]
 780              	.LVL81:
 564:Middlewares/ST/STM32_USB_Host_Library/Class/CDC/Src/usbh_cdc.c **** #endif      
 781              		.loc 1 564 0
 782 0030 0022     		movs	r2, #0
 783              	.LVL82:
 784 0032 0421     		movs	r1, #4
 785              	.LVL83:
 786 0034 D0F8C803 		ldr	r0, [r0, #968]
 787              	.LVL84:
 788 0038 FFF7FEFF 		bl	osMessagePut
 789              	.LVL85:
 562:Middlewares/ST/STM32_USB_Host_Library/Class/CDC/Src/usbh_cdc.c **** #if (USBH_USE_OS == 1)
 790              		.loc 1 562 0
 791 003c 0020     		movs	r0, #0
 792 003e EEE7     		b	.L50
ARM GAS  /tmp/ccqNwYK1.s 			page 26


 793              		.cfi_endproc
 794              	.LFE154:
 796              		.section	.text.USBH_CDC_Receive,"ax",%progbits
 797              		.align	1
 798              		.global	USBH_CDC_Receive
 799              		.syntax unified
 800              		.thumb
 801              		.thumb_func
 802              		.fpu fpv5-sp-d16
 804              	USBH_CDC_Receive:
 805              	.LFB155:
 569:Middlewares/ST/STM32_USB_Host_Library/Class/CDC/Src/usbh_cdc.c ****   
 570:Middlewares/ST/STM32_USB_Host_Library/Class/CDC/Src/usbh_cdc.c ****   
 571:Middlewares/ST/STM32_USB_Host_Library/Class/CDC/Src/usbh_cdc.c **** /**
 572:Middlewares/ST/STM32_USB_Host_Library/Class/CDC/Src/usbh_cdc.c **** * @brief  This function prepares the state before issuing the class specific commands
 573:Middlewares/ST/STM32_USB_Host_Library/Class/CDC/Src/usbh_cdc.c **** * @param  None
 574:Middlewares/ST/STM32_USB_Host_Library/Class/CDC/Src/usbh_cdc.c **** * @retval None
 575:Middlewares/ST/STM32_USB_Host_Library/Class/CDC/Src/usbh_cdc.c **** */
 576:Middlewares/ST/STM32_USB_Host_Library/Class/CDC/Src/usbh_cdc.c **** USBH_StatusTypeDef  USBH_CDC_Receive(USBH_HandleTypeDef *phost, uint8_t *pbuff, uint32_t length)
 577:Middlewares/ST/STM32_USB_Host_Library/Class/CDC/Src/usbh_cdc.c **** {
 806              		.loc 1 577 0
 807              		.cfi_startproc
 808              		@ args = 0, pretend = 0, frame = 0
 809              		@ frame_needed = 0, uses_anonymous_args = 0
 810              	.LVL86:
 811 0000 38B5     		push	{r3, r4, r5, lr}
 812              	.LCFI15:
 813              		.cfi_def_cfa_offset 16
 814              		.cfi_offset 3, -16
 815              		.cfi_offset 4, -12
 816              		.cfi_offset 5, -8
 817              		.cfi_offset 14, -4
 818              	.LVL87:
 578:Middlewares/ST/STM32_USB_Host_Library/Class/CDC/Src/usbh_cdc.c ****   USBH_StatusTypeDef Status = USBH_BUSY;
 579:Middlewares/ST/STM32_USB_Host_Library/Class/CDC/Src/usbh_cdc.c ****   CDC_HandleTypeDef *CDC_Handle =  (CDC_HandleTypeDef*) phost->pActiveClass->pData;
 819              		.loc 1 579 0
 820 0002 D0F87433 		ldr	r3, [r0, #884]
 821 0006 DC69     		ldr	r4, [r3, #28]
 822              	.LVL88:
 580:Middlewares/ST/STM32_USB_Host_Library/Class/CDC/Src/usbh_cdc.c ****   
 581:Middlewares/ST/STM32_USB_Host_Library/Class/CDC/Src/usbh_cdc.c ****   if((CDC_Handle->state == CDC_IDLE_STATE) || (CDC_Handle->state == CDC_TRANSFER_DATA))
 823              		.loc 1 581 0
 824 0008 94F84C50 		ldrb	r5, [r4, #76]	@ zero_extendqisi2
 825 000c 032D     		cmp	r5, #3
 826 000e 14BF     		ite	ne
 827 0010 0023     		movne	r3, #0
 828 0012 0123     		moveq	r3, #1
 829 0014 002D     		cmp	r5, #0
 830 0016 08BF     		it	eq
 831 0018 0123     		moveq	r3, #1
 832 001a 0BB9     		cbnz	r3, .L58
 578:Middlewares/ST/STM32_USB_Host_Library/Class/CDC/Src/usbh_cdc.c ****   USBH_StatusTypeDef Status = USBH_BUSY;
 833              		.loc 1 578 0
 834 001c 0120     		movs	r0, #1
 835              	.LVL89:
 836              	.L55:
 582:Middlewares/ST/STM32_USB_Host_Library/Class/CDC/Src/usbh_cdc.c ****   {
ARM GAS  /tmp/ccqNwYK1.s 			page 27


 583:Middlewares/ST/STM32_USB_Host_Library/Class/CDC/Src/usbh_cdc.c ****     CDC_Handle->pRxData = pbuff;
 584:Middlewares/ST/STM32_USB_Host_Library/Class/CDC/Src/usbh_cdc.c ****     CDC_Handle->RxDataLength = length;  
 585:Middlewares/ST/STM32_USB_Host_Library/Class/CDC/Src/usbh_cdc.c ****     CDC_Handle->state = CDC_TRANSFER_DATA;
 586:Middlewares/ST/STM32_USB_Host_Library/Class/CDC/Src/usbh_cdc.c ****     CDC_Handle->data_rx_state = CDC_RECEIVE_DATA;     
 587:Middlewares/ST/STM32_USB_Host_Library/Class/CDC/Src/usbh_cdc.c ****     Status = USBH_OK;
 588:Middlewares/ST/STM32_USB_Host_Library/Class/CDC/Src/usbh_cdc.c **** #if (USBH_USE_OS == 1)
 589:Middlewares/ST/STM32_USB_Host_Library/Class/CDC/Src/usbh_cdc.c ****       osMessagePut ( phost->os_event, USBH_CLASS_EVENT, 0);
 590:Middlewares/ST/STM32_USB_Host_Library/Class/CDC/Src/usbh_cdc.c **** #endif        
 591:Middlewares/ST/STM32_USB_Host_Library/Class/CDC/Src/usbh_cdc.c ****   }
 592:Middlewares/ST/STM32_USB_Host_Library/Class/CDC/Src/usbh_cdc.c ****   return Status;    
 593:Middlewares/ST/STM32_USB_Host_Library/Class/CDC/Src/usbh_cdc.c **** } 
 837              		.loc 1 593 0
 838 001e 38BD     		pop	{r3, r4, r5, pc}
 839              	.LVL90:
 840              	.L58:
 583:Middlewares/ST/STM32_USB_Host_Library/Class/CDC/Src/usbh_cdc.c ****     CDC_Handle->RxDataLength = length;  
 841              		.loc 1 583 0
 842 0020 2162     		str	r1, [r4, #32]
 584:Middlewares/ST/STM32_USB_Host_Library/Class/CDC/Src/usbh_cdc.c ****     CDC_Handle->state = CDC_TRANSFER_DATA;
 843              		.loc 1 584 0
 844 0022 A262     		str	r2, [r4, #40]
 585:Middlewares/ST/STM32_USB_Host_Library/Class/CDC/Src/usbh_cdc.c ****     CDC_Handle->data_rx_state = CDC_RECEIVE_DATA;     
 845              		.loc 1 585 0
 846 0024 0323     		movs	r3, #3
 847 0026 84F84C30 		strb	r3, [r4, #76]
 586:Middlewares/ST/STM32_USB_Host_Library/Class/CDC/Src/usbh_cdc.c ****     Status = USBH_OK;
 848              		.loc 1 586 0
 849 002a 84F84E30 		strb	r3, [r4, #78]
 850              	.LVL91:
 589:Middlewares/ST/STM32_USB_Host_Library/Class/CDC/Src/usbh_cdc.c **** #endif        
 851              		.loc 1 589 0
 852 002e 0022     		movs	r2, #0
 853              	.LVL92:
 854 0030 0421     		movs	r1, #4
 855              	.LVL93:
 856 0032 D0F8C803 		ldr	r0, [r0, #968]
 857              	.LVL94:
 858 0036 FFF7FEFF 		bl	osMessagePut
 859              	.LVL95:
 587:Middlewares/ST/STM32_USB_Host_Library/Class/CDC/Src/usbh_cdc.c **** #if (USBH_USE_OS == 1)
 860              		.loc 1 587 0
 861 003a 0020     		movs	r0, #0
 862 003c EFE7     		b	.L55
 863              		.cfi_endproc
 864              	.LFE155:
 866              		.section	.text.USBH_CDC_TransmitCallback,"ax",%progbits
 867              		.align	1
 868              		.weak	USBH_CDC_TransmitCallback
 869              		.syntax unified
 870              		.thumb
 871              		.thumb_func
 872              		.fpu fpv5-sp-d16
 874              	USBH_CDC_TransmitCallback:
 875              	.LFB158:
 594:Middlewares/ST/STM32_USB_Host_Library/Class/CDC/Src/usbh_cdc.c **** 
 595:Middlewares/ST/STM32_USB_Host_Library/Class/CDC/Src/usbh_cdc.c **** /**
 596:Middlewares/ST/STM32_USB_Host_Library/Class/CDC/Src/usbh_cdc.c **** * @brief  The function is responsible for sending data to the device
ARM GAS  /tmp/ccqNwYK1.s 			page 28


 597:Middlewares/ST/STM32_USB_Host_Library/Class/CDC/Src/usbh_cdc.c **** *  @param  pdev: Selected device
 598:Middlewares/ST/STM32_USB_Host_Library/Class/CDC/Src/usbh_cdc.c **** * @retval None
 599:Middlewares/ST/STM32_USB_Host_Library/Class/CDC/Src/usbh_cdc.c **** */
 600:Middlewares/ST/STM32_USB_Host_Library/Class/CDC/Src/usbh_cdc.c **** static void CDC_ProcessTransmission(USBH_HandleTypeDef *phost)
 601:Middlewares/ST/STM32_USB_Host_Library/Class/CDC/Src/usbh_cdc.c **** {
 602:Middlewares/ST/STM32_USB_Host_Library/Class/CDC/Src/usbh_cdc.c ****   CDC_HandleTypeDef *CDC_Handle =  (CDC_HandleTypeDef*) phost->pActiveClass->pData;
 603:Middlewares/ST/STM32_USB_Host_Library/Class/CDC/Src/usbh_cdc.c ****   USBH_URBStateTypeDef URB_Status = USBH_URB_IDLE;
 604:Middlewares/ST/STM32_USB_Host_Library/Class/CDC/Src/usbh_cdc.c ****   
 605:Middlewares/ST/STM32_USB_Host_Library/Class/CDC/Src/usbh_cdc.c ****   switch(CDC_Handle->data_tx_state)
 606:Middlewares/ST/STM32_USB_Host_Library/Class/CDC/Src/usbh_cdc.c ****   {
 607:Middlewares/ST/STM32_USB_Host_Library/Class/CDC/Src/usbh_cdc.c ****  
 608:Middlewares/ST/STM32_USB_Host_Library/Class/CDC/Src/usbh_cdc.c ****   case CDC_SEND_DATA:
 609:Middlewares/ST/STM32_USB_Host_Library/Class/CDC/Src/usbh_cdc.c ****     if(CDC_Handle->TxDataLength > CDC_Handle->DataItf.OutEpSize)
 610:Middlewares/ST/STM32_USB_Host_Library/Class/CDC/Src/usbh_cdc.c ****     {
 611:Middlewares/ST/STM32_USB_Host_Library/Class/CDC/Src/usbh_cdc.c ****       USBH_BulkSendData (phost,
 612:Middlewares/ST/STM32_USB_Host_Library/Class/CDC/Src/usbh_cdc.c ****                          CDC_Handle->pTxData, 
 613:Middlewares/ST/STM32_USB_Host_Library/Class/CDC/Src/usbh_cdc.c ****                          CDC_Handle->DataItf.OutEpSize, 
 614:Middlewares/ST/STM32_USB_Host_Library/Class/CDC/Src/usbh_cdc.c ****                          CDC_Handle->DataItf.OutPipe,
 615:Middlewares/ST/STM32_USB_Host_Library/Class/CDC/Src/usbh_cdc.c ****                          1);
 616:Middlewares/ST/STM32_USB_Host_Library/Class/CDC/Src/usbh_cdc.c ****     }
 617:Middlewares/ST/STM32_USB_Host_Library/Class/CDC/Src/usbh_cdc.c ****     else
 618:Middlewares/ST/STM32_USB_Host_Library/Class/CDC/Src/usbh_cdc.c ****     {
 619:Middlewares/ST/STM32_USB_Host_Library/Class/CDC/Src/usbh_cdc.c ****       USBH_BulkSendData (phost,
 620:Middlewares/ST/STM32_USB_Host_Library/Class/CDC/Src/usbh_cdc.c ****                          CDC_Handle->pTxData, 
 621:Middlewares/ST/STM32_USB_Host_Library/Class/CDC/Src/usbh_cdc.c ****                          CDC_Handle->TxDataLength, 
 622:Middlewares/ST/STM32_USB_Host_Library/Class/CDC/Src/usbh_cdc.c ****                          CDC_Handle->DataItf.OutPipe,
 623:Middlewares/ST/STM32_USB_Host_Library/Class/CDC/Src/usbh_cdc.c ****                          1);
 624:Middlewares/ST/STM32_USB_Host_Library/Class/CDC/Src/usbh_cdc.c ****     }
 625:Middlewares/ST/STM32_USB_Host_Library/Class/CDC/Src/usbh_cdc.c ****     
 626:Middlewares/ST/STM32_USB_Host_Library/Class/CDC/Src/usbh_cdc.c ****     CDC_Handle->data_tx_state = CDC_SEND_DATA_WAIT;
 627:Middlewares/ST/STM32_USB_Host_Library/Class/CDC/Src/usbh_cdc.c ****     
 628:Middlewares/ST/STM32_USB_Host_Library/Class/CDC/Src/usbh_cdc.c ****     break;
 629:Middlewares/ST/STM32_USB_Host_Library/Class/CDC/Src/usbh_cdc.c ****     
 630:Middlewares/ST/STM32_USB_Host_Library/Class/CDC/Src/usbh_cdc.c ****   case CDC_SEND_DATA_WAIT:
 631:Middlewares/ST/STM32_USB_Host_Library/Class/CDC/Src/usbh_cdc.c ****     
 632:Middlewares/ST/STM32_USB_Host_Library/Class/CDC/Src/usbh_cdc.c ****     URB_Status = USBH_LL_GetURBState(phost, CDC_Handle->DataItf.OutPipe); 
 633:Middlewares/ST/STM32_USB_Host_Library/Class/CDC/Src/usbh_cdc.c ****     
 634:Middlewares/ST/STM32_USB_Host_Library/Class/CDC/Src/usbh_cdc.c ****     /*Check the status done for transmission*/
 635:Middlewares/ST/STM32_USB_Host_Library/Class/CDC/Src/usbh_cdc.c ****     if(URB_Status == USBH_URB_DONE )
 636:Middlewares/ST/STM32_USB_Host_Library/Class/CDC/Src/usbh_cdc.c ****     {         
 637:Middlewares/ST/STM32_USB_Host_Library/Class/CDC/Src/usbh_cdc.c ****       if(CDC_Handle->TxDataLength > CDC_Handle->DataItf.OutEpSize)
 638:Middlewares/ST/STM32_USB_Host_Library/Class/CDC/Src/usbh_cdc.c ****       {
 639:Middlewares/ST/STM32_USB_Host_Library/Class/CDC/Src/usbh_cdc.c ****         CDC_Handle->TxDataLength -= CDC_Handle->DataItf.OutEpSize ;
 640:Middlewares/ST/STM32_USB_Host_Library/Class/CDC/Src/usbh_cdc.c ****         CDC_Handle->pTxData += CDC_Handle->DataItf.OutEpSize;
 641:Middlewares/ST/STM32_USB_Host_Library/Class/CDC/Src/usbh_cdc.c ****       }
 642:Middlewares/ST/STM32_USB_Host_Library/Class/CDC/Src/usbh_cdc.c ****       else
 643:Middlewares/ST/STM32_USB_Host_Library/Class/CDC/Src/usbh_cdc.c ****       {
 644:Middlewares/ST/STM32_USB_Host_Library/Class/CDC/Src/usbh_cdc.c ****         CDC_Handle->TxDataLength = 0;
 645:Middlewares/ST/STM32_USB_Host_Library/Class/CDC/Src/usbh_cdc.c ****       }
 646:Middlewares/ST/STM32_USB_Host_Library/Class/CDC/Src/usbh_cdc.c ****       
 647:Middlewares/ST/STM32_USB_Host_Library/Class/CDC/Src/usbh_cdc.c ****       if( CDC_Handle->TxDataLength > 0)
 648:Middlewares/ST/STM32_USB_Host_Library/Class/CDC/Src/usbh_cdc.c ****       {
 649:Middlewares/ST/STM32_USB_Host_Library/Class/CDC/Src/usbh_cdc.c ****        CDC_Handle->data_tx_state = CDC_SEND_DATA; 
 650:Middlewares/ST/STM32_USB_Host_Library/Class/CDC/Src/usbh_cdc.c ****       }
 651:Middlewares/ST/STM32_USB_Host_Library/Class/CDC/Src/usbh_cdc.c ****       else
 652:Middlewares/ST/STM32_USB_Host_Library/Class/CDC/Src/usbh_cdc.c ****       {
 653:Middlewares/ST/STM32_USB_Host_Library/Class/CDC/Src/usbh_cdc.c ****         CDC_Handle->data_tx_state = CDC_IDLE;    
ARM GAS  /tmp/ccqNwYK1.s 			page 29


 654:Middlewares/ST/STM32_USB_Host_Library/Class/CDC/Src/usbh_cdc.c ****         USBH_CDC_TransmitCallback(phost);
 655:Middlewares/ST/STM32_USB_Host_Library/Class/CDC/Src/usbh_cdc.c ****       }
 656:Middlewares/ST/STM32_USB_Host_Library/Class/CDC/Src/usbh_cdc.c **** #if (USBH_USE_OS == 1)
 657:Middlewares/ST/STM32_USB_Host_Library/Class/CDC/Src/usbh_cdc.c ****       osMessagePut ( phost->os_event, USBH_CLASS_EVENT, 0);
 658:Middlewares/ST/STM32_USB_Host_Library/Class/CDC/Src/usbh_cdc.c **** #endif    
 659:Middlewares/ST/STM32_USB_Host_Library/Class/CDC/Src/usbh_cdc.c ****     }
 660:Middlewares/ST/STM32_USB_Host_Library/Class/CDC/Src/usbh_cdc.c ****     else if( URB_Status == USBH_URB_NOTREADY )
 661:Middlewares/ST/STM32_USB_Host_Library/Class/CDC/Src/usbh_cdc.c ****     {
 662:Middlewares/ST/STM32_USB_Host_Library/Class/CDC/Src/usbh_cdc.c ****       CDC_Handle->data_tx_state = CDC_SEND_DATA; 
 663:Middlewares/ST/STM32_USB_Host_Library/Class/CDC/Src/usbh_cdc.c **** #if (USBH_USE_OS == 1)
 664:Middlewares/ST/STM32_USB_Host_Library/Class/CDC/Src/usbh_cdc.c ****       osMessagePut ( phost->os_event, USBH_CLASS_EVENT, 0);
 665:Middlewares/ST/STM32_USB_Host_Library/Class/CDC/Src/usbh_cdc.c **** #endif          
 666:Middlewares/ST/STM32_USB_Host_Library/Class/CDC/Src/usbh_cdc.c ****     }
 667:Middlewares/ST/STM32_USB_Host_Library/Class/CDC/Src/usbh_cdc.c ****     break;
 668:Middlewares/ST/STM32_USB_Host_Library/Class/CDC/Src/usbh_cdc.c ****   default:
 669:Middlewares/ST/STM32_USB_Host_Library/Class/CDC/Src/usbh_cdc.c ****     break;
 670:Middlewares/ST/STM32_USB_Host_Library/Class/CDC/Src/usbh_cdc.c ****   }
 671:Middlewares/ST/STM32_USB_Host_Library/Class/CDC/Src/usbh_cdc.c **** }
 672:Middlewares/ST/STM32_USB_Host_Library/Class/CDC/Src/usbh_cdc.c **** /**
 673:Middlewares/ST/STM32_USB_Host_Library/Class/CDC/Src/usbh_cdc.c **** * @brief  This function responsible for reception of data from the device
 674:Middlewares/ST/STM32_USB_Host_Library/Class/CDC/Src/usbh_cdc.c **** *  @param  pdev: Selected device
 675:Middlewares/ST/STM32_USB_Host_Library/Class/CDC/Src/usbh_cdc.c **** * @retval None
 676:Middlewares/ST/STM32_USB_Host_Library/Class/CDC/Src/usbh_cdc.c **** */
 677:Middlewares/ST/STM32_USB_Host_Library/Class/CDC/Src/usbh_cdc.c **** 
 678:Middlewares/ST/STM32_USB_Host_Library/Class/CDC/Src/usbh_cdc.c **** static void CDC_ProcessReception(USBH_HandleTypeDef *phost)
 679:Middlewares/ST/STM32_USB_Host_Library/Class/CDC/Src/usbh_cdc.c **** {
 680:Middlewares/ST/STM32_USB_Host_Library/Class/CDC/Src/usbh_cdc.c ****   CDC_HandleTypeDef *CDC_Handle =  (CDC_HandleTypeDef*) phost->pActiveClass->pData;
 681:Middlewares/ST/STM32_USB_Host_Library/Class/CDC/Src/usbh_cdc.c ****   USBH_URBStateTypeDef URB_Status = USBH_URB_IDLE;
 682:Middlewares/ST/STM32_USB_Host_Library/Class/CDC/Src/usbh_cdc.c ****   uint16_t length;
 683:Middlewares/ST/STM32_USB_Host_Library/Class/CDC/Src/usbh_cdc.c **** 
 684:Middlewares/ST/STM32_USB_Host_Library/Class/CDC/Src/usbh_cdc.c ****   switch(CDC_Handle->data_rx_state)
 685:Middlewares/ST/STM32_USB_Host_Library/Class/CDC/Src/usbh_cdc.c ****   {
 686:Middlewares/ST/STM32_USB_Host_Library/Class/CDC/Src/usbh_cdc.c ****     
 687:Middlewares/ST/STM32_USB_Host_Library/Class/CDC/Src/usbh_cdc.c ****   case CDC_RECEIVE_DATA:
 688:Middlewares/ST/STM32_USB_Host_Library/Class/CDC/Src/usbh_cdc.c **** 
 689:Middlewares/ST/STM32_USB_Host_Library/Class/CDC/Src/usbh_cdc.c ****     USBH_BulkReceiveData (phost,
 690:Middlewares/ST/STM32_USB_Host_Library/Class/CDC/Src/usbh_cdc.c ****                           CDC_Handle->pRxData, 
 691:Middlewares/ST/STM32_USB_Host_Library/Class/CDC/Src/usbh_cdc.c ****                           CDC_Handle->DataItf.InEpSize, 
 692:Middlewares/ST/STM32_USB_Host_Library/Class/CDC/Src/usbh_cdc.c ****                           CDC_Handle->DataItf.InPipe);
 693:Middlewares/ST/STM32_USB_Host_Library/Class/CDC/Src/usbh_cdc.c ****     
 694:Middlewares/ST/STM32_USB_Host_Library/Class/CDC/Src/usbh_cdc.c ****     CDC_Handle->data_rx_state = CDC_RECEIVE_DATA_WAIT;
 695:Middlewares/ST/STM32_USB_Host_Library/Class/CDC/Src/usbh_cdc.c ****     
 696:Middlewares/ST/STM32_USB_Host_Library/Class/CDC/Src/usbh_cdc.c ****     break;
 697:Middlewares/ST/STM32_USB_Host_Library/Class/CDC/Src/usbh_cdc.c ****     
 698:Middlewares/ST/STM32_USB_Host_Library/Class/CDC/Src/usbh_cdc.c ****   case CDC_RECEIVE_DATA_WAIT:
 699:Middlewares/ST/STM32_USB_Host_Library/Class/CDC/Src/usbh_cdc.c ****     
 700:Middlewares/ST/STM32_USB_Host_Library/Class/CDC/Src/usbh_cdc.c ****     URB_Status = USBH_LL_GetURBState(phost, CDC_Handle->DataItf.InPipe); 
 701:Middlewares/ST/STM32_USB_Host_Library/Class/CDC/Src/usbh_cdc.c ****     
 702:Middlewares/ST/STM32_USB_Host_Library/Class/CDC/Src/usbh_cdc.c ****     /*Check the status done for reception*/
 703:Middlewares/ST/STM32_USB_Host_Library/Class/CDC/Src/usbh_cdc.c ****     if(URB_Status == USBH_URB_DONE )
 704:Middlewares/ST/STM32_USB_Host_Library/Class/CDC/Src/usbh_cdc.c ****     {  
 705:Middlewares/ST/STM32_USB_Host_Library/Class/CDC/Src/usbh_cdc.c ****       length = USBH_LL_GetLastXferSize(phost, CDC_Handle->DataItf.InPipe);
 706:Middlewares/ST/STM32_USB_Host_Library/Class/CDC/Src/usbh_cdc.c ****         
 707:Middlewares/ST/STM32_USB_Host_Library/Class/CDC/Src/usbh_cdc.c ****       if(((CDC_Handle->RxDataLength - length) > 0) && (length > CDC_Handle->DataItf.InEpSize))
 708:Middlewares/ST/STM32_USB_Host_Library/Class/CDC/Src/usbh_cdc.c ****       {
 709:Middlewares/ST/STM32_USB_Host_Library/Class/CDC/Src/usbh_cdc.c ****         CDC_Handle->RxDataLength -= length ;
 710:Middlewares/ST/STM32_USB_Host_Library/Class/CDC/Src/usbh_cdc.c ****         CDC_Handle->pRxData += length;
ARM GAS  /tmp/ccqNwYK1.s 			page 30


 711:Middlewares/ST/STM32_USB_Host_Library/Class/CDC/Src/usbh_cdc.c ****         CDC_Handle->data_rx_state = CDC_RECEIVE_DATA; 
 712:Middlewares/ST/STM32_USB_Host_Library/Class/CDC/Src/usbh_cdc.c ****       }
 713:Middlewares/ST/STM32_USB_Host_Library/Class/CDC/Src/usbh_cdc.c ****       else
 714:Middlewares/ST/STM32_USB_Host_Library/Class/CDC/Src/usbh_cdc.c ****       {
 715:Middlewares/ST/STM32_USB_Host_Library/Class/CDC/Src/usbh_cdc.c ****         CDC_Handle->data_rx_state = CDC_IDLE;
 716:Middlewares/ST/STM32_USB_Host_Library/Class/CDC/Src/usbh_cdc.c ****         USBH_CDC_ReceiveCallback(phost);
 717:Middlewares/ST/STM32_USB_Host_Library/Class/CDC/Src/usbh_cdc.c ****       }
 718:Middlewares/ST/STM32_USB_Host_Library/Class/CDC/Src/usbh_cdc.c **** #if (USBH_USE_OS == 1)
 719:Middlewares/ST/STM32_USB_Host_Library/Class/CDC/Src/usbh_cdc.c ****       osMessagePut ( phost->os_event, USBH_CLASS_EVENT, 0);
 720:Middlewares/ST/STM32_USB_Host_Library/Class/CDC/Src/usbh_cdc.c **** #endif          
 721:Middlewares/ST/STM32_USB_Host_Library/Class/CDC/Src/usbh_cdc.c ****     }
 722:Middlewares/ST/STM32_USB_Host_Library/Class/CDC/Src/usbh_cdc.c ****     break;
 723:Middlewares/ST/STM32_USB_Host_Library/Class/CDC/Src/usbh_cdc.c ****     
 724:Middlewares/ST/STM32_USB_Host_Library/Class/CDC/Src/usbh_cdc.c ****   default:
 725:Middlewares/ST/STM32_USB_Host_Library/Class/CDC/Src/usbh_cdc.c ****     break;
 726:Middlewares/ST/STM32_USB_Host_Library/Class/CDC/Src/usbh_cdc.c ****   }
 727:Middlewares/ST/STM32_USB_Host_Library/Class/CDC/Src/usbh_cdc.c **** }
 728:Middlewares/ST/STM32_USB_Host_Library/Class/CDC/Src/usbh_cdc.c **** 
 729:Middlewares/ST/STM32_USB_Host_Library/Class/CDC/Src/usbh_cdc.c **** /**
 730:Middlewares/ST/STM32_USB_Host_Library/Class/CDC/Src/usbh_cdc.c **** * @brief  The function informs user that data have been received
 731:Middlewares/ST/STM32_USB_Host_Library/Class/CDC/Src/usbh_cdc.c **** *  @param  pdev: Selected device
 732:Middlewares/ST/STM32_USB_Host_Library/Class/CDC/Src/usbh_cdc.c **** * @retval None
 733:Middlewares/ST/STM32_USB_Host_Library/Class/CDC/Src/usbh_cdc.c **** */
 734:Middlewares/ST/STM32_USB_Host_Library/Class/CDC/Src/usbh_cdc.c **** __weak void USBH_CDC_TransmitCallback(USBH_HandleTypeDef *phost)
 735:Middlewares/ST/STM32_USB_Host_Library/Class/CDC/Src/usbh_cdc.c **** {
 876              		.loc 1 735 0
 877              		.cfi_startproc
 878              		@ args = 0, pretend = 0, frame = 0
 879              		@ frame_needed = 0, uses_anonymous_args = 0
 880              		@ link register save eliminated.
 881              	.LVL96:
 736:Middlewares/ST/STM32_USB_Host_Library/Class/CDC/Src/usbh_cdc.c ****   
 737:Middlewares/ST/STM32_USB_Host_Library/Class/CDC/Src/usbh_cdc.c **** }
 882              		.loc 1 737 0
 883 0000 7047     		bx	lr
 884              		.cfi_endproc
 885              	.LFE158:
 887              		.section	.text.CDC_ProcessTransmission,"ax",%progbits
 888              		.align	1
 889              		.syntax unified
 890              		.thumb
 891              		.thumb_func
 892              		.fpu fpv5-sp-d16
 894              	CDC_ProcessTransmission:
 895              	.LFB156:
 601:Middlewares/ST/STM32_USB_Host_Library/Class/CDC/Src/usbh_cdc.c ****   CDC_HandleTypeDef *CDC_Handle =  (CDC_HandleTypeDef*) phost->pActiveClass->pData;
 896              		.loc 1 601 0
 897              		.cfi_startproc
 898              		@ args = 0, pretend = 0, frame = 0
 899              		@ frame_needed = 0, uses_anonymous_args = 0
 900              	.LVL97:
 901 0000 30B5     		push	{r4, r5, lr}
 902              	.LCFI16:
 903              		.cfi_def_cfa_offset 12
 904              		.cfi_offset 4, -12
 905              		.cfi_offset 5, -8
 906              		.cfi_offset 14, -4
ARM GAS  /tmp/ccqNwYK1.s 			page 31


 907 0002 83B0     		sub	sp, sp, #12
 908              	.LCFI17:
 909              		.cfi_def_cfa_offset 24
 910 0004 0546     		mov	r5, r0
 602:Middlewares/ST/STM32_USB_Host_Library/Class/CDC/Src/usbh_cdc.c ****   USBH_URBStateTypeDef URB_Status = USBH_URB_IDLE;
 911              		.loc 1 602 0
 912 0006 D0F87433 		ldr	r3, [r0, #884]
 913 000a DC69     		ldr	r4, [r3, #28]
 914              	.LVL98:
 605:Middlewares/ST/STM32_USB_Host_Library/Class/CDC/Src/usbh_cdc.c ****   {
 915              		.loc 1 605 0
 916 000c 94F84D30 		ldrb	r3, [r4, #77]	@ zero_extendqisi2
 917 0010 012B     		cmp	r3, #1
 918 0012 03D0     		beq	.L62
 919 0014 022B     		cmp	r3, #2
 920 0016 19D0     		beq	.L63
 921              	.LVL99:
 922              	.L60:
 671:Middlewares/ST/STM32_USB_Host_Library/Class/CDC/Src/usbh_cdc.c **** /**
 923              		.loc 1 671 0
 924 0018 03B0     		add	sp, sp, #12
 925              	.LCFI18:
 926              		.cfi_remember_state
 927              		.cfi_def_cfa_offset 12
 928              		@ sp needed
 929 001a 30BD     		pop	{r4, r5, pc}
 930              	.LVL100:
 931              	.L62:
 932              	.LCFI19:
 933              		.cfi_restore_state
 609:Middlewares/ST/STM32_USB_Host_Library/Class/CDC/Src/usbh_cdc.c ****     {
 934              		.loc 1 609 0
 935 001c 606A     		ldr	r0, [r4, #36]
 936              	.LVL101:
 937 001e 228B     		ldrh	r2, [r4, #24]
 938 0020 9042     		cmp	r0, r2
 939 0022 0AD9     		bls	.L64
 611:Middlewares/ST/STM32_USB_Host_Library/Class/CDC/Src/usbh_cdc.c ****                          CDC_Handle->pTxData, 
 940              		.loc 1 611 0
 941 0024 637B     		ldrb	r3, [r4, #13]	@ zero_extendqisi2
 942 0026 E169     		ldr	r1, [r4, #28]
 943 0028 0120     		movs	r0, #1
 944 002a 0090     		str	r0, [sp]
 945 002c 2846     		mov	r0, r5
 946 002e FFF7FEFF 		bl	USBH_BulkSendData
 947              	.LVL102:
 948              	.L65:
 626:Middlewares/ST/STM32_USB_Host_Library/Class/CDC/Src/usbh_cdc.c ****     
 949              		.loc 1 626 0
 950 0032 0223     		movs	r3, #2
 951 0034 84F84D30 		strb	r3, [r4, #77]
 628:Middlewares/ST/STM32_USB_Host_Library/Class/CDC/Src/usbh_cdc.c ****     
 952              		.loc 1 628 0
 953 0038 EEE7     		b	.L60
 954              	.L64:
 619:Middlewares/ST/STM32_USB_Host_Library/Class/CDC/Src/usbh_cdc.c ****                          CDC_Handle->pTxData, 
 955              		.loc 1 619 0
ARM GAS  /tmp/ccqNwYK1.s 			page 32


 956 003a 637B     		ldrb	r3, [r4, #13]	@ zero_extendqisi2
 957 003c E169     		ldr	r1, [r4, #28]
 958 003e 0122     		movs	r2, #1
 959 0040 0092     		str	r2, [sp]
 960 0042 82B2     		uxth	r2, r0
 961 0044 2846     		mov	r0, r5
 962 0046 FFF7FEFF 		bl	USBH_BulkSendData
 963              	.LVL103:
 964 004a F2E7     		b	.L65
 965              	.LVL104:
 966              	.L63:
 632:Middlewares/ST/STM32_USB_Host_Library/Class/CDC/Src/usbh_cdc.c ****     
 967              		.loc 1 632 0
 968 004c 617B     		ldrb	r1, [r4, #13]	@ zero_extendqisi2
 969 004e FFF7FEFF 		bl	USBH_LL_GetURBState
 970              	.LVL105:
 635:Middlewares/ST/STM32_USB_Host_Library/Class/CDC/Src/usbh_cdc.c ****     {         
 971              		.loc 1 635 0
 972 0052 0128     		cmp	r0, #1
 973 0054 0BD0     		beq	.L72
 660:Middlewares/ST/STM32_USB_Host_Library/Class/CDC/Src/usbh_cdc.c ****     {
 974              		.loc 1 660 0
 975 0056 0228     		cmp	r0, #2
 976 0058 DED1     		bne	.L60
 662:Middlewares/ST/STM32_USB_Host_Library/Class/CDC/Src/usbh_cdc.c **** #if (USBH_USE_OS == 1)
 977              		.loc 1 662 0
 978 005a 0123     		movs	r3, #1
 979 005c 84F84D30 		strb	r3, [r4, #77]
 664:Middlewares/ST/STM32_USB_Host_Library/Class/CDC/Src/usbh_cdc.c **** #endif          
 980              		.loc 1 664 0
 981 0060 0022     		movs	r2, #0
 982 0062 0421     		movs	r1, #4
 983 0064 D5F8C803 		ldr	r0, [r5, #968]
 984              	.LVL106:
 985 0068 FFF7FEFF 		bl	osMessagePut
 986              	.LVL107:
 671:Middlewares/ST/STM32_USB_Host_Library/Class/CDC/Src/usbh_cdc.c **** /**
 987              		.loc 1 671 0
 988 006c D4E7     		b	.L60
 989              	.LVL108:
 990              	.L72:
 637:Middlewares/ST/STM32_USB_Host_Library/Class/CDC/Src/usbh_cdc.c ****       {
 991              		.loc 1 637 0
 992 006e 636A     		ldr	r3, [r4, #36]
 993 0070 228B     		ldrh	r2, [r4, #24]
 994 0072 9342     		cmp	r3, r2
 995 0074 10D9     		bls	.L67
 639:Middlewares/ST/STM32_USB_Host_Library/Class/CDC/Src/usbh_cdc.c ****         CDC_Handle->pTxData += CDC_Handle->DataItf.OutEpSize;
 996              		.loc 1 639 0
 997 0076 9B1A     		subs	r3, r3, r2
 998 0078 6362     		str	r3, [r4, #36]
 640:Middlewares/ST/STM32_USB_Host_Library/Class/CDC/Src/usbh_cdc.c ****       }
 999              		.loc 1 640 0
 1000 007a E369     		ldr	r3, [r4, #28]
 1001 007c 1A44     		add	r2, r2, r3
 1002 007e E261     		str	r2, [r4, #28]
 1003              	.L68:
ARM GAS  /tmp/ccqNwYK1.s 			page 33


 647:Middlewares/ST/STM32_USB_Host_Library/Class/CDC/Src/usbh_cdc.c ****       {
 1004              		.loc 1 647 0
 1005 0080 636A     		ldr	r3, [r4, #36]
 1006 0082 63B1     		cbz	r3, .L69
 649:Middlewares/ST/STM32_USB_Host_Library/Class/CDC/Src/usbh_cdc.c ****       }
 1007              		.loc 1 649 0
 1008 0084 0123     		movs	r3, #1
 1009 0086 84F84D30 		strb	r3, [r4, #77]
 1010              	.LVL109:
 1011              	.L70:
 657:Middlewares/ST/STM32_USB_Host_Library/Class/CDC/Src/usbh_cdc.c **** #endif    
 1012              		.loc 1 657 0
 1013 008a 0022     		movs	r2, #0
 1014 008c 0421     		movs	r1, #4
 1015 008e D5F8C803 		ldr	r0, [r5, #968]
 1016 0092 FFF7FEFF 		bl	osMessagePut
 1017              	.LVL110:
 1018 0096 BFE7     		b	.L60
 1019              	.LVL111:
 1020              	.L67:
 644:Middlewares/ST/STM32_USB_Host_Library/Class/CDC/Src/usbh_cdc.c ****       }
 1021              		.loc 1 644 0
 1022 0098 0023     		movs	r3, #0
 1023 009a 6362     		str	r3, [r4, #36]
 1024 009c F0E7     		b	.L68
 1025              	.L69:
 653:Middlewares/ST/STM32_USB_Host_Library/Class/CDC/Src/usbh_cdc.c ****         USBH_CDC_TransmitCallback(phost);
 1026              		.loc 1 653 0
 1027 009e 0023     		movs	r3, #0
 1028 00a0 84F84D30 		strb	r3, [r4, #77]
 654:Middlewares/ST/STM32_USB_Host_Library/Class/CDC/Src/usbh_cdc.c ****       }
 1029              		.loc 1 654 0
 1030 00a4 2846     		mov	r0, r5
 1031              	.LVL112:
 1032 00a6 FFF7FEFF 		bl	USBH_CDC_TransmitCallback
 1033              	.LVL113:
 1034 00aa EEE7     		b	.L70
 1035              		.cfi_endproc
 1036              	.LFE156:
 1038              		.section	.text.USBH_CDC_ReceiveCallback,"ax",%progbits
 1039              		.align	1
 1040              		.weak	USBH_CDC_ReceiveCallback
 1041              		.syntax unified
 1042              		.thumb
 1043              		.thumb_func
 1044              		.fpu fpv5-sp-d16
 1046              	USBH_CDC_ReceiveCallback:
 1047              	.LFB159:
 738:Middlewares/ST/STM32_USB_Host_Library/Class/CDC/Src/usbh_cdc.c ****   
 739:Middlewares/ST/STM32_USB_Host_Library/Class/CDC/Src/usbh_cdc.c ****   /**
 740:Middlewares/ST/STM32_USB_Host_Library/Class/CDC/Src/usbh_cdc.c **** * @brief  The function informs user that data have been sent
 741:Middlewares/ST/STM32_USB_Host_Library/Class/CDC/Src/usbh_cdc.c **** *  @param  pdev: Selected device
 742:Middlewares/ST/STM32_USB_Host_Library/Class/CDC/Src/usbh_cdc.c **** * @retval None
 743:Middlewares/ST/STM32_USB_Host_Library/Class/CDC/Src/usbh_cdc.c **** */
 744:Middlewares/ST/STM32_USB_Host_Library/Class/CDC/Src/usbh_cdc.c **** __weak void USBH_CDC_ReceiveCallback(USBH_HandleTypeDef *phost)
 745:Middlewares/ST/STM32_USB_Host_Library/Class/CDC/Src/usbh_cdc.c **** {
 1048              		.loc 1 745 0
ARM GAS  /tmp/ccqNwYK1.s 			page 34


 1049              		.cfi_startproc
 1050              		@ args = 0, pretend = 0, frame = 0
 1051              		@ frame_needed = 0, uses_anonymous_args = 0
 1052              		@ link register save eliminated.
 1053              	.LVL114:
 746:Middlewares/ST/STM32_USB_Host_Library/Class/CDC/Src/usbh_cdc.c ****   
 747:Middlewares/ST/STM32_USB_Host_Library/Class/CDC/Src/usbh_cdc.c **** }
 1054              		.loc 1 747 0
 1055 0000 7047     		bx	lr
 1056              		.cfi_endproc
 1057              	.LFE159:
 1059              		.section	.text.CDC_ProcessReception,"ax",%progbits
 1060              		.align	1
 1061              		.syntax unified
 1062              		.thumb
 1063              		.thumb_func
 1064              		.fpu fpv5-sp-d16
 1066              	CDC_ProcessReception:
 1067              	.LFB157:
 679:Middlewares/ST/STM32_USB_Host_Library/Class/CDC/Src/usbh_cdc.c ****   CDC_HandleTypeDef *CDC_Handle =  (CDC_HandleTypeDef*) phost->pActiveClass->pData;
 1068              		.loc 1 679 0
 1069              		.cfi_startproc
 1070              		@ args = 0, pretend = 0, frame = 0
 1071              		@ frame_needed = 0, uses_anonymous_args = 0
 1072              	.LVL115:
 1073 0000 38B5     		push	{r3, r4, r5, lr}
 1074              	.LCFI20:
 1075              		.cfi_def_cfa_offset 16
 1076              		.cfi_offset 3, -16
 1077              		.cfi_offset 4, -12
 1078              		.cfi_offset 5, -8
 1079              		.cfi_offset 14, -4
 1080 0002 0546     		mov	r5, r0
 680:Middlewares/ST/STM32_USB_Host_Library/Class/CDC/Src/usbh_cdc.c ****   USBH_URBStateTypeDef URB_Status = USBH_URB_IDLE;
 1081              		.loc 1 680 0
 1082 0004 D0F87433 		ldr	r3, [r0, #884]
 1083 0008 DC69     		ldr	r4, [r3, #28]
 1084              	.LVL116:
 684:Middlewares/ST/STM32_USB_Host_Library/Class/CDC/Src/usbh_cdc.c ****   {
 1085              		.loc 1 684 0
 1086 000a 94F84E30 		ldrb	r3, [r4, #78]	@ zero_extendqisi2
 1087 000e 032B     		cmp	r3, #3
 1088 0010 02D0     		beq	.L76
 1089 0012 042B     		cmp	r3, #4
 1090 0014 09D0     		beq	.L77
 1091              	.LVL117:
 1092              	.L74:
 727:Middlewares/ST/STM32_USB_Host_Library/Class/CDC/Src/usbh_cdc.c **** 
 1093              		.loc 1 727 0
 1094 0016 38BD     		pop	{r3, r4, r5, pc}
 1095              	.LVL118:
 1096              	.L76:
 689:Middlewares/ST/STM32_USB_Host_Library/Class/CDC/Src/usbh_cdc.c ****                           CDC_Handle->pRxData, 
 1097              		.loc 1 689 0
 1098 0018 237B     		ldrb	r3, [r4, #12]	@ zero_extendqisi2
 1099 001a 628B     		ldrh	r2, [r4, #26]
 1100 001c 216A     		ldr	r1, [r4, #32]
ARM GAS  /tmp/ccqNwYK1.s 			page 35


 1101 001e FFF7FEFF 		bl	USBH_BulkReceiveData
 1102              	.LVL119:
 694:Middlewares/ST/STM32_USB_Host_Library/Class/CDC/Src/usbh_cdc.c ****     
 1103              		.loc 1 694 0
 1104 0022 0423     		movs	r3, #4
 1105 0024 84F84E30 		strb	r3, [r4, #78]
 696:Middlewares/ST/STM32_USB_Host_Library/Class/CDC/Src/usbh_cdc.c ****     
 1106              		.loc 1 696 0
 1107 0028 F5E7     		b	.L74
 1108              	.LVL120:
 1109              	.L77:
 700:Middlewares/ST/STM32_USB_Host_Library/Class/CDC/Src/usbh_cdc.c ****     
 1110              		.loc 1 700 0
 1111 002a 217B     		ldrb	r1, [r4, #12]	@ zero_extendqisi2
 1112 002c FFF7FEFF 		bl	USBH_LL_GetURBState
 1113              	.LVL121:
 703:Middlewares/ST/STM32_USB_Host_Library/Class/CDC/Src/usbh_cdc.c ****     {  
 1114              		.loc 1 703 0
 1115 0030 0128     		cmp	r0, #1
 1116 0032 F0D1     		bne	.L74
 705:Middlewares/ST/STM32_USB_Host_Library/Class/CDC/Src/usbh_cdc.c ****         
 1117              		.loc 1 705 0
 1118 0034 217B     		ldrb	r1, [r4, #12]	@ zero_extendqisi2
 1119 0036 2846     		mov	r0, r5
 1120              	.LVL122:
 1121 0038 FFF7FEFF 		bl	USBH_LL_GetLastXferSize
 1122              	.LVL123:
 1123 003c 80B2     		uxth	r0, r0
 1124              	.LVL124:
 707:Middlewares/ST/STM32_USB_Host_Library/Class/CDC/Src/usbh_cdc.c ****       {
 1125              		.loc 1 707 0
 1126 003e A36A     		ldr	r3, [r4, #40]
 1127 0040 8342     		cmp	r3, r0
 1128 0042 0BD0     		beq	.L78
 707:Middlewares/ST/STM32_USB_Host_Library/Class/CDC/Src/usbh_cdc.c ****       {
 1129              		.loc 1 707 0 is_stmt 0 discriminator 1
 1130 0044 628B     		ldrh	r2, [r4, #26]
 1131 0046 8242     		cmp	r2, r0
 1132 0048 08D2     		bcs	.L78
 709:Middlewares/ST/STM32_USB_Host_Library/Class/CDC/Src/usbh_cdc.c ****         CDC_Handle->pRxData += length;
 1133              		.loc 1 709 0 is_stmt 1
 1134 004a 1B1A     		subs	r3, r3, r0
 1135 004c A362     		str	r3, [r4, #40]
 710:Middlewares/ST/STM32_USB_Host_Library/Class/CDC/Src/usbh_cdc.c ****         CDC_Handle->data_rx_state = CDC_RECEIVE_DATA; 
 1136              		.loc 1 710 0
 1137 004e 236A     		ldr	r3, [r4, #32]
 1138 0050 1844     		add	r0, r0, r3
 1139              	.LVL125:
 1140 0052 2062     		str	r0, [r4, #32]
 711:Middlewares/ST/STM32_USB_Host_Library/Class/CDC/Src/usbh_cdc.c ****       }
 1141              		.loc 1 711 0
 1142 0054 0323     		movs	r3, #3
 1143 0056 84F84E30 		strb	r3, [r4, #78]
 1144 005a 05E0     		b	.L79
 1145              	.LVL126:
 1146              	.L78:
 715:Middlewares/ST/STM32_USB_Host_Library/Class/CDC/Src/usbh_cdc.c ****         USBH_CDC_ReceiveCallback(phost);
ARM GAS  /tmp/ccqNwYK1.s 			page 36


 1147              		.loc 1 715 0
 1148 005c 0023     		movs	r3, #0
 1149 005e 84F84E30 		strb	r3, [r4, #78]
 716:Middlewares/ST/STM32_USB_Host_Library/Class/CDC/Src/usbh_cdc.c ****       }
 1150              		.loc 1 716 0
 1151 0062 2846     		mov	r0, r5
 1152              	.LVL127:
 1153 0064 FFF7FEFF 		bl	USBH_CDC_ReceiveCallback
 1154              	.LVL128:
 1155              	.L79:
 719:Middlewares/ST/STM32_USB_Host_Library/Class/CDC/Src/usbh_cdc.c **** #endif          
 1156              		.loc 1 719 0
 1157 0068 0022     		movs	r2, #0
 1158 006a 0421     		movs	r1, #4
 1159 006c D5F8C803 		ldr	r0, [r5, #968]
 1160 0070 FFF7FEFF 		bl	osMessagePut
 1161              	.LVL129:
 727:Middlewares/ST/STM32_USB_Host_Library/Class/CDC/Src/usbh_cdc.c **** 
 1162              		.loc 1 727 0
 1163 0074 CFE7     		b	.L74
 1164              		.cfi_endproc
 1165              	.LFE157:
 1167              		.section	.text.USBH_CDC_LineCodingChanged,"ax",%progbits
 1168              		.align	1
 1169              		.weak	USBH_CDC_LineCodingChanged
 1170              		.syntax unified
 1171              		.thumb
 1172              		.thumb_func
 1173              		.fpu fpv5-sp-d16
 1175              	USBH_CDC_LineCodingChanged:
 1176              	.LFB160:
 748:Middlewares/ST/STM32_USB_Host_Library/Class/CDC/Src/usbh_cdc.c **** 
 749:Middlewares/ST/STM32_USB_Host_Library/Class/CDC/Src/usbh_cdc.c ****   /**
 750:Middlewares/ST/STM32_USB_Host_Library/Class/CDC/Src/usbh_cdc.c **** * @brief  The function informs user that Settings have been changed
 751:Middlewares/ST/STM32_USB_Host_Library/Class/CDC/Src/usbh_cdc.c **** *  @param  pdev: Selected device
 752:Middlewares/ST/STM32_USB_Host_Library/Class/CDC/Src/usbh_cdc.c **** * @retval None
 753:Middlewares/ST/STM32_USB_Host_Library/Class/CDC/Src/usbh_cdc.c **** */
 754:Middlewares/ST/STM32_USB_Host_Library/Class/CDC/Src/usbh_cdc.c **** __weak void USBH_CDC_LineCodingChanged(USBH_HandleTypeDef *phost)
 755:Middlewares/ST/STM32_USB_Host_Library/Class/CDC/Src/usbh_cdc.c **** {
 1177              		.loc 1 755 0
 1178              		.cfi_startproc
 1179              		@ args = 0, pretend = 0, frame = 0
 1180              		@ frame_needed = 0, uses_anonymous_args = 0
 1181              		@ link register save eliminated.
 1182              	.LVL130:
 756:Middlewares/ST/STM32_USB_Host_Library/Class/CDC/Src/usbh_cdc.c ****   
 757:Middlewares/ST/STM32_USB_Host_Library/Class/CDC/Src/usbh_cdc.c **** }
 1183              		.loc 1 757 0
 1184 0000 7047     		bx	lr
 1185              		.cfi_endproc
 1186              	.LFE160:
 1188              		.section	.text.USBH_CDC_Process,"ax",%progbits
 1189              		.align	1
 1190              		.syntax unified
 1191              		.thumb
 1192              		.thumb_func
 1193              		.fpu fpv5-sp-d16
ARM GAS  /tmp/ccqNwYK1.s 			page 37


 1195              	USBH_CDC_Process:
 1196              	.LFB146:
 338:Middlewares/ST/STM32_USB_Host_Library/Class/CDC/Src/usbh_cdc.c ****   USBH_StatusTypeDef status = USBH_BUSY;
 1197              		.loc 1 338 0
 1198              		.cfi_startproc
 1199              		@ args = 0, pretend = 0, frame = 0
 1200              		@ frame_needed = 0, uses_anonymous_args = 0
 1201              	.LVL131:
 1202 0000 38B5     		push	{r3, r4, r5, lr}
 1203              	.LCFI21:
 1204              		.cfi_def_cfa_offset 16
 1205              		.cfi_offset 3, -16
 1206              		.cfi_offset 4, -12
 1207              		.cfi_offset 5, -8
 1208              		.cfi_offset 14, -4
 1209 0002 0546     		mov	r5, r0
 1210              	.LVL132:
 341:Middlewares/ST/STM32_USB_Host_Library/Class/CDC/Src/usbh_cdc.c ****   
 1211              		.loc 1 341 0
 1212 0004 D0F87433 		ldr	r3, [r0, #884]
 1213 0008 DC69     		ldr	r4, [r3, #28]
 1214              	.LVL133:
 343:Middlewares/ST/STM32_USB_Host_Library/Class/CDC/Src/usbh_cdc.c ****   {
 1215              		.loc 1 343 0
 1216 000a 94F84C30 		ldrb	r3, [r4, #76]	@ zero_extendqisi2
 1217 000e 042B     		cmp	r3, #4
 1218 0010 04D8     		bhi	.L83
 1219 0012 DFE803F0 		tbb	[pc, r3]
 1220              	.L85:
 1221 0016 4C       		.byte	(.L92-.L85)/2
 1222 0017 05       		.byte	(.L86-.L85)/2
 1223 0018 16       		.byte	(.L87-.L85)/2
 1224 0019 3C       		.byte	(.L88-.L85)/2
 1225 001a 43       		.byte	(.L89-.L85)/2
 1226 001b 00       		.p2align 1
 1227              	.L83:
 339:Middlewares/ST/STM32_USB_Host_Library/Class/CDC/Src/usbh_cdc.c ****   USBH_StatusTypeDef req_status = USBH_OK;
 1228              		.loc 1 339 0
 1229 001c 0123     		movs	r3, #1
 1230 001e 47E0     		b	.L84
 1231              	.L86:
 351:Middlewares/ST/STM32_USB_Host_Library/Class/CDC/Src/usbh_cdc.c ****     
 1232              		.loc 1 351 0
 1233 0020 A16C     		ldr	r1, [r4, #72]
 1234 0022 FFF7FEFF 		bl	SetLineCoding
 1235              	.LVL134:
 353:Middlewares/ST/STM32_USB_Host_Library/Class/CDC/Src/usbh_cdc.c ****     {
 1236              		.loc 1 353 0
 1237 0026 0346     		mov	r3, r0
 1238 0028 30B1     		cbz	r0, .L97
 358:Middlewares/ST/STM32_USB_Host_Library/Class/CDC/Src/usbh_cdc.c ****     {
 1239              		.loc 1 358 0
 1240 002a 0128     		cmp	r0, #1
 1241 002c 40D0     		beq	.L84
 360:Middlewares/ST/STM32_USB_Host_Library/Class/CDC/Src/usbh_cdc.c ****     }
 1242              		.loc 1 360 0
 1243 002e 0423     		movs	r3, #4
ARM GAS  /tmp/ccqNwYK1.s 			page 38


 1244 0030 84F84C30 		strb	r3, [r4, #76]
 339:Middlewares/ST/STM32_USB_Host_Library/Class/CDC/Src/usbh_cdc.c ****   USBH_StatusTypeDef req_status = USBH_OK;
 1245              		.loc 1 339 0
 1246 0034 0123     		movs	r3, #1
 1247 0036 3BE0     		b	.L84
 1248              	.L97:
 355:Middlewares/ST/STM32_USB_Host_Library/Class/CDC/Src/usbh_cdc.c ****     }
 1249              		.loc 1 355 0
 1250 0038 0223     		movs	r3, #2
 1251 003a 84F84C30 		strb	r3, [r4, #76]
 339:Middlewares/ST/STM32_USB_Host_Library/Class/CDC/Src/usbh_cdc.c ****   USBH_StatusTypeDef req_status = USBH_OK;
 1252              		.loc 1 339 0
 1253 003e 0123     		movs	r3, #1
 1254 0040 36E0     		b	.L84
 1255              	.LVL135:
 1256              	.L87:
 366:Middlewares/ST/STM32_USB_Host_Library/Class/CDC/Src/usbh_cdc.c ****     
 1257              		.loc 1 366 0
 1258 0042 04F14001 		add	r1, r4, #64
 1259 0046 FFF7FEFF 		bl	GetLineCoding
 1260              	.LVL136:
 368:Middlewares/ST/STM32_USB_Host_Library/Class/CDC/Src/usbh_cdc.c ****     {
 1261              		.loc 1 368 0
 1262 004a 0346     		mov	r3, r0
 1263 004c C0B9     		cbnz	r0, .L91
 370:Middlewares/ST/STM32_USB_Host_Library/Class/CDC/Src/usbh_cdc.c ****       
 1264              		.loc 1 370 0
 1265 004e 0023     		movs	r3, #0
 1266 0050 84F84C30 		strb	r3, [r4, #76]
 373:Middlewares/ST/STM32_USB_Host_Library/Class/CDC/Src/usbh_cdc.c ****          (CDC_Handle->LineCoding.b.bParityType == CDC_Handle->pUserLineCoding->b.bParityType) &&
 1267              		.loc 1 373 0
 1268 0054 636C     		ldr	r3, [r4, #68]
 1269 0056 23F07F42 		bic	r2, r3, #-16777216
 372:Middlewares/ST/STM32_USB_Host_Library/Class/CDC/Src/usbh_cdc.c ****          (CDC_Handle->LineCoding.b.bDataBits == CDC_Handle->pUserLineCoding->b.bDataBits) &&
 1270              		.loc 1 372 0
 1271 005a A16C     		ldr	r1, [r4, #72]
 373:Middlewares/ST/STM32_USB_Host_Library/Class/CDC/Src/usbh_cdc.c ****          (CDC_Handle->LineCoding.b.bParityType == CDC_Handle->pUserLineCoding->b.bParityType) &&
 1272              		.loc 1 373 0
 1273 005c 4B68     		ldr	r3, [r1, #4]
 1274 005e 23F07F43 		bic	r3, r3, #-16777216
 372:Middlewares/ST/STM32_USB_Host_Library/Class/CDC/Src/usbh_cdc.c ****          (CDC_Handle->LineCoding.b.bDataBits == CDC_Handle->pUserLineCoding->b.bDataBits) &&
 1275              		.loc 1 372 0
 1276 0062 9A42     		cmp	r2, r3
 1277 0064 01D0     		beq	.L98
 339:Middlewares/ST/STM32_USB_Host_Library/Class/CDC/Src/usbh_cdc.c ****   USBH_StatusTypeDef req_status = USBH_OK;
 1278              		.loc 1 339 0
 1279 0066 0123     		movs	r3, #1
 1280 0068 22E0     		b	.L84
 1281              	.L98:
 375:Middlewares/ST/STM32_USB_Host_Library/Class/CDC/Src/usbh_cdc.c ****       {
 1282              		.loc 1 375 0
 1283 006a 226C     		ldr	r2, [r4, #64]
 1284 006c 0B68     		ldr	r3, [r1]
 374:Middlewares/ST/STM32_USB_Host_Library/Class/CDC/Src/usbh_cdc.c ****          (CDC_Handle->LineCoding.b.dwDTERate == CDC_Handle->pUserLineCoding->b.dwDTERate))
 1285              		.loc 1 374 0
 1286 006e 9A42     		cmp	r2, r3
 1287 0070 01D0     		beq	.L99
ARM GAS  /tmp/ccqNwYK1.s 			page 39


 339:Middlewares/ST/STM32_USB_Host_Library/Class/CDC/Src/usbh_cdc.c ****   USBH_StatusTypeDef req_status = USBH_OK;
 1288              		.loc 1 339 0
 1289 0072 0123     		movs	r3, #1
 1290 0074 1CE0     		b	.L84
 1291              	.L99:
 377:Middlewares/ST/STM32_USB_Host_Library/Class/CDC/Src/usbh_cdc.c ****       }
 1292              		.loc 1 377 0
 1293 0076 2846     		mov	r0, r5
 1294              	.LVL137:
 1295 0078 FFF7FEFF 		bl	USBH_CDC_LineCodingChanged
 1296              	.LVL138:
 339:Middlewares/ST/STM32_USB_Host_Library/Class/CDC/Src/usbh_cdc.c ****   USBH_StatusTypeDef req_status = USBH_OK;
 1297              		.loc 1 339 0
 1298 007c 0123     		movs	r3, #1
 1299 007e 17E0     		b	.L84
 1300              	.LVL139:
 1301              	.L91:
 381:Middlewares/ST/STM32_USB_Host_Library/Class/CDC/Src/usbh_cdc.c ****     {
 1302              		.loc 1 381 0
 1303 0080 0128     		cmp	r0, #1
 1304 0082 15D0     		beq	.L84
 383:Middlewares/ST/STM32_USB_Host_Library/Class/CDC/Src/usbh_cdc.c ****     }   
 1305              		.loc 1 383 0
 1306 0084 0423     		movs	r3, #4
 1307 0086 84F84C30 		strb	r3, [r4, #76]
 339:Middlewares/ST/STM32_USB_Host_Library/Class/CDC/Src/usbh_cdc.c ****   USBH_StatusTypeDef req_status = USBH_OK;
 1308              		.loc 1 339 0
 1309 008a 0123     		movs	r3, #1
 1310 008c 10E0     		b	.L84
 1311              	.LVL140:
 1312              	.L88:
 389:Middlewares/ST/STM32_USB_Host_Library/Class/CDC/Src/usbh_cdc.c ****     CDC_ProcessReception(phost);
 1313              		.loc 1 389 0
 1314 008e FFF7FEFF 		bl	CDC_ProcessTransmission
 1315              	.LVL141:
 390:Middlewares/ST/STM32_USB_Host_Library/Class/CDC/Src/usbh_cdc.c ****     break;   
 1316              		.loc 1 390 0
 1317 0092 2846     		mov	r0, r5
 1318 0094 FFF7FEFF 		bl	CDC_ProcessReception
 1319              	.LVL142:
 339:Middlewares/ST/STM32_USB_Host_Library/Class/CDC/Src/usbh_cdc.c ****   USBH_StatusTypeDef req_status = USBH_OK;
 1320              		.loc 1 339 0
 1321 0098 0123     		movs	r3, #1
 391:Middlewares/ST/STM32_USB_Host_Library/Class/CDC/Src/usbh_cdc.c ****     
 1322              		.loc 1 391 0
 1323 009a 09E0     		b	.L84
 1324              	.LVL143:
 1325              	.L89:
 394:Middlewares/ST/STM32_USB_Host_Library/Class/CDC/Src/usbh_cdc.c ****     
 1326              		.loc 1 394 0
 1327 009c 0021     		movs	r1, #0
 1328 009e FFF7FEFF 		bl	USBH_ClrFeature
 1329              	.LVL144:
 396:Middlewares/ST/STM32_USB_Host_Library/Class/CDC/Src/usbh_cdc.c ****     {        
 1330              		.loc 1 396 0
 1331 00a2 38B9     		cbnz	r0, .L95
 399:Middlewares/ST/STM32_USB_Host_Library/Class/CDC/Src/usbh_cdc.c ****     }    
ARM GAS  /tmp/ccqNwYK1.s 			page 40


 1332              		.loc 1 399 0
 1333 00a4 0023     		movs	r3, #0
 1334 00a6 84F84C30 		strb	r3, [r4, #76]
 339:Middlewares/ST/STM32_USB_Host_Library/Class/CDC/Src/usbh_cdc.c ****   USBH_StatusTypeDef req_status = USBH_OK;
 1335              		.loc 1 339 0
 1336 00aa 0123     		movs	r3, #1
 1337 00ac 00E0     		b	.L84
 1338              	.LVL145:
 1339              	.L92:
 347:Middlewares/ST/STM32_USB_Host_Library/Class/CDC/Src/usbh_cdc.c ****     break;
 1340              		.loc 1 347 0
 1341 00ae 0023     		movs	r3, #0
 1342              	.LVL146:
 1343              	.L84:
 409:Middlewares/ST/STM32_USB_Host_Library/Class/CDC/Src/usbh_cdc.c **** 
 1344              		.loc 1 409 0
 1345 00b0 1846     		mov	r0, r3
 1346 00b2 38BD     		pop	{r3, r4, r5, pc}
 1347              	.LVL147:
 1348              	.L95:
 339:Middlewares/ST/STM32_USB_Host_Library/Class/CDC/Src/usbh_cdc.c ****   USBH_StatusTypeDef req_status = USBH_OK;
 1349              		.loc 1 339 0
 1350 00b4 0123     		movs	r3, #1
 1351 00b6 FBE7     		b	.L84
 1352              		.cfi_endproc
 1353              	.LFE146:
 1355              		.global	CDC_Class
 1356              		.section	.data.CDC_Class,"aw",%progbits
 1357              		.align	2
 1360              	CDC_Class:
 1361 0000 00000000 		.word	.LC0
 1362 0004 02       		.byte	2
 1363 0005 000000   		.space	3
 1364 0008 00000000 		.word	USBH_CDC_InterfaceInit
 1365 000c 00000000 		.word	USBH_CDC_InterfaceDeInit
 1366 0010 00000000 		.word	USBH_CDC_ClassRequest
 1367 0014 00000000 		.word	USBH_CDC_Process
 1368 0018 00000000 		.word	USBH_CDC_SOFProcess
 1369 001c 00000000 		.word	0
 1370              		.section	.rodata.str1.4,"aMS",%progbits,1
 1371              		.align	2
 1372              	.LC0:
 1373 0000 43444300 		.ascii	"CDC\000"
 1374              		.text
 1375              	.Letext0:
 1376              		.file 2 "/home/warranyu/opt/gcc-arm-none-eabi-7-2018-q2-update/arm-none-eabi/include/machine/_defa
 1377              		.file 3 "/home/warranyu/opt/gcc-arm-none-eabi-7-2018-q2-update/arm-none-eabi/include/sys/lock.h"
 1378              		.file 4 "/home/warranyu/opt/gcc-arm-none-eabi-7-2018-q2-update/arm-none-eabi/include/sys/_types.h"
 1379              		.file 5 "/home/warranyu/opt/gcc-arm-none-eabi-7-2018-q2-update/lib/gcc/arm-none-eabi/7.3.1/include
 1380              		.file 6 "/home/warranyu/opt/gcc-arm-none-eabi-7-2018-q2-update/arm-none-eabi/include/sys/reent.h"
 1381              		.file 7 "/home/warranyu/opt/gcc-arm-none-eabi-7-2018-q2-update/arm-none-eabi/include/sys/_stdint.h
 1382              		.file 8 "/home/warranyu/opt/gcc-arm-none-eabi-7-2018-q2-update/arm-none-eabi/include/stdlib.h"
 1383              		.file 9 "Drivers/CMSIS/Include/core_cm7.h"
 1384              		.file 10 "Drivers/CMSIS/Device/ST/STM32F7xx/Include/system_stm32f7xx.h"
 1385              		.file 11 "Middlewares/Third_Party/FreeRTOS/Source/include/task.h"
 1386              		.file 12 "Middlewares/Third_Party/FreeRTOS/Source/include/queue.h"
 1387              		.file 13 "Middlewares/Third_Party/FreeRTOS/Source/CMSIS_RTOS/cmsis_os.h"
ARM GAS  /tmp/ccqNwYK1.s 			page 41


 1388              		.file 14 "Middlewares/ST/STM32_USB_Host_Library/Core/Inc/usbh_def.h"
 1389              		.file 15 "Middlewares/ST/STM32_USB_Host_Library/Core/Inc/usbh_ctlreq.h"
 1390              		.file 16 "Middlewares/ST/STM32_USB_Host_Library/Class/CDC/Inc/usbh_cdc.h"
 1391              		.file 17 "Middlewares/ST/STM32_USB_Host_Library/Core/Inc/usbh_ioreq.h"
 1392              		.file 18 "Middlewares/ST/STM32_USB_Host_Library/Core/Inc/usbh_core.h"
 1393              		.file 19 "Middlewares/ST/STM32_USB_Host_Library/Core/Inc/usbh_pipes.h"
ARM GAS  /tmp/ccqNwYK1.s 			page 42

