ARM GAS  /tmp/cc5NuF1o.s 			page 1


   1              		.cpu cortex-m7
   2              		.eabi_attribute 27, 1
   3              		.eabi_attribute 28, 1
   4              		.eabi_attribute 20, 1
   5              		.eabi_attribute 21, 1
   6              		.eabi_attribute 23, 3
   7              		.eabi_attribute 24, 1
   8              		.eabi_attribute 25, 1
   9              		.eabi_attribute 26, 1
  10              		.eabi_attribute 30, 1
  11              		.eabi_attribute 34, 1
  12              		.eabi_attribute 18, 4
  13              		.file	"usbh_ctlreq.c"
  14              		.text
  15              	.Ltext0:
  16              		.cfi_sections	.debug_frame
  17              		.section	.text.USBH_ParseDevDesc,"ax",%progbits
  18              		.align	1
  19              		.syntax unified
  20              		.thumb
  21              		.thumb_func
  22              		.fpu fpv5-sp-d16
  24              	USBH_ParseDevDesc:
  25              	.LFB151:
  26              		.file 1 "Middlewares/ST/STM32_USB_Host_Library/Core/Src/usbh_ctlreq.c"
   1:Middlewares/ST/STM32_USB_Host_Library/Core/Src/usbh_ctlreq.c **** /**
   2:Middlewares/ST/STM32_USB_Host_Library/Core/Src/usbh_ctlreq.c ****   ******************************************************************************
   3:Middlewares/ST/STM32_USB_Host_Library/Core/Src/usbh_ctlreq.c ****   * @file    usbh_ctlreq.c 
   4:Middlewares/ST/STM32_USB_Host_Library/Core/Src/usbh_ctlreq.c ****   * @author  MCD Application Team
   5:Middlewares/ST/STM32_USB_Host_Library/Core/Src/usbh_ctlreq.c ****   * @brief   This file implements the control requests for device enumeration
   6:Middlewares/ST/STM32_USB_Host_Library/Core/Src/usbh_ctlreq.c ****   ******************************************************************************
   7:Middlewares/ST/STM32_USB_Host_Library/Core/Src/usbh_ctlreq.c ****   * @attention
   8:Middlewares/ST/STM32_USB_Host_Library/Core/Src/usbh_ctlreq.c ****   *
   9:Middlewares/ST/STM32_USB_Host_Library/Core/Src/usbh_ctlreq.c ****   * <h2><center>&copy; COPYRIGHT 2015 STMicroelectronics</center></h2>
  10:Middlewares/ST/STM32_USB_Host_Library/Core/Src/usbh_ctlreq.c ****   *
  11:Middlewares/ST/STM32_USB_Host_Library/Core/Src/usbh_ctlreq.c ****   * Licensed under MCD-ST Liberty SW License Agreement V2, (the "License");
  12:Middlewares/ST/STM32_USB_Host_Library/Core/Src/usbh_ctlreq.c ****   * You may not use this file except in compliance with the License.
  13:Middlewares/ST/STM32_USB_Host_Library/Core/Src/usbh_ctlreq.c ****   * You may obtain a copy of the License at:
  14:Middlewares/ST/STM32_USB_Host_Library/Core/Src/usbh_ctlreq.c ****   *
  15:Middlewares/ST/STM32_USB_Host_Library/Core/Src/usbh_ctlreq.c ****   *        http://www.st.com/software_license_agreement_liberty_v2
  16:Middlewares/ST/STM32_USB_Host_Library/Core/Src/usbh_ctlreq.c ****   *
  17:Middlewares/ST/STM32_USB_Host_Library/Core/Src/usbh_ctlreq.c ****   * Unless required by applicable law or agreed to in writing, software 
  18:Middlewares/ST/STM32_USB_Host_Library/Core/Src/usbh_ctlreq.c ****   * distributed under the License is distributed on an "AS IS" BASIS, 
  19:Middlewares/ST/STM32_USB_Host_Library/Core/Src/usbh_ctlreq.c ****   * WITHOUT WARRANTIES OR CONDITIONS OF ANY KIND, either express or implied.
  20:Middlewares/ST/STM32_USB_Host_Library/Core/Src/usbh_ctlreq.c ****   * See the License for the specific language governing permissions and
  21:Middlewares/ST/STM32_USB_Host_Library/Core/Src/usbh_ctlreq.c ****   * limitations under the License.
  22:Middlewares/ST/STM32_USB_Host_Library/Core/Src/usbh_ctlreq.c ****   *
  23:Middlewares/ST/STM32_USB_Host_Library/Core/Src/usbh_ctlreq.c ****   ******************************************************************************
  24:Middlewares/ST/STM32_USB_Host_Library/Core/Src/usbh_ctlreq.c ****   */ 
  25:Middlewares/ST/STM32_USB_Host_Library/Core/Src/usbh_ctlreq.c **** /* Includes ------------------------------------------------------------------*/
  26:Middlewares/ST/STM32_USB_Host_Library/Core/Src/usbh_ctlreq.c **** 
  27:Middlewares/ST/STM32_USB_Host_Library/Core/Src/usbh_ctlreq.c **** #include "usbh_ctlreq.h"
  28:Middlewares/ST/STM32_USB_Host_Library/Core/Src/usbh_ctlreq.c **** 
  29:Middlewares/ST/STM32_USB_Host_Library/Core/Src/usbh_ctlreq.c **** /** @addtogroup USBH_LIB
  30:Middlewares/ST/STM32_USB_Host_Library/Core/Src/usbh_ctlreq.c **** * @{
  31:Middlewares/ST/STM32_USB_Host_Library/Core/Src/usbh_ctlreq.c **** */
  32:Middlewares/ST/STM32_USB_Host_Library/Core/Src/usbh_ctlreq.c **** 
ARM GAS  /tmp/cc5NuF1o.s 			page 2


  33:Middlewares/ST/STM32_USB_Host_Library/Core/Src/usbh_ctlreq.c **** /** @addtogroup USBH_LIB_CORE
  34:Middlewares/ST/STM32_USB_Host_Library/Core/Src/usbh_ctlreq.c **** * @{
  35:Middlewares/ST/STM32_USB_Host_Library/Core/Src/usbh_ctlreq.c **** */
  36:Middlewares/ST/STM32_USB_Host_Library/Core/Src/usbh_ctlreq.c **** 
  37:Middlewares/ST/STM32_USB_Host_Library/Core/Src/usbh_ctlreq.c **** /** @defgroup USBH_CTLREQ 
  38:Middlewares/ST/STM32_USB_Host_Library/Core/Src/usbh_ctlreq.c **** * @brief This file implements the standard requests for device enumeration
  39:Middlewares/ST/STM32_USB_Host_Library/Core/Src/usbh_ctlreq.c **** * @{
  40:Middlewares/ST/STM32_USB_Host_Library/Core/Src/usbh_ctlreq.c **** */
  41:Middlewares/ST/STM32_USB_Host_Library/Core/Src/usbh_ctlreq.c **** 
  42:Middlewares/ST/STM32_USB_Host_Library/Core/Src/usbh_ctlreq.c **** 
  43:Middlewares/ST/STM32_USB_Host_Library/Core/Src/usbh_ctlreq.c **** /** @defgroup USBH_CTLREQ_Private_Defines
  44:Middlewares/ST/STM32_USB_Host_Library/Core/Src/usbh_ctlreq.c **** * @{
  45:Middlewares/ST/STM32_USB_Host_Library/Core/Src/usbh_ctlreq.c **** */ 
  46:Middlewares/ST/STM32_USB_Host_Library/Core/Src/usbh_ctlreq.c **** /**
  47:Middlewares/ST/STM32_USB_Host_Library/Core/Src/usbh_ctlreq.c **** * @}
  48:Middlewares/ST/STM32_USB_Host_Library/Core/Src/usbh_ctlreq.c **** */ 
  49:Middlewares/ST/STM32_USB_Host_Library/Core/Src/usbh_ctlreq.c **** 
  50:Middlewares/ST/STM32_USB_Host_Library/Core/Src/usbh_ctlreq.c **** 
  51:Middlewares/ST/STM32_USB_Host_Library/Core/Src/usbh_ctlreq.c **** /** @defgroup USBH_CTLREQ_Private_TypesDefinitions
  52:Middlewares/ST/STM32_USB_Host_Library/Core/Src/usbh_ctlreq.c **** * @{
  53:Middlewares/ST/STM32_USB_Host_Library/Core/Src/usbh_ctlreq.c **** */ 
  54:Middlewares/ST/STM32_USB_Host_Library/Core/Src/usbh_ctlreq.c **** /**
  55:Middlewares/ST/STM32_USB_Host_Library/Core/Src/usbh_ctlreq.c **** * @}
  56:Middlewares/ST/STM32_USB_Host_Library/Core/Src/usbh_ctlreq.c **** */ 
  57:Middlewares/ST/STM32_USB_Host_Library/Core/Src/usbh_ctlreq.c **** 
  58:Middlewares/ST/STM32_USB_Host_Library/Core/Src/usbh_ctlreq.c **** 
  59:Middlewares/ST/STM32_USB_Host_Library/Core/Src/usbh_ctlreq.c **** 
  60:Middlewares/ST/STM32_USB_Host_Library/Core/Src/usbh_ctlreq.c **** /** @defgroup USBH_CTLREQ_Private_Macros
  61:Middlewares/ST/STM32_USB_Host_Library/Core/Src/usbh_ctlreq.c **** * @{
  62:Middlewares/ST/STM32_USB_Host_Library/Core/Src/usbh_ctlreq.c **** */ 
  63:Middlewares/ST/STM32_USB_Host_Library/Core/Src/usbh_ctlreq.c **** /**
  64:Middlewares/ST/STM32_USB_Host_Library/Core/Src/usbh_ctlreq.c **** * @}
  65:Middlewares/ST/STM32_USB_Host_Library/Core/Src/usbh_ctlreq.c **** */ 
  66:Middlewares/ST/STM32_USB_Host_Library/Core/Src/usbh_ctlreq.c **** 
  67:Middlewares/ST/STM32_USB_Host_Library/Core/Src/usbh_ctlreq.c **** 
  68:Middlewares/ST/STM32_USB_Host_Library/Core/Src/usbh_ctlreq.c **** /** @defgroup USBH_CTLREQ_Private_Variables
  69:Middlewares/ST/STM32_USB_Host_Library/Core/Src/usbh_ctlreq.c **** * @{
  70:Middlewares/ST/STM32_USB_Host_Library/Core/Src/usbh_ctlreq.c **** */
  71:Middlewares/ST/STM32_USB_Host_Library/Core/Src/usbh_ctlreq.c **** /**
  72:Middlewares/ST/STM32_USB_Host_Library/Core/Src/usbh_ctlreq.c **** * @}
  73:Middlewares/ST/STM32_USB_Host_Library/Core/Src/usbh_ctlreq.c **** */ 
  74:Middlewares/ST/STM32_USB_Host_Library/Core/Src/usbh_ctlreq.c **** 
  75:Middlewares/ST/STM32_USB_Host_Library/Core/Src/usbh_ctlreq.c **** /** @defgroup USBH_CTLREQ_Private_FunctionPrototypes
  76:Middlewares/ST/STM32_USB_Host_Library/Core/Src/usbh_ctlreq.c **** * @{
  77:Middlewares/ST/STM32_USB_Host_Library/Core/Src/usbh_ctlreq.c **** */
  78:Middlewares/ST/STM32_USB_Host_Library/Core/Src/usbh_ctlreq.c **** static USBH_StatusTypeDef USBH_HandleControl (USBH_HandleTypeDef *phost);
  79:Middlewares/ST/STM32_USB_Host_Library/Core/Src/usbh_ctlreq.c **** 
  80:Middlewares/ST/STM32_USB_Host_Library/Core/Src/usbh_ctlreq.c **** static void USBH_ParseDevDesc (USBH_DevDescTypeDef* , uint8_t *buf, uint16_t length);
  81:Middlewares/ST/STM32_USB_Host_Library/Core/Src/usbh_ctlreq.c **** 
  82:Middlewares/ST/STM32_USB_Host_Library/Core/Src/usbh_ctlreq.c **** static void USBH_ParseCfgDesc (USBH_CfgDescTypeDef* cfg_desc,
  83:Middlewares/ST/STM32_USB_Host_Library/Core/Src/usbh_ctlreq.c ****                                uint8_t *buf, 
  84:Middlewares/ST/STM32_USB_Host_Library/Core/Src/usbh_ctlreq.c ****                                uint16_t length);
  85:Middlewares/ST/STM32_USB_Host_Library/Core/Src/usbh_ctlreq.c **** 
  86:Middlewares/ST/STM32_USB_Host_Library/Core/Src/usbh_ctlreq.c **** 
  87:Middlewares/ST/STM32_USB_Host_Library/Core/Src/usbh_ctlreq.c **** static void USBH_ParseEPDesc (USBH_EpDescTypeDef  *ep_descriptor, uint8_t *buf);
  88:Middlewares/ST/STM32_USB_Host_Library/Core/Src/usbh_ctlreq.c **** static void USBH_ParseStringDesc (uint8_t* psrc, uint8_t* pdest, uint16_t length);
  89:Middlewares/ST/STM32_USB_Host_Library/Core/Src/usbh_ctlreq.c **** static void USBH_ParseInterfaceDesc (USBH_InterfaceDescTypeDef  *if_descriptor, uint8_t *buf);
ARM GAS  /tmp/cc5NuF1o.s 			page 3


  90:Middlewares/ST/STM32_USB_Host_Library/Core/Src/usbh_ctlreq.c **** 
  91:Middlewares/ST/STM32_USB_Host_Library/Core/Src/usbh_ctlreq.c **** 
  92:Middlewares/ST/STM32_USB_Host_Library/Core/Src/usbh_ctlreq.c **** /**
  93:Middlewares/ST/STM32_USB_Host_Library/Core/Src/usbh_ctlreq.c **** * @}
  94:Middlewares/ST/STM32_USB_Host_Library/Core/Src/usbh_ctlreq.c **** */ 
  95:Middlewares/ST/STM32_USB_Host_Library/Core/Src/usbh_ctlreq.c **** 
  96:Middlewares/ST/STM32_USB_Host_Library/Core/Src/usbh_ctlreq.c **** 
  97:Middlewares/ST/STM32_USB_Host_Library/Core/Src/usbh_ctlreq.c **** /** @defgroup USBH_CTLREQ_Private_Functions
  98:Middlewares/ST/STM32_USB_Host_Library/Core/Src/usbh_ctlreq.c **** * @{
  99:Middlewares/ST/STM32_USB_Host_Library/Core/Src/usbh_ctlreq.c **** */ 
 100:Middlewares/ST/STM32_USB_Host_Library/Core/Src/usbh_ctlreq.c **** 
 101:Middlewares/ST/STM32_USB_Host_Library/Core/Src/usbh_ctlreq.c **** 
 102:Middlewares/ST/STM32_USB_Host_Library/Core/Src/usbh_ctlreq.c **** /**
 103:Middlewares/ST/STM32_USB_Host_Library/Core/Src/usbh_ctlreq.c ****   * @brief  USBH_Get_DevDesc
 104:Middlewares/ST/STM32_USB_Host_Library/Core/Src/usbh_ctlreq.c ****   *         Issue Get Device Descriptor command to the device. Once the response 
 105:Middlewares/ST/STM32_USB_Host_Library/Core/Src/usbh_ctlreq.c ****   *         received, it parses the device descriptor and updates the status.
 106:Middlewares/ST/STM32_USB_Host_Library/Core/Src/usbh_ctlreq.c ****   * @param  phost: Host Handle
 107:Middlewares/ST/STM32_USB_Host_Library/Core/Src/usbh_ctlreq.c ****   * @param  length: Length of the descriptor
 108:Middlewares/ST/STM32_USB_Host_Library/Core/Src/usbh_ctlreq.c ****   * @retval USBH Status
 109:Middlewares/ST/STM32_USB_Host_Library/Core/Src/usbh_ctlreq.c ****   */
 110:Middlewares/ST/STM32_USB_Host_Library/Core/Src/usbh_ctlreq.c **** USBH_StatusTypeDef USBH_Get_DevDesc(USBH_HandleTypeDef *phost, uint8_t length)
 111:Middlewares/ST/STM32_USB_Host_Library/Core/Src/usbh_ctlreq.c **** {
 112:Middlewares/ST/STM32_USB_Host_Library/Core/Src/usbh_ctlreq.c ****   USBH_StatusTypeDef status;
 113:Middlewares/ST/STM32_USB_Host_Library/Core/Src/usbh_ctlreq.c ****   
 114:Middlewares/ST/STM32_USB_Host_Library/Core/Src/usbh_ctlreq.c ****   if((status = USBH_GetDescriptor(phost,
 115:Middlewares/ST/STM32_USB_Host_Library/Core/Src/usbh_ctlreq.c ****                                   USB_REQ_RECIPIENT_DEVICE | USB_REQ_TYPE_STANDARD,                
 116:Middlewares/ST/STM32_USB_Host_Library/Core/Src/usbh_ctlreq.c ****                                   USB_DESC_DEVICE, 
 117:Middlewares/ST/STM32_USB_Host_Library/Core/Src/usbh_ctlreq.c ****                                   phost->device.Data,
 118:Middlewares/ST/STM32_USB_Host_Library/Core/Src/usbh_ctlreq.c ****                                   length)) == USBH_OK)
 119:Middlewares/ST/STM32_USB_Host_Library/Core/Src/usbh_ctlreq.c ****   {
 120:Middlewares/ST/STM32_USB_Host_Library/Core/Src/usbh_ctlreq.c ****     /* Commands successfully sent and Response Received */       
 121:Middlewares/ST/STM32_USB_Host_Library/Core/Src/usbh_ctlreq.c ****     USBH_ParseDevDesc(&phost->device.DevDesc, phost->device.Data, length);
 122:Middlewares/ST/STM32_USB_Host_Library/Core/Src/usbh_ctlreq.c ****   }
 123:Middlewares/ST/STM32_USB_Host_Library/Core/Src/usbh_ctlreq.c ****   return status;      
 124:Middlewares/ST/STM32_USB_Host_Library/Core/Src/usbh_ctlreq.c **** }
 125:Middlewares/ST/STM32_USB_Host_Library/Core/Src/usbh_ctlreq.c **** 
 126:Middlewares/ST/STM32_USB_Host_Library/Core/Src/usbh_ctlreq.c **** /**
 127:Middlewares/ST/STM32_USB_Host_Library/Core/Src/usbh_ctlreq.c ****   * @brief  USBH_Get_CfgDesc
 128:Middlewares/ST/STM32_USB_Host_Library/Core/Src/usbh_ctlreq.c ****   *         Issues Configuration Descriptor to the device. Once the response 
 129:Middlewares/ST/STM32_USB_Host_Library/Core/Src/usbh_ctlreq.c ****   *         received, it parses the configuration descriptor and updates the 
 130:Middlewares/ST/STM32_USB_Host_Library/Core/Src/usbh_ctlreq.c ****   *         status.
 131:Middlewares/ST/STM32_USB_Host_Library/Core/Src/usbh_ctlreq.c ****   * @param  phost: Host Handle
 132:Middlewares/ST/STM32_USB_Host_Library/Core/Src/usbh_ctlreq.c ****   * @param  length: Length of the descriptor
 133:Middlewares/ST/STM32_USB_Host_Library/Core/Src/usbh_ctlreq.c ****   * @retval USBH Status
 134:Middlewares/ST/STM32_USB_Host_Library/Core/Src/usbh_ctlreq.c ****   */
 135:Middlewares/ST/STM32_USB_Host_Library/Core/Src/usbh_ctlreq.c **** USBH_StatusTypeDef USBH_Get_CfgDesc(USBH_HandleTypeDef *phost,                      
 136:Middlewares/ST/STM32_USB_Host_Library/Core/Src/usbh_ctlreq.c ****                              uint16_t length)
 137:Middlewares/ST/STM32_USB_Host_Library/Core/Src/usbh_ctlreq.c **** 
 138:Middlewares/ST/STM32_USB_Host_Library/Core/Src/usbh_ctlreq.c **** {
 139:Middlewares/ST/STM32_USB_Host_Library/Core/Src/usbh_ctlreq.c ****   USBH_StatusTypeDef status;
 140:Middlewares/ST/STM32_USB_Host_Library/Core/Src/usbh_ctlreq.c ****   uint8_t *pData;
 141:Middlewares/ST/STM32_USB_Host_Library/Core/Src/usbh_ctlreq.c **** #if (USBH_KEEP_CFG_DESCRIPTOR == 1)  
 142:Middlewares/ST/STM32_USB_Host_Library/Core/Src/usbh_ctlreq.c ****   pData = phost->device.CfgDesc_Raw;
 143:Middlewares/ST/STM32_USB_Host_Library/Core/Src/usbh_ctlreq.c **** #else
 144:Middlewares/ST/STM32_USB_Host_Library/Core/Src/usbh_ctlreq.c ****   pData = phost->device.Data;
 145:Middlewares/ST/STM32_USB_Host_Library/Core/Src/usbh_ctlreq.c **** #endif  
 146:Middlewares/ST/STM32_USB_Host_Library/Core/Src/usbh_ctlreq.c ****   if((status = USBH_GetDescriptor(phost,
ARM GAS  /tmp/cc5NuF1o.s 			page 4


 147:Middlewares/ST/STM32_USB_Host_Library/Core/Src/usbh_ctlreq.c ****                                   USB_REQ_RECIPIENT_DEVICE | USB_REQ_TYPE_STANDARD,                
 148:Middlewares/ST/STM32_USB_Host_Library/Core/Src/usbh_ctlreq.c ****                                   USB_DESC_CONFIGURATION, 
 149:Middlewares/ST/STM32_USB_Host_Library/Core/Src/usbh_ctlreq.c ****                                   pData,
 150:Middlewares/ST/STM32_USB_Host_Library/Core/Src/usbh_ctlreq.c ****                                   length)) == USBH_OK)
 151:Middlewares/ST/STM32_USB_Host_Library/Core/Src/usbh_ctlreq.c ****   {
 152:Middlewares/ST/STM32_USB_Host_Library/Core/Src/usbh_ctlreq.c ****     
 153:Middlewares/ST/STM32_USB_Host_Library/Core/Src/usbh_ctlreq.c ****     /* Commands successfully sent and Response Received  */       
 154:Middlewares/ST/STM32_USB_Host_Library/Core/Src/usbh_ctlreq.c ****     USBH_ParseCfgDesc (&phost->device.CfgDesc,
 155:Middlewares/ST/STM32_USB_Host_Library/Core/Src/usbh_ctlreq.c ****                        pData,
 156:Middlewares/ST/STM32_USB_Host_Library/Core/Src/usbh_ctlreq.c ****                        length); 
 157:Middlewares/ST/STM32_USB_Host_Library/Core/Src/usbh_ctlreq.c ****     
 158:Middlewares/ST/STM32_USB_Host_Library/Core/Src/usbh_ctlreq.c ****   }
 159:Middlewares/ST/STM32_USB_Host_Library/Core/Src/usbh_ctlreq.c ****   return status;
 160:Middlewares/ST/STM32_USB_Host_Library/Core/Src/usbh_ctlreq.c **** }
 161:Middlewares/ST/STM32_USB_Host_Library/Core/Src/usbh_ctlreq.c **** 
 162:Middlewares/ST/STM32_USB_Host_Library/Core/Src/usbh_ctlreq.c **** 
 163:Middlewares/ST/STM32_USB_Host_Library/Core/Src/usbh_ctlreq.c **** /**
 164:Middlewares/ST/STM32_USB_Host_Library/Core/Src/usbh_ctlreq.c ****   * @brief  USBH_Get_StringDesc
 165:Middlewares/ST/STM32_USB_Host_Library/Core/Src/usbh_ctlreq.c ****   *         Issues string Descriptor command to the device. Once the response 
 166:Middlewares/ST/STM32_USB_Host_Library/Core/Src/usbh_ctlreq.c ****   *         received, it parses the string descriptor and updates the status.
 167:Middlewares/ST/STM32_USB_Host_Library/Core/Src/usbh_ctlreq.c ****   * @param  phost: Host Handle
 168:Middlewares/ST/STM32_USB_Host_Library/Core/Src/usbh_ctlreq.c ****   * @param  string_index: String index for the descriptor
 169:Middlewares/ST/STM32_USB_Host_Library/Core/Src/usbh_ctlreq.c ****   * @param  buff: Buffer address for the descriptor
 170:Middlewares/ST/STM32_USB_Host_Library/Core/Src/usbh_ctlreq.c ****   * @param  length: Length of the descriptor
 171:Middlewares/ST/STM32_USB_Host_Library/Core/Src/usbh_ctlreq.c ****   * @retval USBH Status
 172:Middlewares/ST/STM32_USB_Host_Library/Core/Src/usbh_ctlreq.c ****   */
 173:Middlewares/ST/STM32_USB_Host_Library/Core/Src/usbh_ctlreq.c **** USBH_StatusTypeDef USBH_Get_StringDesc(USBH_HandleTypeDef *phost,
 174:Middlewares/ST/STM32_USB_Host_Library/Core/Src/usbh_ctlreq.c ****                                 uint8_t string_index, 
 175:Middlewares/ST/STM32_USB_Host_Library/Core/Src/usbh_ctlreq.c ****                                 uint8_t *buff, 
 176:Middlewares/ST/STM32_USB_Host_Library/Core/Src/usbh_ctlreq.c ****                                 uint16_t length)
 177:Middlewares/ST/STM32_USB_Host_Library/Core/Src/usbh_ctlreq.c **** {
 178:Middlewares/ST/STM32_USB_Host_Library/Core/Src/usbh_ctlreq.c ****   USBH_StatusTypeDef status;
 179:Middlewares/ST/STM32_USB_Host_Library/Core/Src/usbh_ctlreq.c ****   if((status = USBH_GetDescriptor(phost,
 180:Middlewares/ST/STM32_USB_Host_Library/Core/Src/usbh_ctlreq.c ****                                   USB_REQ_RECIPIENT_DEVICE | USB_REQ_TYPE_STANDARD,                
 181:Middlewares/ST/STM32_USB_Host_Library/Core/Src/usbh_ctlreq.c ****                                   USB_DESC_STRING | string_index, 
 182:Middlewares/ST/STM32_USB_Host_Library/Core/Src/usbh_ctlreq.c ****                                   phost->device.Data,
 183:Middlewares/ST/STM32_USB_Host_Library/Core/Src/usbh_ctlreq.c ****                                   length)) == USBH_OK)
 184:Middlewares/ST/STM32_USB_Host_Library/Core/Src/usbh_ctlreq.c ****   {
 185:Middlewares/ST/STM32_USB_Host_Library/Core/Src/usbh_ctlreq.c ****     /* Commands successfully sent and Response Received  */       
 186:Middlewares/ST/STM32_USB_Host_Library/Core/Src/usbh_ctlreq.c ****     USBH_ParseStringDesc(phost->device.Data,buff, length);    
 187:Middlewares/ST/STM32_USB_Host_Library/Core/Src/usbh_ctlreq.c ****   }
 188:Middlewares/ST/STM32_USB_Host_Library/Core/Src/usbh_ctlreq.c ****   return status;
 189:Middlewares/ST/STM32_USB_Host_Library/Core/Src/usbh_ctlreq.c **** }
 190:Middlewares/ST/STM32_USB_Host_Library/Core/Src/usbh_ctlreq.c **** 
 191:Middlewares/ST/STM32_USB_Host_Library/Core/Src/usbh_ctlreq.c **** /**
 192:Middlewares/ST/STM32_USB_Host_Library/Core/Src/usbh_ctlreq.c ****   * @brief  USBH_GetDescriptor
 193:Middlewares/ST/STM32_USB_Host_Library/Core/Src/usbh_ctlreq.c ****   *         Issues Descriptor command to the device. Once the response received,
 194:Middlewares/ST/STM32_USB_Host_Library/Core/Src/usbh_ctlreq.c ****   *         it parses the descriptor and updates the status.
 195:Middlewares/ST/STM32_USB_Host_Library/Core/Src/usbh_ctlreq.c ****   * @param  phost: Host Handle
 196:Middlewares/ST/STM32_USB_Host_Library/Core/Src/usbh_ctlreq.c ****   * @param  req_type: Descriptor type
 197:Middlewares/ST/STM32_USB_Host_Library/Core/Src/usbh_ctlreq.c ****   * @param  value_idx: Value for the GetDescriptr request
 198:Middlewares/ST/STM32_USB_Host_Library/Core/Src/usbh_ctlreq.c ****   * @param  buff: Buffer to store the descriptor
 199:Middlewares/ST/STM32_USB_Host_Library/Core/Src/usbh_ctlreq.c ****   * @param  length: Length of the descriptor
 200:Middlewares/ST/STM32_USB_Host_Library/Core/Src/usbh_ctlreq.c ****   * @retval USBH Status
 201:Middlewares/ST/STM32_USB_Host_Library/Core/Src/usbh_ctlreq.c ****   */
 202:Middlewares/ST/STM32_USB_Host_Library/Core/Src/usbh_ctlreq.c **** USBH_StatusTypeDef USBH_GetDescriptor(USBH_HandleTypeDef *phost,                          
 203:Middlewares/ST/STM32_USB_Host_Library/Core/Src/usbh_ctlreq.c ****                                uint8_t  req_type,
ARM GAS  /tmp/cc5NuF1o.s 			page 5


 204:Middlewares/ST/STM32_USB_Host_Library/Core/Src/usbh_ctlreq.c ****                                uint16_t value_idx, 
 205:Middlewares/ST/STM32_USB_Host_Library/Core/Src/usbh_ctlreq.c ****                                uint8_t* buff, 
 206:Middlewares/ST/STM32_USB_Host_Library/Core/Src/usbh_ctlreq.c ****                                uint16_t length )
 207:Middlewares/ST/STM32_USB_Host_Library/Core/Src/usbh_ctlreq.c **** { 
 208:Middlewares/ST/STM32_USB_Host_Library/Core/Src/usbh_ctlreq.c ****   if(phost->RequestState == CMD_SEND)
 209:Middlewares/ST/STM32_USB_Host_Library/Core/Src/usbh_ctlreq.c ****   {
 210:Middlewares/ST/STM32_USB_Host_Library/Core/Src/usbh_ctlreq.c ****     phost->Control.setup.b.bmRequestType = USB_D2H | req_type;
 211:Middlewares/ST/STM32_USB_Host_Library/Core/Src/usbh_ctlreq.c ****     phost->Control.setup.b.bRequest = USB_REQ_GET_DESCRIPTOR;
 212:Middlewares/ST/STM32_USB_Host_Library/Core/Src/usbh_ctlreq.c ****     phost->Control.setup.b.wValue.w = value_idx;
 213:Middlewares/ST/STM32_USB_Host_Library/Core/Src/usbh_ctlreq.c ****     
 214:Middlewares/ST/STM32_USB_Host_Library/Core/Src/usbh_ctlreq.c ****     if ((value_idx & 0xff00) == USB_DESC_STRING)
 215:Middlewares/ST/STM32_USB_Host_Library/Core/Src/usbh_ctlreq.c ****     {
 216:Middlewares/ST/STM32_USB_Host_Library/Core/Src/usbh_ctlreq.c ****       phost->Control.setup.b.wIndex.w = 0x0409;
 217:Middlewares/ST/STM32_USB_Host_Library/Core/Src/usbh_ctlreq.c ****     }
 218:Middlewares/ST/STM32_USB_Host_Library/Core/Src/usbh_ctlreq.c ****     else
 219:Middlewares/ST/STM32_USB_Host_Library/Core/Src/usbh_ctlreq.c ****     {
 220:Middlewares/ST/STM32_USB_Host_Library/Core/Src/usbh_ctlreq.c ****       phost->Control.setup.b.wIndex.w = 0;
 221:Middlewares/ST/STM32_USB_Host_Library/Core/Src/usbh_ctlreq.c ****     }
 222:Middlewares/ST/STM32_USB_Host_Library/Core/Src/usbh_ctlreq.c ****     phost->Control.setup.b.wLength.w = length; 
 223:Middlewares/ST/STM32_USB_Host_Library/Core/Src/usbh_ctlreq.c ****   }
 224:Middlewares/ST/STM32_USB_Host_Library/Core/Src/usbh_ctlreq.c ****   return USBH_CtlReq(phost, buff , length );     
 225:Middlewares/ST/STM32_USB_Host_Library/Core/Src/usbh_ctlreq.c **** }
 226:Middlewares/ST/STM32_USB_Host_Library/Core/Src/usbh_ctlreq.c **** 
 227:Middlewares/ST/STM32_USB_Host_Library/Core/Src/usbh_ctlreq.c **** /**
 228:Middlewares/ST/STM32_USB_Host_Library/Core/Src/usbh_ctlreq.c ****   * @brief  USBH_SetAddress
 229:Middlewares/ST/STM32_USB_Host_Library/Core/Src/usbh_ctlreq.c ****   *         This command sets the address to the connected device
 230:Middlewares/ST/STM32_USB_Host_Library/Core/Src/usbh_ctlreq.c ****   * @param  phost: Host Handle
 231:Middlewares/ST/STM32_USB_Host_Library/Core/Src/usbh_ctlreq.c ****   * @param  DeviceAddress: Device address to assign
 232:Middlewares/ST/STM32_USB_Host_Library/Core/Src/usbh_ctlreq.c ****   * @retval USBH Status
 233:Middlewares/ST/STM32_USB_Host_Library/Core/Src/usbh_ctlreq.c ****   */
 234:Middlewares/ST/STM32_USB_Host_Library/Core/Src/usbh_ctlreq.c **** USBH_StatusTypeDef USBH_SetAddress(USBH_HandleTypeDef *phost, 
 235:Middlewares/ST/STM32_USB_Host_Library/Core/Src/usbh_ctlreq.c ****                                    uint8_t DeviceAddress)
 236:Middlewares/ST/STM32_USB_Host_Library/Core/Src/usbh_ctlreq.c **** {
 237:Middlewares/ST/STM32_USB_Host_Library/Core/Src/usbh_ctlreq.c ****   if(phost->RequestState == CMD_SEND)
 238:Middlewares/ST/STM32_USB_Host_Library/Core/Src/usbh_ctlreq.c ****   {
 239:Middlewares/ST/STM32_USB_Host_Library/Core/Src/usbh_ctlreq.c ****     phost->Control.setup.b.bmRequestType = USB_H2D | USB_REQ_RECIPIENT_DEVICE | \
 240:Middlewares/ST/STM32_USB_Host_Library/Core/Src/usbh_ctlreq.c ****       USB_REQ_TYPE_STANDARD;
 241:Middlewares/ST/STM32_USB_Host_Library/Core/Src/usbh_ctlreq.c ****     
 242:Middlewares/ST/STM32_USB_Host_Library/Core/Src/usbh_ctlreq.c ****     phost->Control.setup.b.bRequest = USB_REQ_SET_ADDRESS;
 243:Middlewares/ST/STM32_USB_Host_Library/Core/Src/usbh_ctlreq.c ****     
 244:Middlewares/ST/STM32_USB_Host_Library/Core/Src/usbh_ctlreq.c ****     phost->Control.setup.b.wValue.w = (uint16_t)DeviceAddress;
 245:Middlewares/ST/STM32_USB_Host_Library/Core/Src/usbh_ctlreq.c ****     phost->Control.setup.b.wIndex.w = 0;
 246:Middlewares/ST/STM32_USB_Host_Library/Core/Src/usbh_ctlreq.c ****     phost->Control.setup.b.wLength.w = 0;
 247:Middlewares/ST/STM32_USB_Host_Library/Core/Src/usbh_ctlreq.c ****   }
 248:Middlewares/ST/STM32_USB_Host_Library/Core/Src/usbh_ctlreq.c ****   return USBH_CtlReq(phost, 0 , 0 );
 249:Middlewares/ST/STM32_USB_Host_Library/Core/Src/usbh_ctlreq.c **** }
 250:Middlewares/ST/STM32_USB_Host_Library/Core/Src/usbh_ctlreq.c **** 
 251:Middlewares/ST/STM32_USB_Host_Library/Core/Src/usbh_ctlreq.c **** /**
 252:Middlewares/ST/STM32_USB_Host_Library/Core/Src/usbh_ctlreq.c ****   * @brief  USBH_SetCfg
 253:Middlewares/ST/STM32_USB_Host_Library/Core/Src/usbh_ctlreq.c ****   *         The command sets the configuration value to the connected device
 254:Middlewares/ST/STM32_USB_Host_Library/Core/Src/usbh_ctlreq.c ****   * @param  phost: Host Handle
 255:Middlewares/ST/STM32_USB_Host_Library/Core/Src/usbh_ctlreq.c ****   * @param  cfg_idx: Configuration value
 256:Middlewares/ST/STM32_USB_Host_Library/Core/Src/usbh_ctlreq.c ****   * @retval USBH Status
 257:Middlewares/ST/STM32_USB_Host_Library/Core/Src/usbh_ctlreq.c ****   */
 258:Middlewares/ST/STM32_USB_Host_Library/Core/Src/usbh_ctlreq.c **** USBH_StatusTypeDef USBH_SetCfg(USBH_HandleTypeDef *phost, 
 259:Middlewares/ST/STM32_USB_Host_Library/Core/Src/usbh_ctlreq.c ****                                uint16_t cfg_idx)
 260:Middlewares/ST/STM32_USB_Host_Library/Core/Src/usbh_ctlreq.c **** {
ARM GAS  /tmp/cc5NuF1o.s 			page 6


 261:Middlewares/ST/STM32_USB_Host_Library/Core/Src/usbh_ctlreq.c ****   if(phost->RequestState == CMD_SEND)
 262:Middlewares/ST/STM32_USB_Host_Library/Core/Src/usbh_ctlreq.c ****   {
 263:Middlewares/ST/STM32_USB_Host_Library/Core/Src/usbh_ctlreq.c ****     phost->Control.setup.b.bmRequestType = USB_H2D | USB_REQ_RECIPIENT_DEVICE |\
 264:Middlewares/ST/STM32_USB_Host_Library/Core/Src/usbh_ctlreq.c ****       USB_REQ_TYPE_STANDARD;
 265:Middlewares/ST/STM32_USB_Host_Library/Core/Src/usbh_ctlreq.c ****     phost->Control.setup.b.bRequest = USB_REQ_SET_CONFIGURATION;
 266:Middlewares/ST/STM32_USB_Host_Library/Core/Src/usbh_ctlreq.c ****     phost->Control.setup.b.wValue.w = cfg_idx;
 267:Middlewares/ST/STM32_USB_Host_Library/Core/Src/usbh_ctlreq.c ****     phost->Control.setup.b.wIndex.w = 0;
 268:Middlewares/ST/STM32_USB_Host_Library/Core/Src/usbh_ctlreq.c ****     phost->Control.setup.b.wLength.w = 0; 
 269:Middlewares/ST/STM32_USB_Host_Library/Core/Src/usbh_ctlreq.c ****   }
 270:Middlewares/ST/STM32_USB_Host_Library/Core/Src/usbh_ctlreq.c ****   
 271:Middlewares/ST/STM32_USB_Host_Library/Core/Src/usbh_ctlreq.c ****   return USBH_CtlReq(phost, 0 , 0 );      
 272:Middlewares/ST/STM32_USB_Host_Library/Core/Src/usbh_ctlreq.c **** }
 273:Middlewares/ST/STM32_USB_Host_Library/Core/Src/usbh_ctlreq.c **** 
 274:Middlewares/ST/STM32_USB_Host_Library/Core/Src/usbh_ctlreq.c **** /**
 275:Middlewares/ST/STM32_USB_Host_Library/Core/Src/usbh_ctlreq.c ****   * @brief  USBH_SetInterface
 276:Middlewares/ST/STM32_USB_Host_Library/Core/Src/usbh_ctlreq.c ****   *         The command sets the Interface value to the connected device
 277:Middlewares/ST/STM32_USB_Host_Library/Core/Src/usbh_ctlreq.c ****   * @param  phost: Host Handle
 278:Middlewares/ST/STM32_USB_Host_Library/Core/Src/usbh_ctlreq.c ****   * @param  altSetting: Interface value
 279:Middlewares/ST/STM32_USB_Host_Library/Core/Src/usbh_ctlreq.c ****   * @retval USBH Status
 280:Middlewares/ST/STM32_USB_Host_Library/Core/Src/usbh_ctlreq.c ****   */
 281:Middlewares/ST/STM32_USB_Host_Library/Core/Src/usbh_ctlreq.c **** USBH_StatusTypeDef USBH_SetInterface(USBH_HandleTypeDef *phost, 
 282:Middlewares/ST/STM32_USB_Host_Library/Core/Src/usbh_ctlreq.c ****                         uint8_t ep_num, uint8_t altSetting)
 283:Middlewares/ST/STM32_USB_Host_Library/Core/Src/usbh_ctlreq.c **** {
 284:Middlewares/ST/STM32_USB_Host_Library/Core/Src/usbh_ctlreq.c ****   
 285:Middlewares/ST/STM32_USB_Host_Library/Core/Src/usbh_ctlreq.c ****   if(phost->RequestState == CMD_SEND)
 286:Middlewares/ST/STM32_USB_Host_Library/Core/Src/usbh_ctlreq.c ****   {
 287:Middlewares/ST/STM32_USB_Host_Library/Core/Src/usbh_ctlreq.c ****     phost->Control.setup.b.bmRequestType = USB_H2D | USB_REQ_RECIPIENT_INTERFACE | \
 288:Middlewares/ST/STM32_USB_Host_Library/Core/Src/usbh_ctlreq.c ****       USB_REQ_TYPE_STANDARD;
 289:Middlewares/ST/STM32_USB_Host_Library/Core/Src/usbh_ctlreq.c ****     
 290:Middlewares/ST/STM32_USB_Host_Library/Core/Src/usbh_ctlreq.c ****     phost->Control.setup.b.bRequest = USB_REQ_SET_INTERFACE;
 291:Middlewares/ST/STM32_USB_Host_Library/Core/Src/usbh_ctlreq.c ****     phost->Control.setup.b.wValue.w = altSetting;
 292:Middlewares/ST/STM32_USB_Host_Library/Core/Src/usbh_ctlreq.c ****     phost->Control.setup.b.wIndex.w = ep_num;
 293:Middlewares/ST/STM32_USB_Host_Library/Core/Src/usbh_ctlreq.c ****     phost->Control.setup.b.wLength.w = 0;           
 294:Middlewares/ST/STM32_USB_Host_Library/Core/Src/usbh_ctlreq.c ****   }
 295:Middlewares/ST/STM32_USB_Host_Library/Core/Src/usbh_ctlreq.c ****   return USBH_CtlReq(phost, 0 , 0 );     
 296:Middlewares/ST/STM32_USB_Host_Library/Core/Src/usbh_ctlreq.c **** }
 297:Middlewares/ST/STM32_USB_Host_Library/Core/Src/usbh_ctlreq.c **** 
 298:Middlewares/ST/STM32_USB_Host_Library/Core/Src/usbh_ctlreq.c **** /**
 299:Middlewares/ST/STM32_USB_Host_Library/Core/Src/usbh_ctlreq.c ****   * @brief  USBH_ClrFeature
 300:Middlewares/ST/STM32_USB_Host_Library/Core/Src/usbh_ctlreq.c ****   *         This request is used to clear or disable a specific feature.
 301:Middlewares/ST/STM32_USB_Host_Library/Core/Src/usbh_ctlreq.c ****   * @param  phost: Host Handle
 302:Middlewares/ST/STM32_USB_Host_Library/Core/Src/usbh_ctlreq.c ****   * @param  ep_num: endpoint number 
 303:Middlewares/ST/STM32_USB_Host_Library/Core/Src/usbh_ctlreq.c ****   * @param  hc_num: Host channel number 
 304:Middlewares/ST/STM32_USB_Host_Library/Core/Src/usbh_ctlreq.c ****   * @retval USBH Status
 305:Middlewares/ST/STM32_USB_Host_Library/Core/Src/usbh_ctlreq.c ****   */
 306:Middlewares/ST/STM32_USB_Host_Library/Core/Src/usbh_ctlreq.c **** USBH_StatusTypeDef USBH_ClrFeature(USBH_HandleTypeDef *phost,
 307:Middlewares/ST/STM32_USB_Host_Library/Core/Src/usbh_ctlreq.c ****                                    uint8_t ep_num) 
 308:Middlewares/ST/STM32_USB_Host_Library/Core/Src/usbh_ctlreq.c **** {
 309:Middlewares/ST/STM32_USB_Host_Library/Core/Src/usbh_ctlreq.c ****   if(phost->RequestState == CMD_SEND)
 310:Middlewares/ST/STM32_USB_Host_Library/Core/Src/usbh_ctlreq.c ****   {
 311:Middlewares/ST/STM32_USB_Host_Library/Core/Src/usbh_ctlreq.c ****     phost->Control.setup.b.bmRequestType = USB_H2D | 
 312:Middlewares/ST/STM32_USB_Host_Library/Core/Src/usbh_ctlreq.c ****       USB_REQ_RECIPIENT_ENDPOINT |
 313:Middlewares/ST/STM32_USB_Host_Library/Core/Src/usbh_ctlreq.c ****         USB_REQ_TYPE_STANDARD;
 314:Middlewares/ST/STM32_USB_Host_Library/Core/Src/usbh_ctlreq.c ****     
 315:Middlewares/ST/STM32_USB_Host_Library/Core/Src/usbh_ctlreq.c ****     phost->Control.setup.b.bRequest = USB_REQ_CLEAR_FEATURE;
 316:Middlewares/ST/STM32_USB_Host_Library/Core/Src/usbh_ctlreq.c ****     phost->Control.setup.b.wValue.w = FEATURE_SELECTOR_ENDPOINT;
 317:Middlewares/ST/STM32_USB_Host_Library/Core/Src/usbh_ctlreq.c ****     phost->Control.setup.b.wIndex.w = ep_num;
ARM GAS  /tmp/cc5NuF1o.s 			page 7


 318:Middlewares/ST/STM32_USB_Host_Library/Core/Src/usbh_ctlreq.c ****     phost->Control.setup.b.wLength.w = 0;           
 319:Middlewares/ST/STM32_USB_Host_Library/Core/Src/usbh_ctlreq.c ****   }
 320:Middlewares/ST/STM32_USB_Host_Library/Core/Src/usbh_ctlreq.c ****   return USBH_CtlReq(phost, 0 , 0 );   
 321:Middlewares/ST/STM32_USB_Host_Library/Core/Src/usbh_ctlreq.c **** }
 322:Middlewares/ST/STM32_USB_Host_Library/Core/Src/usbh_ctlreq.c **** 
 323:Middlewares/ST/STM32_USB_Host_Library/Core/Src/usbh_ctlreq.c **** /**
 324:Middlewares/ST/STM32_USB_Host_Library/Core/Src/usbh_ctlreq.c ****   * @brief  USBH_ParseDevDesc 
 325:Middlewares/ST/STM32_USB_Host_Library/Core/Src/usbh_ctlreq.c ****   *         This function Parses the device descriptor
 326:Middlewares/ST/STM32_USB_Host_Library/Core/Src/usbh_ctlreq.c ****   * @param  dev_desc: device_descriptor destination address 
 327:Middlewares/ST/STM32_USB_Host_Library/Core/Src/usbh_ctlreq.c ****   * @param  buf: Buffer where the source descriptor is available
 328:Middlewares/ST/STM32_USB_Host_Library/Core/Src/usbh_ctlreq.c ****   * @param  length: Length of the descriptor
 329:Middlewares/ST/STM32_USB_Host_Library/Core/Src/usbh_ctlreq.c ****   * @retval None
 330:Middlewares/ST/STM32_USB_Host_Library/Core/Src/usbh_ctlreq.c ****   */
 331:Middlewares/ST/STM32_USB_Host_Library/Core/Src/usbh_ctlreq.c **** static void  USBH_ParseDevDesc (USBH_DevDescTypeDef* dev_desc,
 332:Middlewares/ST/STM32_USB_Host_Library/Core/Src/usbh_ctlreq.c ****                                 uint8_t *buf, 
 333:Middlewares/ST/STM32_USB_Host_Library/Core/Src/usbh_ctlreq.c ****                                 uint16_t length)
 334:Middlewares/ST/STM32_USB_Host_Library/Core/Src/usbh_ctlreq.c **** {
  27              		.loc 1 334 0
  28              		.cfi_startproc
  29              		@ args = 0, pretend = 0, frame = 0
  30              		@ frame_needed = 0, uses_anonymous_args = 0
  31              		@ link register save eliminated.
  32              	.LVL0:
  33 0000 10B4     		push	{r4}
  34              	.LCFI0:
  35              		.cfi_def_cfa_offset 4
  36              		.cfi_offset 4, -4
 335:Middlewares/ST/STM32_USB_Host_Library/Core/Src/usbh_ctlreq.c ****   dev_desc->bLength            = *(uint8_t  *) (buf +  0);
  37              		.loc 1 335 0
  38 0002 0B78     		ldrb	r3, [r1]	@ zero_extendqisi2
  39 0004 0370     		strb	r3, [r0]
 336:Middlewares/ST/STM32_USB_Host_Library/Core/Src/usbh_ctlreq.c ****   dev_desc->bDescriptorType    = *(uint8_t  *) (buf +  1);
  40              		.loc 1 336 0
  41 0006 4B78     		ldrb	r3, [r1, #1]	@ zero_extendqisi2
  42 0008 4370     		strb	r3, [r0, #1]
 337:Middlewares/ST/STM32_USB_Host_Library/Core/Src/usbh_ctlreq.c ****   dev_desc->bcdUSB             = LE16 (buf +  2);
  43              		.loc 1 337 0
  44 000a 8B78     		ldrb	r3, [r1, #2]	@ zero_extendqisi2
  45 000c CC78     		ldrb	r4, [r1, #3]	@ zero_extendqisi2
  46 000e 03EB0423 		add	r3, r3, r4, lsl #8
  47 0012 4380     		strh	r3, [r0, #2]	@ movhi
 338:Middlewares/ST/STM32_USB_Host_Library/Core/Src/usbh_ctlreq.c ****   dev_desc->bDeviceClass       = *(uint8_t  *) (buf +  4);
  48              		.loc 1 338 0
  49 0014 0B79     		ldrb	r3, [r1, #4]	@ zero_extendqisi2
  50 0016 0371     		strb	r3, [r0, #4]
 339:Middlewares/ST/STM32_USB_Host_Library/Core/Src/usbh_ctlreq.c ****   dev_desc->bDeviceSubClass    = *(uint8_t  *) (buf +  5);
  51              		.loc 1 339 0
  52 0018 4B79     		ldrb	r3, [r1, #5]	@ zero_extendqisi2
  53 001a 4371     		strb	r3, [r0, #5]
 340:Middlewares/ST/STM32_USB_Host_Library/Core/Src/usbh_ctlreq.c ****   dev_desc->bDeviceProtocol    = *(uint8_t  *) (buf +  6);
  54              		.loc 1 340 0
  55 001c 8B79     		ldrb	r3, [r1, #6]	@ zero_extendqisi2
  56 001e 8371     		strb	r3, [r0, #6]
 341:Middlewares/ST/STM32_USB_Host_Library/Core/Src/usbh_ctlreq.c ****   dev_desc->bMaxPacketSize     = *(uint8_t  *) (buf +  7);
  57              		.loc 1 341 0
  58 0020 CB79     		ldrb	r3, [r1, #7]	@ zero_extendqisi2
  59 0022 C371     		strb	r3, [r0, #7]
ARM GAS  /tmp/cc5NuF1o.s 			page 8


 342:Middlewares/ST/STM32_USB_Host_Library/Core/Src/usbh_ctlreq.c ****   
 343:Middlewares/ST/STM32_USB_Host_Library/Core/Src/usbh_ctlreq.c ****   if (length > 8)
  60              		.loc 1 343 0
  61 0024 082A     		cmp	r2, #8
  62 0026 16D9     		bls	.L1
 344:Middlewares/ST/STM32_USB_Host_Library/Core/Src/usbh_ctlreq.c ****   { /* For 1st time after device connection, Host may issue only 8 bytes for 
 345:Middlewares/ST/STM32_USB_Host_Library/Core/Src/usbh_ctlreq.c ****     Device Descriptor Length  */
 346:Middlewares/ST/STM32_USB_Host_Library/Core/Src/usbh_ctlreq.c ****     dev_desc->idVendor           = LE16 (buf +  8);
  63              		.loc 1 346 0
  64 0028 0B7A     		ldrb	r3, [r1, #8]	@ zero_extendqisi2
  65 002a 4A7A     		ldrb	r2, [r1, #9]	@ zero_extendqisi2
  66              	.LVL1:
  67 002c 03EB0223 		add	r3, r3, r2, lsl #8
  68 0030 0381     		strh	r3, [r0, #8]	@ movhi
 347:Middlewares/ST/STM32_USB_Host_Library/Core/Src/usbh_ctlreq.c ****     dev_desc->idProduct          = LE16 (buf + 10);
  69              		.loc 1 347 0
  70 0032 8B7A     		ldrb	r3, [r1, #10]	@ zero_extendqisi2
  71 0034 CA7A     		ldrb	r2, [r1, #11]	@ zero_extendqisi2
  72 0036 03EB0223 		add	r3, r3, r2, lsl #8
  73 003a 4381     		strh	r3, [r0, #10]	@ movhi
 348:Middlewares/ST/STM32_USB_Host_Library/Core/Src/usbh_ctlreq.c ****     dev_desc->bcdDevice          = LE16 (buf + 12);
  74              		.loc 1 348 0
  75 003c 0B7B     		ldrb	r3, [r1, #12]	@ zero_extendqisi2
  76 003e 4A7B     		ldrb	r2, [r1, #13]	@ zero_extendqisi2
  77 0040 03EB0223 		add	r3, r3, r2, lsl #8
  78 0044 8381     		strh	r3, [r0, #12]	@ movhi
 349:Middlewares/ST/STM32_USB_Host_Library/Core/Src/usbh_ctlreq.c ****     dev_desc->iManufacturer      = *(uint8_t  *) (buf + 14);
  79              		.loc 1 349 0
  80 0046 8B7B     		ldrb	r3, [r1, #14]	@ zero_extendqisi2
  81 0048 8373     		strb	r3, [r0, #14]
 350:Middlewares/ST/STM32_USB_Host_Library/Core/Src/usbh_ctlreq.c ****     dev_desc->iProduct           = *(uint8_t  *) (buf + 15);
  82              		.loc 1 350 0
  83 004a CB7B     		ldrb	r3, [r1, #15]	@ zero_extendqisi2
  84 004c C373     		strb	r3, [r0, #15]
 351:Middlewares/ST/STM32_USB_Host_Library/Core/Src/usbh_ctlreq.c ****     dev_desc->iSerialNumber      = *(uint8_t  *) (buf + 16);
  85              		.loc 1 351 0
  86 004e 0B7C     		ldrb	r3, [r1, #16]	@ zero_extendqisi2
  87 0050 0374     		strb	r3, [r0, #16]
 352:Middlewares/ST/STM32_USB_Host_Library/Core/Src/usbh_ctlreq.c ****     dev_desc->bNumConfigurations = *(uint8_t  *) (buf + 17);
  88              		.loc 1 352 0
  89 0052 4B7C     		ldrb	r3, [r1, #17]	@ zero_extendqisi2
  90 0054 4374     		strb	r3, [r0, #17]
  91              	.L1:
 353:Middlewares/ST/STM32_USB_Host_Library/Core/Src/usbh_ctlreq.c ****   }
 354:Middlewares/ST/STM32_USB_Host_Library/Core/Src/usbh_ctlreq.c **** }
  92              		.loc 1 354 0
  93 0056 5DF8044B 		ldr	r4, [sp], #4
  94              	.LCFI1:
  95              		.cfi_restore 4
  96              		.cfi_def_cfa_offset 0
  97 005a 7047     		bx	lr
  98              		.cfi_endproc
  99              	.LFE151:
 101              		.section	.text.USBH_ParseInterfaceDesc,"ax",%progbits
 102              		.align	1
 103              		.syntax unified
 104              		.thumb
ARM GAS  /tmp/cc5NuF1o.s 			page 9


 105              		.thumb_func
 106              		.fpu fpv5-sp-d16
 108              	USBH_ParseInterfaceDesc:
 109              	.LFB153:
 355:Middlewares/ST/STM32_USB_Host_Library/Core/Src/usbh_ctlreq.c **** 
 356:Middlewares/ST/STM32_USB_Host_Library/Core/Src/usbh_ctlreq.c **** /**
 357:Middlewares/ST/STM32_USB_Host_Library/Core/Src/usbh_ctlreq.c ****   * @brief  USBH_ParseCfgDesc 
 358:Middlewares/ST/STM32_USB_Host_Library/Core/Src/usbh_ctlreq.c ****   *         This function Parses the configuration descriptor
 359:Middlewares/ST/STM32_USB_Host_Library/Core/Src/usbh_ctlreq.c ****   * @param  cfg_desc: Configuration Descriptor address
 360:Middlewares/ST/STM32_USB_Host_Library/Core/Src/usbh_ctlreq.c ****   * @param  buf: Buffer where the source descriptor is available
 361:Middlewares/ST/STM32_USB_Host_Library/Core/Src/usbh_ctlreq.c ****   * @param  length: Length of the descriptor
 362:Middlewares/ST/STM32_USB_Host_Library/Core/Src/usbh_ctlreq.c ****   * @retval None
 363:Middlewares/ST/STM32_USB_Host_Library/Core/Src/usbh_ctlreq.c ****   */
 364:Middlewares/ST/STM32_USB_Host_Library/Core/Src/usbh_ctlreq.c **** static void USBH_ParseCfgDesc (USBH_CfgDescTypeDef* cfg_desc,
 365:Middlewares/ST/STM32_USB_Host_Library/Core/Src/usbh_ctlreq.c ****                                uint8_t *buf, 
 366:Middlewares/ST/STM32_USB_Host_Library/Core/Src/usbh_ctlreq.c ****                                uint16_t length)
 367:Middlewares/ST/STM32_USB_Host_Library/Core/Src/usbh_ctlreq.c **** {  
 368:Middlewares/ST/STM32_USB_Host_Library/Core/Src/usbh_ctlreq.c ****   USBH_InterfaceDescTypeDef    *pif ;
 369:Middlewares/ST/STM32_USB_Host_Library/Core/Src/usbh_ctlreq.c ****   USBH_EpDescTypeDef           *pep;  
 370:Middlewares/ST/STM32_USB_Host_Library/Core/Src/usbh_ctlreq.c ****   USBH_DescHeader_t             *pdesc = (USBH_DescHeader_t *)buf;
 371:Middlewares/ST/STM32_USB_Host_Library/Core/Src/usbh_ctlreq.c ****   uint16_t                      ptr;
 372:Middlewares/ST/STM32_USB_Host_Library/Core/Src/usbh_ctlreq.c ****   int8_t                        if_ix = 0;
 373:Middlewares/ST/STM32_USB_Host_Library/Core/Src/usbh_ctlreq.c ****   int8_t                        ep_ix = 0;  
 374:Middlewares/ST/STM32_USB_Host_Library/Core/Src/usbh_ctlreq.c ****   
 375:Middlewares/ST/STM32_USB_Host_Library/Core/Src/usbh_ctlreq.c ****   pdesc   = (USBH_DescHeader_t *)buf;
 376:Middlewares/ST/STM32_USB_Host_Library/Core/Src/usbh_ctlreq.c ****   
 377:Middlewares/ST/STM32_USB_Host_Library/Core/Src/usbh_ctlreq.c ****   /* Parse configuration descriptor */
 378:Middlewares/ST/STM32_USB_Host_Library/Core/Src/usbh_ctlreq.c ****   cfg_desc->bLength             = *(uint8_t  *) (buf + 0);
 379:Middlewares/ST/STM32_USB_Host_Library/Core/Src/usbh_ctlreq.c ****   cfg_desc->bDescriptorType     = *(uint8_t  *) (buf + 1);
 380:Middlewares/ST/STM32_USB_Host_Library/Core/Src/usbh_ctlreq.c ****   cfg_desc->wTotalLength        = LE16 (buf + 2);
 381:Middlewares/ST/STM32_USB_Host_Library/Core/Src/usbh_ctlreq.c ****   cfg_desc->bNumInterfaces      = *(uint8_t  *) (buf + 4);
 382:Middlewares/ST/STM32_USB_Host_Library/Core/Src/usbh_ctlreq.c ****   cfg_desc->bConfigurationValue = *(uint8_t  *) (buf + 5);
 383:Middlewares/ST/STM32_USB_Host_Library/Core/Src/usbh_ctlreq.c ****   cfg_desc->iConfiguration      = *(uint8_t  *) (buf + 6);
 384:Middlewares/ST/STM32_USB_Host_Library/Core/Src/usbh_ctlreq.c ****   cfg_desc->bmAttributes        = *(uint8_t  *) (buf + 7);
 385:Middlewares/ST/STM32_USB_Host_Library/Core/Src/usbh_ctlreq.c ****   cfg_desc->bMaxPower           = *(uint8_t  *) (buf + 8);    
 386:Middlewares/ST/STM32_USB_Host_Library/Core/Src/usbh_ctlreq.c ****   
 387:Middlewares/ST/STM32_USB_Host_Library/Core/Src/usbh_ctlreq.c ****   
 388:Middlewares/ST/STM32_USB_Host_Library/Core/Src/usbh_ctlreq.c ****   if (length > USB_CONFIGURATION_DESC_SIZE)
 389:Middlewares/ST/STM32_USB_Host_Library/Core/Src/usbh_ctlreq.c ****   {
 390:Middlewares/ST/STM32_USB_Host_Library/Core/Src/usbh_ctlreq.c ****     ptr = USB_LEN_CFG_DESC;
 391:Middlewares/ST/STM32_USB_Host_Library/Core/Src/usbh_ctlreq.c ****     pif = (USBH_InterfaceDescTypeDef *)0;
 392:Middlewares/ST/STM32_USB_Host_Library/Core/Src/usbh_ctlreq.c ****     
 393:Middlewares/ST/STM32_USB_Host_Library/Core/Src/usbh_ctlreq.c ****     
 394:Middlewares/ST/STM32_USB_Host_Library/Core/Src/usbh_ctlreq.c ****     while ((if_ix < USBH_MAX_NUM_INTERFACES ) && (ptr < cfg_desc->wTotalLength))
 395:Middlewares/ST/STM32_USB_Host_Library/Core/Src/usbh_ctlreq.c ****     {
 396:Middlewares/ST/STM32_USB_Host_Library/Core/Src/usbh_ctlreq.c ****       pdesc = USBH_GetNextDesc((uint8_t *)pdesc, &ptr);
 397:Middlewares/ST/STM32_USB_Host_Library/Core/Src/usbh_ctlreq.c ****       if (pdesc->bDescriptorType   == USB_DESC_TYPE_INTERFACE) 
 398:Middlewares/ST/STM32_USB_Host_Library/Core/Src/usbh_ctlreq.c ****       {
 399:Middlewares/ST/STM32_USB_Host_Library/Core/Src/usbh_ctlreq.c ****         pif = &cfg_desc->Itf_Desc[if_ix];
 400:Middlewares/ST/STM32_USB_Host_Library/Core/Src/usbh_ctlreq.c ****         USBH_ParseInterfaceDesc (pif, (uint8_t *)pdesc);            
 401:Middlewares/ST/STM32_USB_Host_Library/Core/Src/usbh_ctlreq.c ****         
 402:Middlewares/ST/STM32_USB_Host_Library/Core/Src/usbh_ctlreq.c ****         ep_ix = 0;
 403:Middlewares/ST/STM32_USB_Host_Library/Core/Src/usbh_ctlreq.c ****         pep = (USBH_EpDescTypeDef *)0;        
 404:Middlewares/ST/STM32_USB_Host_Library/Core/Src/usbh_ctlreq.c ****         while ((ep_ix < pif->bNumEndpoints) && (ptr < cfg_desc->wTotalLength))
 405:Middlewares/ST/STM32_USB_Host_Library/Core/Src/usbh_ctlreq.c ****         {
 406:Middlewares/ST/STM32_USB_Host_Library/Core/Src/usbh_ctlreq.c ****           pdesc = USBH_GetNextDesc((uint8_t*) pdesc, &ptr);
 407:Middlewares/ST/STM32_USB_Host_Library/Core/Src/usbh_ctlreq.c ****           if (pdesc->bDescriptorType   == USB_DESC_TYPE_ENDPOINT) 
ARM GAS  /tmp/cc5NuF1o.s 			page 10


 408:Middlewares/ST/STM32_USB_Host_Library/Core/Src/usbh_ctlreq.c ****           {  
 409:Middlewares/ST/STM32_USB_Host_Library/Core/Src/usbh_ctlreq.c ****             pep = &cfg_desc->Itf_Desc[if_ix].Ep_Desc[ep_ix];
 410:Middlewares/ST/STM32_USB_Host_Library/Core/Src/usbh_ctlreq.c ****             USBH_ParseEPDesc (pep, (uint8_t *)pdesc);
 411:Middlewares/ST/STM32_USB_Host_Library/Core/Src/usbh_ctlreq.c ****             ep_ix++;
 412:Middlewares/ST/STM32_USB_Host_Library/Core/Src/usbh_ctlreq.c ****           }
 413:Middlewares/ST/STM32_USB_Host_Library/Core/Src/usbh_ctlreq.c ****         }
 414:Middlewares/ST/STM32_USB_Host_Library/Core/Src/usbh_ctlreq.c ****         if_ix++;
 415:Middlewares/ST/STM32_USB_Host_Library/Core/Src/usbh_ctlreq.c ****       }
 416:Middlewares/ST/STM32_USB_Host_Library/Core/Src/usbh_ctlreq.c ****     }
 417:Middlewares/ST/STM32_USB_Host_Library/Core/Src/usbh_ctlreq.c ****   }  
 418:Middlewares/ST/STM32_USB_Host_Library/Core/Src/usbh_ctlreq.c **** }
 419:Middlewares/ST/STM32_USB_Host_Library/Core/Src/usbh_ctlreq.c **** 
 420:Middlewares/ST/STM32_USB_Host_Library/Core/Src/usbh_ctlreq.c **** 
 421:Middlewares/ST/STM32_USB_Host_Library/Core/Src/usbh_ctlreq.c **** 
 422:Middlewares/ST/STM32_USB_Host_Library/Core/Src/usbh_ctlreq.c **** /**
 423:Middlewares/ST/STM32_USB_Host_Library/Core/Src/usbh_ctlreq.c ****   * @brief  USBH_ParseInterfaceDesc 
 424:Middlewares/ST/STM32_USB_Host_Library/Core/Src/usbh_ctlreq.c ****   *         This function Parses the interface descriptor
 425:Middlewares/ST/STM32_USB_Host_Library/Core/Src/usbh_ctlreq.c ****   * @param  if_descriptor : Interface descriptor destination
 426:Middlewares/ST/STM32_USB_Host_Library/Core/Src/usbh_ctlreq.c ****   * @param  buf: Buffer where the descriptor data is available
 427:Middlewares/ST/STM32_USB_Host_Library/Core/Src/usbh_ctlreq.c ****   * @retval None
 428:Middlewares/ST/STM32_USB_Host_Library/Core/Src/usbh_ctlreq.c ****   */
 429:Middlewares/ST/STM32_USB_Host_Library/Core/Src/usbh_ctlreq.c **** static void  USBH_ParseInterfaceDesc (USBH_InterfaceDescTypeDef *if_descriptor, 
 430:Middlewares/ST/STM32_USB_Host_Library/Core/Src/usbh_ctlreq.c ****                                       uint8_t *buf)
 431:Middlewares/ST/STM32_USB_Host_Library/Core/Src/usbh_ctlreq.c **** {
 110              		.loc 1 431 0
 111              		.cfi_startproc
 112              		@ args = 0, pretend = 0, frame = 0
 113              		@ frame_needed = 0, uses_anonymous_args = 0
 114              		@ link register save eliminated.
 115              	.LVL2:
 432:Middlewares/ST/STM32_USB_Host_Library/Core/Src/usbh_ctlreq.c ****   if_descriptor->bLength            = *(uint8_t  *) (buf + 0);
 116              		.loc 1 432 0
 117 0000 0B78     		ldrb	r3, [r1]	@ zero_extendqisi2
 118 0002 0370     		strb	r3, [r0]
 433:Middlewares/ST/STM32_USB_Host_Library/Core/Src/usbh_ctlreq.c ****   if_descriptor->bDescriptorType    = *(uint8_t  *) (buf + 1);
 119              		.loc 1 433 0
 120 0004 4B78     		ldrb	r3, [r1, #1]	@ zero_extendqisi2
 121 0006 4370     		strb	r3, [r0, #1]
 434:Middlewares/ST/STM32_USB_Host_Library/Core/Src/usbh_ctlreq.c ****   if_descriptor->bInterfaceNumber   = *(uint8_t  *) (buf + 2);
 122              		.loc 1 434 0
 123 0008 8B78     		ldrb	r3, [r1, #2]	@ zero_extendqisi2
 124 000a 8370     		strb	r3, [r0, #2]
 435:Middlewares/ST/STM32_USB_Host_Library/Core/Src/usbh_ctlreq.c ****   if_descriptor->bAlternateSetting  = *(uint8_t  *) (buf + 3);
 125              		.loc 1 435 0
 126 000c CB78     		ldrb	r3, [r1, #3]	@ zero_extendqisi2
 127 000e C370     		strb	r3, [r0, #3]
 436:Middlewares/ST/STM32_USB_Host_Library/Core/Src/usbh_ctlreq.c ****   if_descriptor->bNumEndpoints      = *(uint8_t  *) (buf + 4);
 128              		.loc 1 436 0
 129 0010 0B79     		ldrb	r3, [r1, #4]	@ zero_extendqisi2
 130 0012 0371     		strb	r3, [r0, #4]
 437:Middlewares/ST/STM32_USB_Host_Library/Core/Src/usbh_ctlreq.c ****   if_descriptor->bInterfaceClass    = *(uint8_t  *) (buf + 5);
 131              		.loc 1 437 0
 132 0014 4B79     		ldrb	r3, [r1, #5]	@ zero_extendqisi2
 133 0016 4371     		strb	r3, [r0, #5]
 438:Middlewares/ST/STM32_USB_Host_Library/Core/Src/usbh_ctlreq.c ****   if_descriptor->bInterfaceSubClass = *(uint8_t  *) (buf + 6);
 134              		.loc 1 438 0
 135 0018 8B79     		ldrb	r3, [r1, #6]	@ zero_extendqisi2
ARM GAS  /tmp/cc5NuF1o.s 			page 11


 136 001a 8371     		strb	r3, [r0, #6]
 439:Middlewares/ST/STM32_USB_Host_Library/Core/Src/usbh_ctlreq.c ****   if_descriptor->bInterfaceProtocol = *(uint8_t  *) (buf + 7);
 137              		.loc 1 439 0
 138 001c CB79     		ldrb	r3, [r1, #7]	@ zero_extendqisi2
 139 001e C371     		strb	r3, [r0, #7]
 440:Middlewares/ST/STM32_USB_Host_Library/Core/Src/usbh_ctlreq.c ****   if_descriptor->iInterface         = *(uint8_t  *) (buf + 8);
 140              		.loc 1 440 0
 141 0020 0B7A     		ldrb	r3, [r1, #8]	@ zero_extendqisi2
 142 0022 0372     		strb	r3, [r0, #8]
 441:Middlewares/ST/STM32_USB_Host_Library/Core/Src/usbh_ctlreq.c **** }
 143              		.loc 1 441 0
 144 0024 7047     		bx	lr
 145              		.cfi_endproc
 146              	.LFE153:
 148              		.section	.text.USBH_ParseEPDesc,"ax",%progbits
 149              		.align	1
 150              		.syntax unified
 151              		.thumb
 152              		.thumb_func
 153              		.fpu fpv5-sp-d16
 155              	USBH_ParseEPDesc:
 156              	.LFB154:
 442:Middlewares/ST/STM32_USB_Host_Library/Core/Src/usbh_ctlreq.c **** 
 443:Middlewares/ST/STM32_USB_Host_Library/Core/Src/usbh_ctlreq.c **** /**
 444:Middlewares/ST/STM32_USB_Host_Library/Core/Src/usbh_ctlreq.c ****   * @brief  USBH_ParseEPDesc 
 445:Middlewares/ST/STM32_USB_Host_Library/Core/Src/usbh_ctlreq.c ****   *         This function Parses the endpoint descriptor
 446:Middlewares/ST/STM32_USB_Host_Library/Core/Src/usbh_ctlreq.c ****   * @param  ep_descriptor: Endpoint descriptor destination address
 447:Middlewares/ST/STM32_USB_Host_Library/Core/Src/usbh_ctlreq.c ****   * @param  buf: Buffer where the parsed descriptor stored
 448:Middlewares/ST/STM32_USB_Host_Library/Core/Src/usbh_ctlreq.c ****   * @retval None
 449:Middlewares/ST/STM32_USB_Host_Library/Core/Src/usbh_ctlreq.c ****   */
 450:Middlewares/ST/STM32_USB_Host_Library/Core/Src/usbh_ctlreq.c **** static void  USBH_ParseEPDesc (USBH_EpDescTypeDef  *ep_descriptor, 
 451:Middlewares/ST/STM32_USB_Host_Library/Core/Src/usbh_ctlreq.c ****                                uint8_t *buf)
 452:Middlewares/ST/STM32_USB_Host_Library/Core/Src/usbh_ctlreq.c **** {
 157              		.loc 1 452 0
 158              		.cfi_startproc
 159              		@ args = 0, pretend = 0, frame = 0
 160              		@ frame_needed = 0, uses_anonymous_args = 0
 161              		@ link register save eliminated.
 162              	.LVL3:
 453:Middlewares/ST/STM32_USB_Host_Library/Core/Src/usbh_ctlreq.c ****   
 454:Middlewares/ST/STM32_USB_Host_Library/Core/Src/usbh_ctlreq.c ****   ep_descriptor->bLength          = *(uint8_t  *) (buf + 0);
 163              		.loc 1 454 0
 164 0000 0B78     		ldrb	r3, [r1]	@ zero_extendqisi2
 165 0002 0370     		strb	r3, [r0]
 455:Middlewares/ST/STM32_USB_Host_Library/Core/Src/usbh_ctlreq.c ****   ep_descriptor->bDescriptorType  = *(uint8_t  *) (buf + 1);
 166              		.loc 1 455 0
 167 0004 4B78     		ldrb	r3, [r1, #1]	@ zero_extendqisi2
 168 0006 4370     		strb	r3, [r0, #1]
 456:Middlewares/ST/STM32_USB_Host_Library/Core/Src/usbh_ctlreq.c ****   ep_descriptor->bEndpointAddress = *(uint8_t  *) (buf + 2);
 169              		.loc 1 456 0
 170 0008 8B78     		ldrb	r3, [r1, #2]	@ zero_extendqisi2
 171 000a 8370     		strb	r3, [r0, #2]
 457:Middlewares/ST/STM32_USB_Host_Library/Core/Src/usbh_ctlreq.c ****   ep_descriptor->bmAttributes     = *(uint8_t  *) (buf + 3);
 172              		.loc 1 457 0
 173 000c CB78     		ldrb	r3, [r1, #3]	@ zero_extendqisi2
 174 000e C370     		strb	r3, [r0, #3]
 458:Middlewares/ST/STM32_USB_Host_Library/Core/Src/usbh_ctlreq.c ****   ep_descriptor->wMaxPacketSize   = LE16 (buf + 4);
ARM GAS  /tmp/cc5NuF1o.s 			page 12


 175              		.loc 1 458 0
 176 0010 0B79     		ldrb	r3, [r1, #4]	@ zero_extendqisi2
 177 0012 4A79     		ldrb	r2, [r1, #5]	@ zero_extendqisi2
 178 0014 03EB0223 		add	r3, r3, r2, lsl #8
 179 0018 8380     		strh	r3, [r0, #4]	@ movhi
 459:Middlewares/ST/STM32_USB_Host_Library/Core/Src/usbh_ctlreq.c ****   ep_descriptor->bInterval        = *(uint8_t  *) (buf + 6);
 180              		.loc 1 459 0
 181 001a 8B79     		ldrb	r3, [r1, #6]	@ zero_extendqisi2
 182 001c 8371     		strb	r3, [r0, #6]
 460:Middlewares/ST/STM32_USB_Host_Library/Core/Src/usbh_ctlreq.c **** }
 183              		.loc 1 460 0
 184 001e 7047     		bx	lr
 185              		.cfi_endproc
 186              	.LFE154:
 188              		.section	.text.USBH_ParseStringDesc,"ax",%progbits
 189              		.align	1
 190              		.syntax unified
 191              		.thumb
 192              		.thumb_func
 193              		.fpu fpv5-sp-d16
 195              	USBH_ParseStringDesc:
 196              	.LFB155:
 461:Middlewares/ST/STM32_USB_Host_Library/Core/Src/usbh_ctlreq.c **** 
 462:Middlewares/ST/STM32_USB_Host_Library/Core/Src/usbh_ctlreq.c **** /**
 463:Middlewares/ST/STM32_USB_Host_Library/Core/Src/usbh_ctlreq.c ****   * @brief  USBH_ParseStringDesc 
 464:Middlewares/ST/STM32_USB_Host_Library/Core/Src/usbh_ctlreq.c ****   *         This function Parses the string descriptor
 465:Middlewares/ST/STM32_USB_Host_Library/Core/Src/usbh_ctlreq.c ****   * @param  psrc: Source pointer containing the descriptor data
 466:Middlewares/ST/STM32_USB_Host_Library/Core/Src/usbh_ctlreq.c ****   * @param  pdest: Destination address pointer
 467:Middlewares/ST/STM32_USB_Host_Library/Core/Src/usbh_ctlreq.c ****   * @param  length: Length of the descriptor
 468:Middlewares/ST/STM32_USB_Host_Library/Core/Src/usbh_ctlreq.c ****   * @retval None
 469:Middlewares/ST/STM32_USB_Host_Library/Core/Src/usbh_ctlreq.c ****   */
 470:Middlewares/ST/STM32_USB_Host_Library/Core/Src/usbh_ctlreq.c **** static void USBH_ParseStringDesc (uint8_t* psrc, 
 471:Middlewares/ST/STM32_USB_Host_Library/Core/Src/usbh_ctlreq.c ****                                   uint8_t* pdest, 
 472:Middlewares/ST/STM32_USB_Host_Library/Core/Src/usbh_ctlreq.c ****                                   uint16_t length)
 473:Middlewares/ST/STM32_USB_Host_Library/Core/Src/usbh_ctlreq.c **** {
 197              		.loc 1 473 0
 198              		.cfi_startproc
 199              		@ args = 0, pretend = 0, frame = 0
 200              		@ frame_needed = 0, uses_anonymous_args = 0
 201              		@ link register save eliminated.
 202              	.LVL4:
 474:Middlewares/ST/STM32_USB_Host_Library/Core/Src/usbh_ctlreq.c ****   uint16_t strlength;
 475:Middlewares/ST/STM32_USB_Host_Library/Core/Src/usbh_ctlreq.c ****   uint16_t idx;
 476:Middlewares/ST/STM32_USB_Host_Library/Core/Src/usbh_ctlreq.c ****   
 477:Middlewares/ST/STM32_USB_Host_Library/Core/Src/usbh_ctlreq.c ****   /* The UNICODE string descriptor is not NULL-terminated. The string length is
 478:Middlewares/ST/STM32_USB_Host_Library/Core/Src/usbh_ctlreq.c ****   computed by substracting two from the value of the first byte of the descriptor.
 479:Middlewares/ST/STM32_USB_Host_Library/Core/Src/usbh_ctlreq.c ****   */
 480:Middlewares/ST/STM32_USB_Host_Library/Core/Src/usbh_ctlreq.c ****   
 481:Middlewares/ST/STM32_USB_Host_Library/Core/Src/usbh_ctlreq.c ****   /* Check which is lower size, the Size of string or the length of bytes read 
 482:Middlewares/ST/STM32_USB_Host_Library/Core/Src/usbh_ctlreq.c ****   from the device */
 483:Middlewares/ST/STM32_USB_Host_Library/Core/Src/usbh_ctlreq.c ****   
 484:Middlewares/ST/STM32_USB_Host_Library/Core/Src/usbh_ctlreq.c ****   if ( psrc[1] == USB_DESC_TYPE_STRING)
 203              		.loc 1 484 0
 204 0000 4378     		ldrb	r3, [r0, #1]	@ zero_extendqisi2
 205 0002 032B     		cmp	r3, #3
 206 0004 00D0     		beq	.L16
 207 0006 7047     		bx	lr
ARM GAS  /tmp/cc5NuF1o.s 			page 13


 208              	.L16:
 485:Middlewares/ST/STM32_USB_Host_Library/Core/Src/usbh_ctlreq.c ****   { /* Make sure the Descriptor is String Type */
 486:Middlewares/ST/STM32_USB_Host_Library/Core/Src/usbh_ctlreq.c ****     
 487:Middlewares/ST/STM32_USB_Host_Library/Core/Src/usbh_ctlreq.c ****     /* psrc[0] contains Size of Descriptor, subtract 2 to get the length of string */      
 488:Middlewares/ST/STM32_USB_Host_Library/Core/Src/usbh_ctlreq.c ****     strlength = ( ( (psrc[0]-2) <= length) ? (psrc[0]-2) :length); 
 209              		.loc 1 488 0
 210 0008 0378     		ldrb	r3, [r0]	@ zero_extendqisi2
 211 000a 023B     		subs	r3, r3, #2
 212 000c 9A42     		cmp	r2, r3
 213 000e A8BF     		it	ge
 214 0010 1A46     		movge	r2, r3
 215              	.LVL5:
 216 0012 92B2     		uxth	r2, r2
 217              	.LVL6:
 489:Middlewares/ST/STM32_USB_Host_Library/Core/Src/usbh_ctlreq.c ****     psrc += 2; /* Adjust the offset ignoring the String Len and Descriptor type */
 490:Middlewares/ST/STM32_USB_Host_Library/Core/Src/usbh_ctlreq.c ****     
 491:Middlewares/ST/STM32_USB_Host_Library/Core/Src/usbh_ctlreq.c ****     for (idx = 0; idx < strlength; idx+=2 )
 218              		.loc 1 491 0
 219 0014 0023     		movs	r3, #0
 220              	.LVL7:
 221 0016 9342     		cmp	r3, r2
 222 0018 0DD2     		bcs	.L17
 473:Middlewares/ST/STM32_USB_Host_Library/Core/Src/usbh_ctlreq.c ****   uint16_t strlength;
 223              		.loc 1 473 0
 224 001a 10B4     		push	{r4}
 225              	.LCFI2:
 226              		.cfi_def_cfa_offset 4
 227              		.cfi_offset 4, -4
 228              	.L9:
 492:Middlewares/ST/STM32_USB_Host_Library/Core/Src/usbh_ctlreq.c ****     {/* Copy Only the string and ignore the UNICODE ID, hence add the src */
 493:Middlewares/ST/STM32_USB_Host_Library/Core/Src/usbh_ctlreq.c ****       *pdest =  psrc[idx];
 229              		.loc 1 493 0 discriminator 3
 230 001c C418     		adds	r4, r0, r3
 231 001e A478     		ldrb	r4, [r4, #2]	@ zero_extendqisi2
 232 0020 01F8014B 		strb	r4, [r1], #1
 233              	.LVL8:
 491:Middlewares/ST/STM32_USB_Host_Library/Core/Src/usbh_ctlreq.c ****     {/* Copy Only the string and ignore the UNICODE ID, hence add the src */
 234              		.loc 1 491 0 discriminator 3
 235 0024 0233     		adds	r3, r3, #2
 236              	.LVL9:
 237 0026 9BB2     		uxth	r3, r3
 238              	.LVL10:
 239 0028 9342     		cmp	r3, r2
 240 002a F7D3     		bcc	.L9
 494:Middlewares/ST/STM32_USB_Host_Library/Core/Src/usbh_ctlreq.c ****       pdest++;
 495:Middlewares/ST/STM32_USB_Host_Library/Core/Src/usbh_ctlreq.c ****     }  
 496:Middlewares/ST/STM32_USB_Host_Library/Core/Src/usbh_ctlreq.c ****     *pdest = 0; /* mark end of string */  
 241              		.loc 1 496 0
 242 002c 0023     		movs	r3, #0
 243              	.LVL11:
 244 002e 0B70     		strb	r3, [r1]
 497:Middlewares/ST/STM32_USB_Host_Library/Core/Src/usbh_ctlreq.c ****   }
 498:Middlewares/ST/STM32_USB_Host_Library/Core/Src/usbh_ctlreq.c **** }
 245              		.loc 1 498 0
 246 0030 5DF8044B 		ldr	r4, [sp], #4
 247              	.LCFI3:
 248              		.cfi_restore 4
ARM GAS  /tmp/cc5NuF1o.s 			page 14


 249              		.cfi_def_cfa_offset 0
 250 0034 7047     		bx	lr
 251              	.LVL12:
 252              	.L17:
 496:Middlewares/ST/STM32_USB_Host_Library/Core/Src/usbh_ctlreq.c ****   }
 253              		.loc 1 496 0
 254 0036 0023     		movs	r3, #0
 255 0038 0B70     		strb	r3, [r1]
 256 003a 7047     		bx	lr
 257              		.cfi_endproc
 258              	.LFE155:
 260              		.section	.text.USBH_HandleControl,"ax",%progbits
 261              		.align	1
 262              		.syntax unified
 263              		.thumb
 264              		.thumb_func
 265              		.fpu fpv5-sp-d16
 267              	USBH_HandleControl:
 268              	.LFB158:
 499:Middlewares/ST/STM32_USB_Host_Library/Core/Src/usbh_ctlreq.c **** 
 500:Middlewares/ST/STM32_USB_Host_Library/Core/Src/usbh_ctlreq.c **** /**
 501:Middlewares/ST/STM32_USB_Host_Library/Core/Src/usbh_ctlreq.c ****   * @brief  USBH_GetNextDesc 
 502:Middlewares/ST/STM32_USB_Host_Library/Core/Src/usbh_ctlreq.c ****   *         This function return the next descriptor header
 503:Middlewares/ST/STM32_USB_Host_Library/Core/Src/usbh_ctlreq.c ****   * @param  buf: Buffer where the cfg descriptor is available
 504:Middlewares/ST/STM32_USB_Host_Library/Core/Src/usbh_ctlreq.c ****   * @param  ptr: data pointer inside the cfg descriptor
 505:Middlewares/ST/STM32_USB_Host_Library/Core/Src/usbh_ctlreq.c ****   * @retval next header
 506:Middlewares/ST/STM32_USB_Host_Library/Core/Src/usbh_ctlreq.c ****   */
 507:Middlewares/ST/STM32_USB_Host_Library/Core/Src/usbh_ctlreq.c **** USBH_DescHeader_t  *USBH_GetNextDesc (uint8_t   *pbuf, uint16_t  *ptr)
 508:Middlewares/ST/STM32_USB_Host_Library/Core/Src/usbh_ctlreq.c **** {
 509:Middlewares/ST/STM32_USB_Host_Library/Core/Src/usbh_ctlreq.c ****   USBH_DescHeader_t  *pnext;
 510:Middlewares/ST/STM32_USB_Host_Library/Core/Src/usbh_ctlreq.c ****  
 511:Middlewares/ST/STM32_USB_Host_Library/Core/Src/usbh_ctlreq.c ****   *ptr += ((USBH_DescHeader_t *)pbuf)->bLength;  
 512:Middlewares/ST/STM32_USB_Host_Library/Core/Src/usbh_ctlreq.c ****   pnext = (USBH_DescHeader_t *)((uint8_t *)pbuf + \
 513:Middlewares/ST/STM32_USB_Host_Library/Core/Src/usbh_ctlreq.c ****          ((USBH_DescHeader_t *)pbuf)->bLength);
 514:Middlewares/ST/STM32_USB_Host_Library/Core/Src/usbh_ctlreq.c ****  
 515:Middlewares/ST/STM32_USB_Host_Library/Core/Src/usbh_ctlreq.c ****   return(pnext);
 516:Middlewares/ST/STM32_USB_Host_Library/Core/Src/usbh_ctlreq.c **** }
 517:Middlewares/ST/STM32_USB_Host_Library/Core/Src/usbh_ctlreq.c **** 
 518:Middlewares/ST/STM32_USB_Host_Library/Core/Src/usbh_ctlreq.c **** 
 519:Middlewares/ST/STM32_USB_Host_Library/Core/Src/usbh_ctlreq.c **** /**
 520:Middlewares/ST/STM32_USB_Host_Library/Core/Src/usbh_ctlreq.c ****   * @brief  USBH_CtlReq
 521:Middlewares/ST/STM32_USB_Host_Library/Core/Src/usbh_ctlreq.c ****   *         USBH_CtlReq sends a control request and provide the status after 
 522:Middlewares/ST/STM32_USB_Host_Library/Core/Src/usbh_ctlreq.c ****   *            completion of the request
 523:Middlewares/ST/STM32_USB_Host_Library/Core/Src/usbh_ctlreq.c ****   * @param  phost: Host Handle
 524:Middlewares/ST/STM32_USB_Host_Library/Core/Src/usbh_ctlreq.c ****   * @param  req: Setup Request Structure
 525:Middlewares/ST/STM32_USB_Host_Library/Core/Src/usbh_ctlreq.c ****   * @param  buff: data buffer address to store the response
 526:Middlewares/ST/STM32_USB_Host_Library/Core/Src/usbh_ctlreq.c ****   * @param  length: length of the response
 527:Middlewares/ST/STM32_USB_Host_Library/Core/Src/usbh_ctlreq.c ****   * @retval USBH Status
 528:Middlewares/ST/STM32_USB_Host_Library/Core/Src/usbh_ctlreq.c ****   */
 529:Middlewares/ST/STM32_USB_Host_Library/Core/Src/usbh_ctlreq.c **** USBH_StatusTypeDef USBH_CtlReq     (USBH_HandleTypeDef *phost, 
 530:Middlewares/ST/STM32_USB_Host_Library/Core/Src/usbh_ctlreq.c ****                              uint8_t             *buff,
 531:Middlewares/ST/STM32_USB_Host_Library/Core/Src/usbh_ctlreq.c ****                              uint16_t            length)
 532:Middlewares/ST/STM32_USB_Host_Library/Core/Src/usbh_ctlreq.c **** {
 533:Middlewares/ST/STM32_USB_Host_Library/Core/Src/usbh_ctlreq.c ****   USBH_StatusTypeDef status;
 534:Middlewares/ST/STM32_USB_Host_Library/Core/Src/usbh_ctlreq.c ****   status = USBH_BUSY;
 535:Middlewares/ST/STM32_USB_Host_Library/Core/Src/usbh_ctlreq.c ****   
 536:Middlewares/ST/STM32_USB_Host_Library/Core/Src/usbh_ctlreq.c ****   switch (phost->RequestState)
ARM GAS  /tmp/cc5NuF1o.s 			page 15


 537:Middlewares/ST/STM32_USB_Host_Library/Core/Src/usbh_ctlreq.c ****   {
 538:Middlewares/ST/STM32_USB_Host_Library/Core/Src/usbh_ctlreq.c ****   case CMD_SEND:
 539:Middlewares/ST/STM32_USB_Host_Library/Core/Src/usbh_ctlreq.c ****     /* Start a SETUP transfer */
 540:Middlewares/ST/STM32_USB_Host_Library/Core/Src/usbh_ctlreq.c ****     phost->Control.buff = buff; 
 541:Middlewares/ST/STM32_USB_Host_Library/Core/Src/usbh_ctlreq.c ****     phost->Control.length = length;
 542:Middlewares/ST/STM32_USB_Host_Library/Core/Src/usbh_ctlreq.c ****     phost->Control.state = CTRL_SETUP;  
 543:Middlewares/ST/STM32_USB_Host_Library/Core/Src/usbh_ctlreq.c ****     phost->RequestState = CMD_WAIT;
 544:Middlewares/ST/STM32_USB_Host_Library/Core/Src/usbh_ctlreq.c ****     status = USBH_BUSY;
 545:Middlewares/ST/STM32_USB_Host_Library/Core/Src/usbh_ctlreq.c **** #if (USBH_USE_OS == 1)
 546:Middlewares/ST/STM32_USB_Host_Library/Core/Src/usbh_ctlreq.c ****     osMessagePut ( phost->os_event, USBH_CONTROL_EVENT, 0);
 547:Middlewares/ST/STM32_USB_Host_Library/Core/Src/usbh_ctlreq.c **** #endif      
 548:Middlewares/ST/STM32_USB_Host_Library/Core/Src/usbh_ctlreq.c ****     break;
 549:Middlewares/ST/STM32_USB_Host_Library/Core/Src/usbh_ctlreq.c ****     
 550:Middlewares/ST/STM32_USB_Host_Library/Core/Src/usbh_ctlreq.c ****   case CMD_WAIT:
 551:Middlewares/ST/STM32_USB_Host_Library/Core/Src/usbh_ctlreq.c ****     status = USBH_HandleControl(phost);
 552:Middlewares/ST/STM32_USB_Host_Library/Core/Src/usbh_ctlreq.c ****      if (status == USBH_OK) 
 553:Middlewares/ST/STM32_USB_Host_Library/Core/Src/usbh_ctlreq.c ****     {
 554:Middlewares/ST/STM32_USB_Host_Library/Core/Src/usbh_ctlreq.c ****       /* Commands successfully sent and Response Received  */       
 555:Middlewares/ST/STM32_USB_Host_Library/Core/Src/usbh_ctlreq.c ****       phost->RequestState = CMD_SEND;
 556:Middlewares/ST/STM32_USB_Host_Library/Core/Src/usbh_ctlreq.c ****       phost->Control.state =CTRL_IDLE;  
 557:Middlewares/ST/STM32_USB_Host_Library/Core/Src/usbh_ctlreq.c ****       status = USBH_OK;      
 558:Middlewares/ST/STM32_USB_Host_Library/Core/Src/usbh_ctlreq.c ****     }
 559:Middlewares/ST/STM32_USB_Host_Library/Core/Src/usbh_ctlreq.c ****     else if  (status == USBH_FAIL)
 560:Middlewares/ST/STM32_USB_Host_Library/Core/Src/usbh_ctlreq.c ****     {
 561:Middlewares/ST/STM32_USB_Host_Library/Core/Src/usbh_ctlreq.c ****       /* Failure Mode */
 562:Middlewares/ST/STM32_USB_Host_Library/Core/Src/usbh_ctlreq.c ****       phost->RequestState = CMD_SEND;
 563:Middlewares/ST/STM32_USB_Host_Library/Core/Src/usbh_ctlreq.c ****       status = USBH_FAIL;
 564:Middlewares/ST/STM32_USB_Host_Library/Core/Src/usbh_ctlreq.c ****     }   
 565:Middlewares/ST/STM32_USB_Host_Library/Core/Src/usbh_ctlreq.c ****     break;
 566:Middlewares/ST/STM32_USB_Host_Library/Core/Src/usbh_ctlreq.c ****     
 567:Middlewares/ST/STM32_USB_Host_Library/Core/Src/usbh_ctlreq.c ****   default:
 568:Middlewares/ST/STM32_USB_Host_Library/Core/Src/usbh_ctlreq.c ****     break; 
 569:Middlewares/ST/STM32_USB_Host_Library/Core/Src/usbh_ctlreq.c ****   }
 570:Middlewares/ST/STM32_USB_Host_Library/Core/Src/usbh_ctlreq.c ****   return status;
 571:Middlewares/ST/STM32_USB_Host_Library/Core/Src/usbh_ctlreq.c **** }
 572:Middlewares/ST/STM32_USB_Host_Library/Core/Src/usbh_ctlreq.c **** 
 573:Middlewares/ST/STM32_USB_Host_Library/Core/Src/usbh_ctlreq.c **** /**
 574:Middlewares/ST/STM32_USB_Host_Library/Core/Src/usbh_ctlreq.c ****   * @brief  USBH_HandleControl
 575:Middlewares/ST/STM32_USB_Host_Library/Core/Src/usbh_ctlreq.c ****   *         Handles the USB control transfer state machine
 576:Middlewares/ST/STM32_USB_Host_Library/Core/Src/usbh_ctlreq.c ****   * @param  phost: Host Handle
 577:Middlewares/ST/STM32_USB_Host_Library/Core/Src/usbh_ctlreq.c ****   * @retval USBH Status
 578:Middlewares/ST/STM32_USB_Host_Library/Core/Src/usbh_ctlreq.c ****   */
 579:Middlewares/ST/STM32_USB_Host_Library/Core/Src/usbh_ctlreq.c **** static USBH_StatusTypeDef USBH_HandleControl (USBH_HandleTypeDef *phost)
 580:Middlewares/ST/STM32_USB_Host_Library/Core/Src/usbh_ctlreq.c **** {
 269              		.loc 1 580 0
 270              		.cfi_startproc
 271              		@ args = 0, pretend = 0, frame = 0
 272              		@ frame_needed = 0, uses_anonymous_args = 0
 273              	.LVL13:
 274 0000 30B5     		push	{r4, r5, lr}
 275              	.LCFI4:
 276              		.cfi_def_cfa_offset 12
 277              		.cfi_offset 4, -12
 278              		.cfi_offset 5, -8
 279              		.cfi_offset 14, -4
 280 0002 83B0     		sub	sp, sp, #12
 281              	.LCFI5:
ARM GAS  /tmp/cc5NuF1o.s 			page 16


 282              		.cfi_def_cfa_offset 24
 283 0004 0446     		mov	r4, r0
 284              	.LVL14:
 581:Middlewares/ST/STM32_USB_Host_Library/Core/Src/usbh_ctlreq.c ****   uint8_t direction;  
 582:Middlewares/ST/STM32_USB_Host_Library/Core/Src/usbh_ctlreq.c ****   USBH_StatusTypeDef status = USBH_BUSY;
 583:Middlewares/ST/STM32_USB_Host_Library/Core/Src/usbh_ctlreq.c ****   USBH_URBStateTypeDef URB_Status = USBH_URB_IDLE;
 584:Middlewares/ST/STM32_USB_Host_Library/Core/Src/usbh_ctlreq.c ****   
 585:Middlewares/ST/STM32_USB_Host_Library/Core/Src/usbh_ctlreq.c ****   switch (phost->Control.state)
 285              		.loc 1 585 0
 286 0006 037E     		ldrb	r3, [r0, #24]	@ zero_extendqisi2
 287 0008 013B     		subs	r3, r3, #1
 288 000a 0A2B     		cmp	r3, #10
 289 000c 00F23A81 		bhi	.L47
 290 0010 DFE813F0 		tbh	[pc, r3, lsl #1]
 291              	.L21:
 292 0014 0B00     		.2byte	(.L20-.L21)/2
 293 0016 1500     		.2byte	(.L22-.L21)/2
 294 0018 4400     		.2byte	(.L23-.L21)/2
 295 001a 5000     		.2byte	(.L24-.L21)/2
 296 001c 7700     		.2byte	(.L25-.L21)/2
 297 001e 8500     		.2byte	(.L26-.L21)/2
 298 0020 BA00     		.2byte	(.L27-.L21)/2
 299 0022 C600     		.2byte	(.L28-.L21)/2
 300 0024 ED00     		.2byte	(.L29-.L21)/2
 301 0026 FB00     		.2byte	(.L30-.L21)/2
 302 0028 2401     		.2byte	(.L31-.L21)/2
 303              		.p2align 1
 304              	.L20:
 586:Middlewares/ST/STM32_USB_Host_Library/Core/Src/usbh_ctlreq.c ****   {
 587:Middlewares/ST/STM32_USB_Host_Library/Core/Src/usbh_ctlreq.c ****   case CTRL_SETUP:
 588:Middlewares/ST/STM32_USB_Host_Library/Core/Src/usbh_ctlreq.c ****     /* send a SETUP packet */
 589:Middlewares/ST/STM32_USB_Host_Library/Core/Src/usbh_ctlreq.c ****     USBH_CtlSendSetup     (phost, 
 305              		.loc 1 589 0
 306 002a 4279     		ldrb	r2, [r0, #5]	@ zero_extendqisi2
 307 002c 00F11001 		add	r1, r0, #16
 308 0030 FFF7FEFF 		bl	USBH_CtlSendSetup
 309              	.LVL15:
 590:Middlewares/ST/STM32_USB_Host_Library/Core/Src/usbh_ctlreq.c **** 	                   (uint8_t *)phost->Control.setup.d8 , 
 591:Middlewares/ST/STM32_USB_Host_Library/Core/Src/usbh_ctlreq.c **** 	                   phost->Control.pipe_out); 
 592:Middlewares/ST/STM32_USB_Host_Library/Core/Src/usbh_ctlreq.c ****     
 593:Middlewares/ST/STM32_USB_Host_Library/Core/Src/usbh_ctlreq.c ****     phost->Control.state = CTRL_SETUP_WAIT; 
 310              		.loc 1 593 0
 311 0034 0223     		movs	r3, #2
 312 0036 2376     		strb	r3, [r4, #24]
 582:Middlewares/ST/STM32_USB_Host_Library/Core/Src/usbh_ctlreq.c ****   USBH_URBStateTypeDef URB_Status = USBH_URB_IDLE;
 313              		.loc 1 582 0
 314 0038 0120     		movs	r0, #1
 315              	.LVL16:
 316              	.L19:
 594:Middlewares/ST/STM32_USB_Host_Library/Core/Src/usbh_ctlreq.c ****     break; 
 595:Middlewares/ST/STM32_USB_Host_Library/Core/Src/usbh_ctlreq.c ****     
 596:Middlewares/ST/STM32_USB_Host_Library/Core/Src/usbh_ctlreq.c ****   case CTRL_SETUP_WAIT:
 597:Middlewares/ST/STM32_USB_Host_Library/Core/Src/usbh_ctlreq.c ****     
 598:Middlewares/ST/STM32_USB_Host_Library/Core/Src/usbh_ctlreq.c ****     URB_Status = USBH_LL_GetURBState(phost, phost->Control.pipe_out); 
 599:Middlewares/ST/STM32_USB_Host_Library/Core/Src/usbh_ctlreq.c ****     /* case SETUP packet sent successfully */
 600:Middlewares/ST/STM32_USB_Host_Library/Core/Src/usbh_ctlreq.c ****     if(URB_Status == USBH_URB_DONE)
 601:Middlewares/ST/STM32_USB_Host_Library/Core/Src/usbh_ctlreq.c ****     { 
ARM GAS  /tmp/cc5NuF1o.s 			page 17


 602:Middlewares/ST/STM32_USB_Host_Library/Core/Src/usbh_ctlreq.c ****       direction = (phost->Control.setup.b.bmRequestType & USB_REQ_DIR_MASK);
 603:Middlewares/ST/STM32_USB_Host_Library/Core/Src/usbh_ctlreq.c ****       
 604:Middlewares/ST/STM32_USB_Host_Library/Core/Src/usbh_ctlreq.c ****       /* check if there is a data stage */
 605:Middlewares/ST/STM32_USB_Host_Library/Core/Src/usbh_ctlreq.c ****       if (phost->Control.setup.b.wLength.w != 0 )
 606:Middlewares/ST/STM32_USB_Host_Library/Core/Src/usbh_ctlreq.c ****       {        
 607:Middlewares/ST/STM32_USB_Host_Library/Core/Src/usbh_ctlreq.c ****         if (direction == USB_D2H)
 608:Middlewares/ST/STM32_USB_Host_Library/Core/Src/usbh_ctlreq.c ****         {
 609:Middlewares/ST/STM32_USB_Host_Library/Core/Src/usbh_ctlreq.c ****           /* Data Direction is IN */
 610:Middlewares/ST/STM32_USB_Host_Library/Core/Src/usbh_ctlreq.c ****           phost->Control.state = CTRL_DATA_IN;
 611:Middlewares/ST/STM32_USB_Host_Library/Core/Src/usbh_ctlreq.c ****         }
 612:Middlewares/ST/STM32_USB_Host_Library/Core/Src/usbh_ctlreq.c ****         else
 613:Middlewares/ST/STM32_USB_Host_Library/Core/Src/usbh_ctlreq.c ****         {
 614:Middlewares/ST/STM32_USB_Host_Library/Core/Src/usbh_ctlreq.c ****           /* Data Direction is OUT */
 615:Middlewares/ST/STM32_USB_Host_Library/Core/Src/usbh_ctlreq.c ****           phost->Control.state = CTRL_DATA_OUT;
 616:Middlewares/ST/STM32_USB_Host_Library/Core/Src/usbh_ctlreq.c ****         } 
 617:Middlewares/ST/STM32_USB_Host_Library/Core/Src/usbh_ctlreq.c ****       }
 618:Middlewares/ST/STM32_USB_Host_Library/Core/Src/usbh_ctlreq.c ****       /* No DATA stage */
 619:Middlewares/ST/STM32_USB_Host_Library/Core/Src/usbh_ctlreq.c ****       else
 620:Middlewares/ST/STM32_USB_Host_Library/Core/Src/usbh_ctlreq.c ****       {
 621:Middlewares/ST/STM32_USB_Host_Library/Core/Src/usbh_ctlreq.c ****         /* If there is No Data Transfer Stage */
 622:Middlewares/ST/STM32_USB_Host_Library/Core/Src/usbh_ctlreq.c ****         if (direction == USB_D2H)
 623:Middlewares/ST/STM32_USB_Host_Library/Core/Src/usbh_ctlreq.c ****         {
 624:Middlewares/ST/STM32_USB_Host_Library/Core/Src/usbh_ctlreq.c ****           /* Data Direction is IN */
 625:Middlewares/ST/STM32_USB_Host_Library/Core/Src/usbh_ctlreq.c ****           phost->Control.state = CTRL_STATUS_OUT;
 626:Middlewares/ST/STM32_USB_Host_Library/Core/Src/usbh_ctlreq.c ****         }
 627:Middlewares/ST/STM32_USB_Host_Library/Core/Src/usbh_ctlreq.c ****         else
 628:Middlewares/ST/STM32_USB_Host_Library/Core/Src/usbh_ctlreq.c ****         {
 629:Middlewares/ST/STM32_USB_Host_Library/Core/Src/usbh_ctlreq.c ****           /* Data Direction is OUT */
 630:Middlewares/ST/STM32_USB_Host_Library/Core/Src/usbh_ctlreq.c ****           phost->Control.state = CTRL_STATUS_IN;
 631:Middlewares/ST/STM32_USB_Host_Library/Core/Src/usbh_ctlreq.c ****         } 
 632:Middlewares/ST/STM32_USB_Host_Library/Core/Src/usbh_ctlreq.c ****       }          
 633:Middlewares/ST/STM32_USB_Host_Library/Core/Src/usbh_ctlreq.c **** #if (USBH_USE_OS == 1)
 634:Middlewares/ST/STM32_USB_Host_Library/Core/Src/usbh_ctlreq.c ****       osMessagePut ( phost->os_event, USBH_CONTROL_EVENT, 0);
 635:Middlewares/ST/STM32_USB_Host_Library/Core/Src/usbh_ctlreq.c **** #endif
 636:Middlewares/ST/STM32_USB_Host_Library/Core/Src/usbh_ctlreq.c ****     }
 637:Middlewares/ST/STM32_USB_Host_Library/Core/Src/usbh_ctlreq.c ****     else if(URB_Status == USBH_URB_ERROR)
 638:Middlewares/ST/STM32_USB_Host_Library/Core/Src/usbh_ctlreq.c ****     {
 639:Middlewares/ST/STM32_USB_Host_Library/Core/Src/usbh_ctlreq.c ****       phost->Control.state = CTRL_ERROR;
 640:Middlewares/ST/STM32_USB_Host_Library/Core/Src/usbh_ctlreq.c **** #if (USBH_USE_OS == 1)
 641:Middlewares/ST/STM32_USB_Host_Library/Core/Src/usbh_ctlreq.c ****     osMessagePut ( phost->os_event, USBH_CONTROL_EVENT, 0);
 642:Middlewares/ST/STM32_USB_Host_Library/Core/Src/usbh_ctlreq.c **** #endif      
 643:Middlewares/ST/STM32_USB_Host_Library/Core/Src/usbh_ctlreq.c ****     }    
 644:Middlewares/ST/STM32_USB_Host_Library/Core/Src/usbh_ctlreq.c ****     break;
 645:Middlewares/ST/STM32_USB_Host_Library/Core/Src/usbh_ctlreq.c ****     
 646:Middlewares/ST/STM32_USB_Host_Library/Core/Src/usbh_ctlreq.c ****   case CTRL_DATA_IN:  
 647:Middlewares/ST/STM32_USB_Host_Library/Core/Src/usbh_ctlreq.c ****     /* Issue an IN token */ 
 648:Middlewares/ST/STM32_USB_Host_Library/Core/Src/usbh_ctlreq.c ****      phost->Control.timer = phost->Timer;
 649:Middlewares/ST/STM32_USB_Host_Library/Core/Src/usbh_ctlreq.c ****     USBH_CtlReceiveData(phost,
 650:Middlewares/ST/STM32_USB_Host_Library/Core/Src/usbh_ctlreq.c ****                         phost->Control.buff, 
 651:Middlewares/ST/STM32_USB_Host_Library/Core/Src/usbh_ctlreq.c ****                         phost->Control.length,
 652:Middlewares/ST/STM32_USB_Host_Library/Core/Src/usbh_ctlreq.c ****                         phost->Control.pipe_in);
 653:Middlewares/ST/STM32_USB_Host_Library/Core/Src/usbh_ctlreq.c ****  
 654:Middlewares/ST/STM32_USB_Host_Library/Core/Src/usbh_ctlreq.c ****     phost->Control.state = CTRL_DATA_IN_WAIT;
 655:Middlewares/ST/STM32_USB_Host_Library/Core/Src/usbh_ctlreq.c ****     break;    
 656:Middlewares/ST/STM32_USB_Host_Library/Core/Src/usbh_ctlreq.c ****     
 657:Middlewares/ST/STM32_USB_Host_Library/Core/Src/usbh_ctlreq.c ****   case CTRL_DATA_IN_WAIT:
 658:Middlewares/ST/STM32_USB_Host_Library/Core/Src/usbh_ctlreq.c ****     
ARM GAS  /tmp/cc5NuF1o.s 			page 18


 659:Middlewares/ST/STM32_USB_Host_Library/Core/Src/usbh_ctlreq.c ****     URB_Status = USBH_LL_GetURBState(phost , phost->Control.pipe_in); 
 660:Middlewares/ST/STM32_USB_Host_Library/Core/Src/usbh_ctlreq.c ****     
 661:Middlewares/ST/STM32_USB_Host_Library/Core/Src/usbh_ctlreq.c ****     /* check is DATA packet transferred successfully */
 662:Middlewares/ST/STM32_USB_Host_Library/Core/Src/usbh_ctlreq.c ****     if  (URB_Status == USBH_URB_DONE)
 663:Middlewares/ST/STM32_USB_Host_Library/Core/Src/usbh_ctlreq.c ****     { 
 664:Middlewares/ST/STM32_USB_Host_Library/Core/Src/usbh_ctlreq.c ****       phost->Control.state = CTRL_STATUS_OUT;
 665:Middlewares/ST/STM32_USB_Host_Library/Core/Src/usbh_ctlreq.c **** #if (USBH_USE_OS == 1)
 666:Middlewares/ST/STM32_USB_Host_Library/Core/Src/usbh_ctlreq.c ****     osMessagePut ( phost->os_event, USBH_CONTROL_EVENT, 0);
 667:Middlewares/ST/STM32_USB_Host_Library/Core/Src/usbh_ctlreq.c **** #endif      
 668:Middlewares/ST/STM32_USB_Host_Library/Core/Src/usbh_ctlreq.c ****     }
 669:Middlewares/ST/STM32_USB_Host_Library/Core/Src/usbh_ctlreq.c ****    
 670:Middlewares/ST/STM32_USB_Host_Library/Core/Src/usbh_ctlreq.c ****     /* manage error cases*/
 671:Middlewares/ST/STM32_USB_Host_Library/Core/Src/usbh_ctlreq.c ****     if  (URB_Status == USBH_URB_STALL) 
 672:Middlewares/ST/STM32_USB_Host_Library/Core/Src/usbh_ctlreq.c ****     { 
 673:Middlewares/ST/STM32_USB_Host_Library/Core/Src/usbh_ctlreq.c ****       /* In stall case, return to previous machine state*/
 674:Middlewares/ST/STM32_USB_Host_Library/Core/Src/usbh_ctlreq.c ****       status = USBH_NOT_SUPPORTED;
 675:Middlewares/ST/STM32_USB_Host_Library/Core/Src/usbh_ctlreq.c **** #if (USBH_USE_OS == 1)
 676:Middlewares/ST/STM32_USB_Host_Library/Core/Src/usbh_ctlreq.c ****     osMessagePut ( phost->os_event, USBH_CONTROL_EVENT, 0);
 677:Middlewares/ST/STM32_USB_Host_Library/Core/Src/usbh_ctlreq.c **** #endif      
 678:Middlewares/ST/STM32_USB_Host_Library/Core/Src/usbh_ctlreq.c ****     }   
 679:Middlewares/ST/STM32_USB_Host_Library/Core/Src/usbh_ctlreq.c ****     else if (URB_Status == USBH_URB_ERROR)
 680:Middlewares/ST/STM32_USB_Host_Library/Core/Src/usbh_ctlreq.c ****     {
 681:Middlewares/ST/STM32_USB_Host_Library/Core/Src/usbh_ctlreq.c ****       /* Device error */
 682:Middlewares/ST/STM32_USB_Host_Library/Core/Src/usbh_ctlreq.c ****       phost->Control.state = CTRL_ERROR;  
 683:Middlewares/ST/STM32_USB_Host_Library/Core/Src/usbh_ctlreq.c **** #if (USBH_USE_OS == 1)
 684:Middlewares/ST/STM32_USB_Host_Library/Core/Src/usbh_ctlreq.c ****     osMessagePut ( phost->os_event, USBH_CONTROL_EVENT, 0);
 685:Middlewares/ST/STM32_USB_Host_Library/Core/Src/usbh_ctlreq.c **** #endif      
 686:Middlewares/ST/STM32_USB_Host_Library/Core/Src/usbh_ctlreq.c ****     }
 687:Middlewares/ST/STM32_USB_Host_Library/Core/Src/usbh_ctlreq.c ****     break;
 688:Middlewares/ST/STM32_USB_Host_Library/Core/Src/usbh_ctlreq.c ****     
 689:Middlewares/ST/STM32_USB_Host_Library/Core/Src/usbh_ctlreq.c ****   case CTRL_DATA_OUT:
 690:Middlewares/ST/STM32_USB_Host_Library/Core/Src/usbh_ctlreq.c ****     
 691:Middlewares/ST/STM32_USB_Host_Library/Core/Src/usbh_ctlreq.c ****     USBH_CtlSendData (phost,
 692:Middlewares/ST/STM32_USB_Host_Library/Core/Src/usbh_ctlreq.c ****                       phost->Control.buff, 
 693:Middlewares/ST/STM32_USB_Host_Library/Core/Src/usbh_ctlreq.c ****                       phost->Control.length , 
 694:Middlewares/ST/STM32_USB_Host_Library/Core/Src/usbh_ctlreq.c ****                       phost->Control.pipe_out,
 695:Middlewares/ST/STM32_USB_Host_Library/Core/Src/usbh_ctlreq.c ****                       1);
 696:Middlewares/ST/STM32_USB_Host_Library/Core/Src/usbh_ctlreq.c ****      phost->Control.timer = phost->Timer;
 697:Middlewares/ST/STM32_USB_Host_Library/Core/Src/usbh_ctlreq.c ****     phost->Control.state = CTRL_DATA_OUT_WAIT;
 698:Middlewares/ST/STM32_USB_Host_Library/Core/Src/usbh_ctlreq.c ****     break;
 699:Middlewares/ST/STM32_USB_Host_Library/Core/Src/usbh_ctlreq.c ****     
 700:Middlewares/ST/STM32_USB_Host_Library/Core/Src/usbh_ctlreq.c ****   case CTRL_DATA_OUT_WAIT:
 701:Middlewares/ST/STM32_USB_Host_Library/Core/Src/usbh_ctlreq.c ****     
 702:Middlewares/ST/STM32_USB_Host_Library/Core/Src/usbh_ctlreq.c ****     URB_Status = USBH_LL_GetURBState(phost , phost->Control.pipe_out);     
 703:Middlewares/ST/STM32_USB_Host_Library/Core/Src/usbh_ctlreq.c ****     
 704:Middlewares/ST/STM32_USB_Host_Library/Core/Src/usbh_ctlreq.c ****     if  (URB_Status == USBH_URB_DONE)
 705:Middlewares/ST/STM32_USB_Host_Library/Core/Src/usbh_ctlreq.c ****     { /* If the Setup Pkt is sent successful, then change the state */
 706:Middlewares/ST/STM32_USB_Host_Library/Core/Src/usbh_ctlreq.c ****       phost->Control.state = CTRL_STATUS_IN;
 707:Middlewares/ST/STM32_USB_Host_Library/Core/Src/usbh_ctlreq.c **** #if (USBH_USE_OS == 1)
 708:Middlewares/ST/STM32_USB_Host_Library/Core/Src/usbh_ctlreq.c ****       osMessagePut ( phost->os_event, USBH_CONTROL_EVENT, 0);
 709:Middlewares/ST/STM32_USB_Host_Library/Core/Src/usbh_ctlreq.c **** #endif      
 710:Middlewares/ST/STM32_USB_Host_Library/Core/Src/usbh_ctlreq.c ****     }
 711:Middlewares/ST/STM32_USB_Host_Library/Core/Src/usbh_ctlreq.c ****     
 712:Middlewares/ST/STM32_USB_Host_Library/Core/Src/usbh_ctlreq.c ****     /* handle error cases */
 713:Middlewares/ST/STM32_USB_Host_Library/Core/Src/usbh_ctlreq.c ****     else if  (URB_Status == USBH_URB_STALL) 
 714:Middlewares/ST/STM32_USB_Host_Library/Core/Src/usbh_ctlreq.c ****     { 
 715:Middlewares/ST/STM32_USB_Host_Library/Core/Src/usbh_ctlreq.c ****       /* In stall case, return to previous machine state*/
ARM GAS  /tmp/cc5NuF1o.s 			page 19


 716:Middlewares/ST/STM32_USB_Host_Library/Core/Src/usbh_ctlreq.c ****       phost->Control.state = CTRL_STALLED; 
 717:Middlewares/ST/STM32_USB_Host_Library/Core/Src/usbh_ctlreq.c ****       status = USBH_NOT_SUPPORTED;
 718:Middlewares/ST/STM32_USB_Host_Library/Core/Src/usbh_ctlreq.c **** #if (USBH_USE_OS == 1)
 719:Middlewares/ST/STM32_USB_Host_Library/Core/Src/usbh_ctlreq.c ****     osMessagePut ( phost->os_event, USBH_CONTROL_EVENT, 0);
 720:Middlewares/ST/STM32_USB_Host_Library/Core/Src/usbh_ctlreq.c **** #endif      
 721:Middlewares/ST/STM32_USB_Host_Library/Core/Src/usbh_ctlreq.c ****     } 
 722:Middlewares/ST/STM32_USB_Host_Library/Core/Src/usbh_ctlreq.c ****     else if  (URB_Status == USBH_URB_NOTREADY)
 723:Middlewares/ST/STM32_USB_Host_Library/Core/Src/usbh_ctlreq.c ****     { 
 724:Middlewares/ST/STM32_USB_Host_Library/Core/Src/usbh_ctlreq.c ****       /* Nack received from device */
 725:Middlewares/ST/STM32_USB_Host_Library/Core/Src/usbh_ctlreq.c ****       phost->Control.state = CTRL_DATA_OUT;
 726:Middlewares/ST/STM32_USB_Host_Library/Core/Src/usbh_ctlreq.c ****       
 727:Middlewares/ST/STM32_USB_Host_Library/Core/Src/usbh_ctlreq.c **** #if (USBH_USE_OS == 1)
 728:Middlewares/ST/STM32_USB_Host_Library/Core/Src/usbh_ctlreq.c ****     osMessagePut ( phost->os_event, USBH_CONTROL_EVENT, 0);
 729:Middlewares/ST/STM32_USB_Host_Library/Core/Src/usbh_ctlreq.c **** #endif      
 730:Middlewares/ST/STM32_USB_Host_Library/Core/Src/usbh_ctlreq.c ****     }    
 731:Middlewares/ST/STM32_USB_Host_Library/Core/Src/usbh_ctlreq.c ****     else if (URB_Status == USBH_URB_ERROR)
 732:Middlewares/ST/STM32_USB_Host_Library/Core/Src/usbh_ctlreq.c ****     {
 733:Middlewares/ST/STM32_USB_Host_Library/Core/Src/usbh_ctlreq.c ****       /* device error */
 734:Middlewares/ST/STM32_USB_Host_Library/Core/Src/usbh_ctlreq.c ****       phost->Control.state = CTRL_ERROR;  
 735:Middlewares/ST/STM32_USB_Host_Library/Core/Src/usbh_ctlreq.c ****       status = USBH_FAIL;    
 736:Middlewares/ST/STM32_USB_Host_Library/Core/Src/usbh_ctlreq.c ****       
 737:Middlewares/ST/STM32_USB_Host_Library/Core/Src/usbh_ctlreq.c **** #if (USBH_USE_OS == 1)
 738:Middlewares/ST/STM32_USB_Host_Library/Core/Src/usbh_ctlreq.c ****     osMessagePut ( phost->os_event, USBH_CONTROL_EVENT, 0);
 739:Middlewares/ST/STM32_USB_Host_Library/Core/Src/usbh_ctlreq.c **** #endif      
 740:Middlewares/ST/STM32_USB_Host_Library/Core/Src/usbh_ctlreq.c ****     } 
 741:Middlewares/ST/STM32_USB_Host_Library/Core/Src/usbh_ctlreq.c ****     break;
 742:Middlewares/ST/STM32_USB_Host_Library/Core/Src/usbh_ctlreq.c ****     
 743:Middlewares/ST/STM32_USB_Host_Library/Core/Src/usbh_ctlreq.c ****     
 744:Middlewares/ST/STM32_USB_Host_Library/Core/Src/usbh_ctlreq.c ****   case CTRL_STATUS_IN:
 745:Middlewares/ST/STM32_USB_Host_Library/Core/Src/usbh_ctlreq.c ****     /* Send 0 bytes out packet */
 746:Middlewares/ST/STM32_USB_Host_Library/Core/Src/usbh_ctlreq.c ****     USBH_CtlReceiveData (phost,
 747:Middlewares/ST/STM32_USB_Host_Library/Core/Src/usbh_ctlreq.c ****                          0,
 748:Middlewares/ST/STM32_USB_Host_Library/Core/Src/usbh_ctlreq.c ****                          0,
 749:Middlewares/ST/STM32_USB_Host_Library/Core/Src/usbh_ctlreq.c ****                          phost->Control.pipe_in);
 750:Middlewares/ST/STM32_USB_Host_Library/Core/Src/usbh_ctlreq.c ****     phost->Control.timer = phost->Timer;
 751:Middlewares/ST/STM32_USB_Host_Library/Core/Src/usbh_ctlreq.c ****     phost->Control.state = CTRL_STATUS_IN_WAIT;
 752:Middlewares/ST/STM32_USB_Host_Library/Core/Src/usbh_ctlreq.c ****     
 753:Middlewares/ST/STM32_USB_Host_Library/Core/Src/usbh_ctlreq.c ****     break;
 754:Middlewares/ST/STM32_USB_Host_Library/Core/Src/usbh_ctlreq.c ****     
 755:Middlewares/ST/STM32_USB_Host_Library/Core/Src/usbh_ctlreq.c ****   case CTRL_STATUS_IN_WAIT:
 756:Middlewares/ST/STM32_USB_Host_Library/Core/Src/usbh_ctlreq.c ****     
 757:Middlewares/ST/STM32_USB_Host_Library/Core/Src/usbh_ctlreq.c ****     URB_Status = USBH_LL_GetURBState(phost , phost->Control.pipe_in); 
 758:Middlewares/ST/STM32_USB_Host_Library/Core/Src/usbh_ctlreq.c ****     
 759:Middlewares/ST/STM32_USB_Host_Library/Core/Src/usbh_ctlreq.c ****     if  ( URB_Status == USBH_URB_DONE)
 760:Middlewares/ST/STM32_USB_Host_Library/Core/Src/usbh_ctlreq.c ****     { /* Control transfers completed, Exit the State Machine */
 761:Middlewares/ST/STM32_USB_Host_Library/Core/Src/usbh_ctlreq.c ****       phost->Control.state = CTRL_COMPLETE;
 762:Middlewares/ST/STM32_USB_Host_Library/Core/Src/usbh_ctlreq.c ****       status = USBH_OK;
 763:Middlewares/ST/STM32_USB_Host_Library/Core/Src/usbh_ctlreq.c **** #if (USBH_USE_OS == 1)
 764:Middlewares/ST/STM32_USB_Host_Library/Core/Src/usbh_ctlreq.c ****     osMessagePut ( phost->os_event, USBH_CONTROL_EVENT, 0);
 765:Middlewares/ST/STM32_USB_Host_Library/Core/Src/usbh_ctlreq.c **** #endif      
 766:Middlewares/ST/STM32_USB_Host_Library/Core/Src/usbh_ctlreq.c ****     }
 767:Middlewares/ST/STM32_USB_Host_Library/Core/Src/usbh_ctlreq.c ****     
 768:Middlewares/ST/STM32_USB_Host_Library/Core/Src/usbh_ctlreq.c ****     else if (URB_Status == USBH_URB_ERROR)
 769:Middlewares/ST/STM32_USB_Host_Library/Core/Src/usbh_ctlreq.c ****     {
 770:Middlewares/ST/STM32_USB_Host_Library/Core/Src/usbh_ctlreq.c ****       phost->Control.state = CTRL_ERROR;
 771:Middlewares/ST/STM32_USB_Host_Library/Core/Src/usbh_ctlreq.c **** #if (USBH_USE_OS == 1)
 772:Middlewares/ST/STM32_USB_Host_Library/Core/Src/usbh_ctlreq.c ****     osMessagePut ( phost->os_event, USBH_CONTROL_EVENT, 0);
ARM GAS  /tmp/cc5NuF1o.s 			page 20


 773:Middlewares/ST/STM32_USB_Host_Library/Core/Src/usbh_ctlreq.c **** #endif      
 774:Middlewares/ST/STM32_USB_Host_Library/Core/Src/usbh_ctlreq.c ****     }
 775:Middlewares/ST/STM32_USB_Host_Library/Core/Src/usbh_ctlreq.c ****      else if(URB_Status == USBH_URB_STALL)
 776:Middlewares/ST/STM32_USB_Host_Library/Core/Src/usbh_ctlreq.c ****     {
 777:Middlewares/ST/STM32_USB_Host_Library/Core/Src/usbh_ctlreq.c ****       /* Control transfers completed, Exit the State Machine */
 778:Middlewares/ST/STM32_USB_Host_Library/Core/Src/usbh_ctlreq.c ****       status = USBH_NOT_SUPPORTED;
 779:Middlewares/ST/STM32_USB_Host_Library/Core/Src/usbh_ctlreq.c ****       
 780:Middlewares/ST/STM32_USB_Host_Library/Core/Src/usbh_ctlreq.c **** #if (USBH_USE_OS == 1)
 781:Middlewares/ST/STM32_USB_Host_Library/Core/Src/usbh_ctlreq.c ****     osMessagePut ( phost->os_event, USBH_CONTROL_EVENT, 0);
 782:Middlewares/ST/STM32_USB_Host_Library/Core/Src/usbh_ctlreq.c **** #endif      
 783:Middlewares/ST/STM32_USB_Host_Library/Core/Src/usbh_ctlreq.c ****     }
 784:Middlewares/ST/STM32_USB_Host_Library/Core/Src/usbh_ctlreq.c ****     break;
 785:Middlewares/ST/STM32_USB_Host_Library/Core/Src/usbh_ctlreq.c ****     
 786:Middlewares/ST/STM32_USB_Host_Library/Core/Src/usbh_ctlreq.c ****   case CTRL_STATUS_OUT:
 787:Middlewares/ST/STM32_USB_Host_Library/Core/Src/usbh_ctlreq.c ****     USBH_CtlSendData (phost,
 788:Middlewares/ST/STM32_USB_Host_Library/Core/Src/usbh_ctlreq.c ****                       0,
 789:Middlewares/ST/STM32_USB_Host_Library/Core/Src/usbh_ctlreq.c ****                       0,
 790:Middlewares/ST/STM32_USB_Host_Library/Core/Src/usbh_ctlreq.c ****                       phost->Control.pipe_out,
 791:Middlewares/ST/STM32_USB_Host_Library/Core/Src/usbh_ctlreq.c ****                       1);
 792:Middlewares/ST/STM32_USB_Host_Library/Core/Src/usbh_ctlreq.c ****      phost->Control.timer = phost->Timer;
 793:Middlewares/ST/STM32_USB_Host_Library/Core/Src/usbh_ctlreq.c ****     phost->Control.state = CTRL_STATUS_OUT_WAIT;
 794:Middlewares/ST/STM32_USB_Host_Library/Core/Src/usbh_ctlreq.c ****     break;
 795:Middlewares/ST/STM32_USB_Host_Library/Core/Src/usbh_ctlreq.c ****     
 796:Middlewares/ST/STM32_USB_Host_Library/Core/Src/usbh_ctlreq.c ****   case CTRL_STATUS_OUT_WAIT: 
 797:Middlewares/ST/STM32_USB_Host_Library/Core/Src/usbh_ctlreq.c ****     
 798:Middlewares/ST/STM32_USB_Host_Library/Core/Src/usbh_ctlreq.c ****     URB_Status = USBH_LL_GetURBState(phost , phost->Control.pipe_out);  
 799:Middlewares/ST/STM32_USB_Host_Library/Core/Src/usbh_ctlreq.c ****     if  (URB_Status == USBH_URB_DONE)
 800:Middlewares/ST/STM32_USB_Host_Library/Core/Src/usbh_ctlreq.c ****     { 
 801:Middlewares/ST/STM32_USB_Host_Library/Core/Src/usbh_ctlreq.c ****       status = USBH_OK;      
 802:Middlewares/ST/STM32_USB_Host_Library/Core/Src/usbh_ctlreq.c ****       phost->Control.state = CTRL_COMPLETE; 
 803:Middlewares/ST/STM32_USB_Host_Library/Core/Src/usbh_ctlreq.c ****       
 804:Middlewares/ST/STM32_USB_Host_Library/Core/Src/usbh_ctlreq.c **** #if (USBH_USE_OS == 1)
 805:Middlewares/ST/STM32_USB_Host_Library/Core/Src/usbh_ctlreq.c ****     osMessagePut ( phost->os_event, USBH_CONTROL_EVENT, 0);
 806:Middlewares/ST/STM32_USB_Host_Library/Core/Src/usbh_ctlreq.c **** #endif      
 807:Middlewares/ST/STM32_USB_Host_Library/Core/Src/usbh_ctlreq.c ****     }
 808:Middlewares/ST/STM32_USB_Host_Library/Core/Src/usbh_ctlreq.c ****     else if  (URB_Status == USBH_URB_NOTREADY)
 809:Middlewares/ST/STM32_USB_Host_Library/Core/Src/usbh_ctlreq.c ****     { 
 810:Middlewares/ST/STM32_USB_Host_Library/Core/Src/usbh_ctlreq.c ****       phost->Control.state = CTRL_STATUS_OUT;
 811:Middlewares/ST/STM32_USB_Host_Library/Core/Src/usbh_ctlreq.c ****       
 812:Middlewares/ST/STM32_USB_Host_Library/Core/Src/usbh_ctlreq.c **** #if (USBH_USE_OS == 1)
 813:Middlewares/ST/STM32_USB_Host_Library/Core/Src/usbh_ctlreq.c ****     osMessagePut ( phost->os_event, USBH_CONTROL_EVENT, 0);
 814:Middlewares/ST/STM32_USB_Host_Library/Core/Src/usbh_ctlreq.c **** #endif      
 815:Middlewares/ST/STM32_USB_Host_Library/Core/Src/usbh_ctlreq.c ****     }      
 816:Middlewares/ST/STM32_USB_Host_Library/Core/Src/usbh_ctlreq.c ****     else if (URB_Status == USBH_URB_ERROR)
 817:Middlewares/ST/STM32_USB_Host_Library/Core/Src/usbh_ctlreq.c ****     {
 818:Middlewares/ST/STM32_USB_Host_Library/Core/Src/usbh_ctlreq.c ****       phost->Control.state = CTRL_ERROR; 
 819:Middlewares/ST/STM32_USB_Host_Library/Core/Src/usbh_ctlreq.c ****       
 820:Middlewares/ST/STM32_USB_Host_Library/Core/Src/usbh_ctlreq.c **** #if (USBH_USE_OS == 1)
 821:Middlewares/ST/STM32_USB_Host_Library/Core/Src/usbh_ctlreq.c ****     osMessagePut ( phost->os_event, USBH_CONTROL_EVENT, 0);
 822:Middlewares/ST/STM32_USB_Host_Library/Core/Src/usbh_ctlreq.c **** #endif      
 823:Middlewares/ST/STM32_USB_Host_Library/Core/Src/usbh_ctlreq.c ****     }
 824:Middlewares/ST/STM32_USB_Host_Library/Core/Src/usbh_ctlreq.c ****     break;
 825:Middlewares/ST/STM32_USB_Host_Library/Core/Src/usbh_ctlreq.c ****     
 826:Middlewares/ST/STM32_USB_Host_Library/Core/Src/usbh_ctlreq.c ****   case CTRL_ERROR:
 827:Middlewares/ST/STM32_USB_Host_Library/Core/Src/usbh_ctlreq.c ****     /* 
 828:Middlewares/ST/STM32_USB_Host_Library/Core/Src/usbh_ctlreq.c ****     After a halt condition is encountered or an error is detected by the 
 829:Middlewares/ST/STM32_USB_Host_Library/Core/Src/usbh_ctlreq.c ****     host, a control endpoint is allowed to recover by accepting the next Setup 
ARM GAS  /tmp/cc5NuF1o.s 			page 21


 830:Middlewares/ST/STM32_USB_Host_Library/Core/Src/usbh_ctlreq.c ****     PID; i.e., recovery actions via some other pipe are not required for control
 831:Middlewares/ST/STM32_USB_Host_Library/Core/Src/usbh_ctlreq.c ****     endpoints. For the Default Control Pipe, a device reset will ultimately be 
 832:Middlewares/ST/STM32_USB_Host_Library/Core/Src/usbh_ctlreq.c ****     required to clear the halt or error condition if the next Setup PID is not 
 833:Middlewares/ST/STM32_USB_Host_Library/Core/Src/usbh_ctlreq.c ****     accepted.
 834:Middlewares/ST/STM32_USB_Host_Library/Core/Src/usbh_ctlreq.c ****     */
 835:Middlewares/ST/STM32_USB_Host_Library/Core/Src/usbh_ctlreq.c ****     if (++ phost->Control.errorcount <= USBH_MAX_ERROR_COUNT)
 836:Middlewares/ST/STM32_USB_Host_Library/Core/Src/usbh_ctlreq.c ****     {
 837:Middlewares/ST/STM32_USB_Host_Library/Core/Src/usbh_ctlreq.c ****       /* try to recover control */
 838:Middlewares/ST/STM32_USB_Host_Library/Core/Src/usbh_ctlreq.c ****       USBH_LL_Stop(phost);
 839:Middlewares/ST/STM32_USB_Host_Library/Core/Src/usbh_ctlreq.c ****          
 840:Middlewares/ST/STM32_USB_Host_Library/Core/Src/usbh_ctlreq.c ****       /* Do the transmission again, starting from SETUP Packet */
 841:Middlewares/ST/STM32_USB_Host_Library/Core/Src/usbh_ctlreq.c ****       phost->Control.state = CTRL_SETUP; 
 842:Middlewares/ST/STM32_USB_Host_Library/Core/Src/usbh_ctlreq.c ****       phost->RequestState = CMD_SEND;
 843:Middlewares/ST/STM32_USB_Host_Library/Core/Src/usbh_ctlreq.c ****     }
 844:Middlewares/ST/STM32_USB_Host_Library/Core/Src/usbh_ctlreq.c ****     else
 845:Middlewares/ST/STM32_USB_Host_Library/Core/Src/usbh_ctlreq.c ****     {
 846:Middlewares/ST/STM32_USB_Host_Library/Core/Src/usbh_ctlreq.c ****       phost->pUser(phost, HOST_USER_UNRECOVERED_ERROR);
 847:Middlewares/ST/STM32_USB_Host_Library/Core/Src/usbh_ctlreq.c ****       phost->Control.errorcount = 0;
 848:Middlewares/ST/STM32_USB_Host_Library/Core/Src/usbh_ctlreq.c ****       USBH_ErrLog("Control error");
 849:Middlewares/ST/STM32_USB_Host_Library/Core/Src/usbh_ctlreq.c ****       status = USBH_FAIL;
 850:Middlewares/ST/STM32_USB_Host_Library/Core/Src/usbh_ctlreq.c ****     }
 851:Middlewares/ST/STM32_USB_Host_Library/Core/Src/usbh_ctlreq.c ****     break;
 852:Middlewares/ST/STM32_USB_Host_Library/Core/Src/usbh_ctlreq.c ****     
 853:Middlewares/ST/STM32_USB_Host_Library/Core/Src/usbh_ctlreq.c ****   default:
 854:Middlewares/ST/STM32_USB_Host_Library/Core/Src/usbh_ctlreq.c ****     break;
 855:Middlewares/ST/STM32_USB_Host_Library/Core/Src/usbh_ctlreq.c ****   }
 856:Middlewares/ST/STM32_USB_Host_Library/Core/Src/usbh_ctlreq.c ****   return status;
 857:Middlewares/ST/STM32_USB_Host_Library/Core/Src/usbh_ctlreq.c **** }
 317              		.loc 1 857 0
 318 003a 03B0     		add	sp, sp, #12
 319              	.LCFI6:
 320              		.cfi_remember_state
 321              		.cfi_def_cfa_offset 12
 322              		@ sp needed
 323 003c 30BD     		pop	{r4, r5, pc}
 324              	.LVL17:
 325              	.L22:
 326              	.LCFI7:
 327              		.cfi_restore_state
 598:Middlewares/ST/STM32_USB_Host_Library/Core/Src/usbh_ctlreq.c ****     /* case SETUP packet sent successfully */
 328              		.loc 1 598 0
 329 003e 4179     		ldrb	r1, [r0, #5]	@ zero_extendqisi2
 330 0040 FFF7FEFF 		bl	USBH_LL_GetURBState
 331              	.LVL18:
 600:Middlewares/ST/STM32_USB_Host_Library/Core/Src/usbh_ctlreq.c ****     { 
 332              		.loc 1 600 0
 333 0044 0128     		cmp	r0, #1
 334 0046 03D0     		beq	.L54
 637:Middlewares/ST/STM32_USB_Host_Library/Core/Src/usbh_ctlreq.c ****     {
 335              		.loc 1 637 0
 336 0048 0428     		cmp	r0, #4
 337 004a 1DD0     		beq	.L55
 582:Middlewares/ST/STM32_USB_Host_Library/Core/Src/usbh_ctlreq.c ****   USBH_URBStateTypeDef URB_Status = USBH_URB_IDLE;
 338              		.loc 1 582 0
 339 004c 0120     		movs	r0, #1
 340              	.LVL19:
 341 004e F4E7     		b	.L19
ARM GAS  /tmp/cc5NuF1o.s 			page 22


 342              	.LVL20:
 343              	.L54:
 602:Middlewares/ST/STM32_USB_Host_Library/Core/Src/usbh_ctlreq.c ****       
 344              		.loc 1 602 0
 345 0050 237C     		ldrb	r3, [r4, #16]	@ zero_extendqisi2
 346              	.LVL21:
 605:Middlewares/ST/STM32_USB_Host_Library/Core/Src/usbh_ctlreq.c ****       {        
 347              		.loc 1 605 0
 348 0052 E28A     		ldrh	r2, [r4, #22]
 349 0054 7AB1     		cbz	r2, .L33
 607:Middlewares/ST/STM32_USB_Host_Library/Core/Src/usbh_ctlreq.c ****         {
 350              		.loc 1 607 0
 351 0056 13F0800F 		tst	r3, #128
 352 005a 09D1     		bne	.L56
 615:Middlewares/ST/STM32_USB_Host_Library/Core/Src/usbh_ctlreq.c ****         } 
 353              		.loc 1 615 0
 354 005c 0523     		movs	r3, #5
 355              	.LVL22:
 356 005e 2376     		strb	r3, [r4, #24]
 357              	.L35:
 634:Middlewares/ST/STM32_USB_Host_Library/Core/Src/usbh_ctlreq.c **** #endif
 358              		.loc 1 634 0
 359 0060 0022     		movs	r2, #0
 360 0062 0321     		movs	r1, #3
 361 0064 D4F8C803 		ldr	r0, [r4, #968]
 362              	.LVL23:
 363 0068 FFF7FEFF 		bl	osMessagePut
 364              	.LVL24:
 582:Middlewares/ST/STM32_USB_Host_Library/Core/Src/usbh_ctlreq.c ****   USBH_URBStateTypeDef URB_Status = USBH_URB_IDLE;
 365              		.loc 1 582 0
 366 006c 0120     		movs	r0, #1
 367 006e E4E7     		b	.L19
 368              	.LVL25:
 369              	.L56:
 610:Middlewares/ST/STM32_USB_Host_Library/Core/Src/usbh_ctlreq.c ****         }
 370              		.loc 1 610 0
 371 0070 0323     		movs	r3, #3
 372              	.LVL26:
 373 0072 2376     		strb	r3, [r4, #24]
 374 0074 F4E7     		b	.L35
 375              	.LVL27:
 376              	.L33:
 622:Middlewares/ST/STM32_USB_Host_Library/Core/Src/usbh_ctlreq.c ****         {
 377              		.loc 1 622 0
 378 0076 13F0800F 		tst	r3, #128
 379 007a 02D1     		bne	.L57
 630:Middlewares/ST/STM32_USB_Host_Library/Core/Src/usbh_ctlreq.c ****         } 
 380              		.loc 1 630 0
 381 007c 0723     		movs	r3, #7
 382              	.LVL28:
 383 007e 2376     		strb	r3, [r4, #24]
 384 0080 EEE7     		b	.L35
 385              	.LVL29:
 386              	.L57:
 625:Middlewares/ST/STM32_USB_Host_Library/Core/Src/usbh_ctlreq.c ****         }
 387              		.loc 1 625 0
 388 0082 0923     		movs	r3, #9
ARM GAS  /tmp/cc5NuF1o.s 			page 23


 389              	.LVL30:
 390 0084 2376     		strb	r3, [r4, #24]
 391 0086 EBE7     		b	.L35
 392              	.LVL31:
 393              	.L55:
 639:Middlewares/ST/STM32_USB_Host_Library/Core/Src/usbh_ctlreq.c **** #if (USBH_USE_OS == 1)
 394              		.loc 1 639 0
 395 0088 0B23     		movs	r3, #11
 396 008a 2376     		strb	r3, [r4, #24]
 641:Middlewares/ST/STM32_USB_Host_Library/Core/Src/usbh_ctlreq.c **** #endif      
 397              		.loc 1 641 0
 398 008c 0022     		movs	r2, #0
 399 008e 0321     		movs	r1, #3
 400 0090 D4F8C803 		ldr	r0, [r4, #968]
 401              	.LVL32:
 402 0094 FFF7FEFF 		bl	osMessagePut
 403              	.LVL33:
 582:Middlewares/ST/STM32_USB_Host_Library/Core/Src/usbh_ctlreq.c ****   USBH_URBStateTypeDef URB_Status = USBH_URB_IDLE;
 404              		.loc 1 582 0
 405 0098 0120     		movs	r0, #1
 406 009a CEE7     		b	.L19
 407              	.LVL34:
 408              	.L23:
 648:Middlewares/ST/STM32_USB_Host_Library/Core/Src/usbh_ctlreq.c ****     USBH_CtlReceiveData(phost,
 409              		.loc 1 648 0
 410 009c D0F8B833 		ldr	r3, [r0, #952]
 411 00a0 C381     		strh	r3, [r0, #14]	@ movhi
 649:Middlewares/ST/STM32_USB_Host_Library/Core/Src/usbh_ctlreq.c ****                         phost->Control.buff, 
 412              		.loc 1 649 0
 413 00a2 0379     		ldrb	r3, [r0, #4]	@ zero_extendqisi2
 414 00a4 8289     		ldrh	r2, [r0, #12]
 415 00a6 8168     		ldr	r1, [r0, #8]
 416 00a8 FFF7FEFF 		bl	USBH_CtlReceiveData
 417              	.LVL35:
 654:Middlewares/ST/STM32_USB_Host_Library/Core/Src/usbh_ctlreq.c ****     break;    
 418              		.loc 1 654 0
 419 00ac 0423     		movs	r3, #4
 420 00ae 2376     		strb	r3, [r4, #24]
 582:Middlewares/ST/STM32_USB_Host_Library/Core/Src/usbh_ctlreq.c ****   USBH_URBStateTypeDef URB_Status = USBH_URB_IDLE;
 421              		.loc 1 582 0
 422 00b0 0120     		movs	r0, #1
 655:Middlewares/ST/STM32_USB_Host_Library/Core/Src/usbh_ctlreq.c ****     
 423              		.loc 1 655 0
 424 00b2 C2E7     		b	.L19
 425              	.LVL36:
 426              	.L24:
 659:Middlewares/ST/STM32_USB_Host_Library/Core/Src/usbh_ctlreq.c ****     
 427              		.loc 1 659 0
 428 00b4 0179     		ldrb	r1, [r0, #4]	@ zero_extendqisi2
 429 00b6 FFF7FEFF 		bl	USBH_LL_GetURBState
 430              	.LVL37:
 431 00ba 0546     		mov	r5, r0
 432              	.LVL38:
 662:Middlewares/ST/STM32_USB_Host_Library/Core/Src/usbh_ctlreq.c ****     { 
 433              		.loc 1 662 0
 434 00bc 0128     		cmp	r0, #1
 435 00be 05D0     		beq	.L58
ARM GAS  /tmp/cc5NuF1o.s 			page 24


 436              	.LVL39:
 437              	.L37:
 671:Middlewares/ST/STM32_USB_Host_Library/Core/Src/usbh_ctlreq.c ****     { 
 438              		.loc 1 671 0
 439 00c0 052D     		cmp	r5, #5
 440 00c2 0CD0     		beq	.L59
 679:Middlewares/ST/STM32_USB_Host_Library/Core/Src/usbh_ctlreq.c ****     {
 441              		.loc 1 679 0
 442 00c4 042D     		cmp	r5, #4
 443 00c6 12D0     		beq	.L60
 582:Middlewares/ST/STM32_USB_Host_Library/Core/Src/usbh_ctlreq.c ****   USBH_URBStateTypeDef URB_Status = USBH_URB_IDLE;
 444              		.loc 1 582 0
 445 00c8 0120     		movs	r0, #1
 446 00ca B6E7     		b	.L19
 447              	.LVL40:
 448              	.L58:
 664:Middlewares/ST/STM32_USB_Host_Library/Core/Src/usbh_ctlreq.c **** #if (USBH_USE_OS == 1)
 449              		.loc 1 664 0
 450 00cc 0923     		movs	r3, #9
 451 00ce 2376     		strb	r3, [r4, #24]
 666:Middlewares/ST/STM32_USB_Host_Library/Core/Src/usbh_ctlreq.c **** #endif      
 452              		.loc 1 666 0
 453 00d0 0022     		movs	r2, #0
 454 00d2 0321     		movs	r1, #3
 455 00d4 D4F8C803 		ldr	r0, [r4, #968]
 456              	.LVL41:
 457 00d8 FFF7FEFF 		bl	osMessagePut
 458              	.LVL42:
 459 00dc F0E7     		b	.L37
 460              	.L59:
 461              	.LVL43:
 676:Middlewares/ST/STM32_USB_Host_Library/Core/Src/usbh_ctlreq.c **** #endif      
 462              		.loc 1 676 0
 463 00de 0022     		movs	r2, #0
 464 00e0 0321     		movs	r1, #3
 465 00e2 D4F8C803 		ldr	r0, [r4, #968]
 466 00e6 FFF7FEFF 		bl	osMessagePut
 467              	.LVL44:
 674:Middlewares/ST/STM32_USB_Host_Library/Core/Src/usbh_ctlreq.c **** #if (USBH_USE_OS == 1)
 468              		.loc 1 674 0
 469 00ea 0320     		movs	r0, #3
 470 00ec A5E7     		b	.L19
 471              	.LVL45:
 472              	.L60:
 682:Middlewares/ST/STM32_USB_Host_Library/Core/Src/usbh_ctlreq.c **** #if (USBH_USE_OS == 1)
 473              		.loc 1 682 0
 474 00ee 0B23     		movs	r3, #11
 475 00f0 2376     		strb	r3, [r4, #24]
 684:Middlewares/ST/STM32_USB_Host_Library/Core/Src/usbh_ctlreq.c **** #endif      
 476              		.loc 1 684 0
 477 00f2 0022     		movs	r2, #0
 478 00f4 0321     		movs	r1, #3
 479 00f6 D4F8C803 		ldr	r0, [r4, #968]
 480 00fa FFF7FEFF 		bl	osMessagePut
 481              	.LVL46:
 582:Middlewares/ST/STM32_USB_Host_Library/Core/Src/usbh_ctlreq.c ****   USBH_URBStateTypeDef URB_Status = USBH_URB_IDLE;
 482              		.loc 1 582 0
ARM GAS  /tmp/cc5NuF1o.s 			page 25


 483 00fe 0120     		movs	r0, #1
 484 0100 9BE7     		b	.L19
 485              	.LVL47:
 486              	.L25:
 691:Middlewares/ST/STM32_USB_Host_Library/Core/Src/usbh_ctlreq.c ****                       phost->Control.buff, 
 487              		.loc 1 691 0
 488 0102 4379     		ldrb	r3, [r0, #5]	@ zero_extendqisi2
 489 0104 8289     		ldrh	r2, [r0, #12]
 490 0106 0125     		movs	r5, #1
 491 0108 0095     		str	r5, [sp]
 492 010a 8168     		ldr	r1, [r0, #8]
 493 010c FFF7FEFF 		bl	USBH_CtlSendData
 494              	.LVL48:
 696:Middlewares/ST/STM32_USB_Host_Library/Core/Src/usbh_ctlreq.c ****     phost->Control.state = CTRL_DATA_OUT_WAIT;
 495              		.loc 1 696 0
 496 0110 D4F8B833 		ldr	r3, [r4, #952]
 497 0114 E381     		strh	r3, [r4, #14]	@ movhi
 697:Middlewares/ST/STM32_USB_Host_Library/Core/Src/usbh_ctlreq.c ****     break;
 498              		.loc 1 697 0
 499 0116 0623     		movs	r3, #6
 500 0118 2376     		strb	r3, [r4, #24]
 582:Middlewares/ST/STM32_USB_Host_Library/Core/Src/usbh_ctlreq.c ****   USBH_URBStateTypeDef URB_Status = USBH_URB_IDLE;
 501              		.loc 1 582 0
 502 011a 2846     		mov	r0, r5
 698:Middlewares/ST/STM32_USB_Host_Library/Core/Src/usbh_ctlreq.c ****     
 503              		.loc 1 698 0
 504 011c 8DE7     		b	.L19
 505              	.LVL49:
 506              	.L26:
 702:Middlewares/ST/STM32_USB_Host_Library/Core/Src/usbh_ctlreq.c ****     
 507              		.loc 1 702 0
 508 011e 4179     		ldrb	r1, [r0, #5]	@ zero_extendqisi2
 509 0120 FFF7FEFF 		bl	USBH_LL_GetURBState
 510              	.LVL50:
 704:Middlewares/ST/STM32_USB_Host_Library/Core/Src/usbh_ctlreq.c ****     { /* If the Setup Pkt is sent successful, then change the state */
 511              		.loc 1 704 0
 512 0124 0128     		cmp	r0, #1
 513 0126 07D0     		beq	.L61
 713:Middlewares/ST/STM32_USB_Host_Library/Core/Src/usbh_ctlreq.c ****     { 
 514              		.loc 1 713 0
 515 0128 0528     		cmp	r0, #5
 516 012a 0FD0     		beq	.L62
 722:Middlewares/ST/STM32_USB_Host_Library/Core/Src/usbh_ctlreq.c ****     { 
 517              		.loc 1 722 0
 518 012c 0228     		cmp	r0, #2
 519 012e 17D0     		beq	.L63
 731:Middlewares/ST/STM32_USB_Host_Library/Core/Src/usbh_ctlreq.c ****     {
 520              		.loc 1 731 0
 521 0130 0428     		cmp	r0, #4
 522 0132 1FD0     		beq	.L64
 582:Middlewares/ST/STM32_USB_Host_Library/Core/Src/usbh_ctlreq.c ****   USBH_URBStateTypeDef URB_Status = USBH_URB_IDLE;
 523              		.loc 1 582 0
 524 0134 0120     		movs	r0, #1
 525              	.LVL51:
 526 0136 80E7     		b	.L19
 527              	.LVL52:
 528              	.L61:
ARM GAS  /tmp/cc5NuF1o.s 			page 26


 706:Middlewares/ST/STM32_USB_Host_Library/Core/Src/usbh_ctlreq.c **** #if (USBH_USE_OS == 1)
 529              		.loc 1 706 0
 530 0138 0723     		movs	r3, #7
 531 013a 2376     		strb	r3, [r4, #24]
 708:Middlewares/ST/STM32_USB_Host_Library/Core/Src/usbh_ctlreq.c **** #endif      
 532              		.loc 1 708 0
 533 013c 0022     		movs	r2, #0
 534 013e 0321     		movs	r1, #3
 535 0140 D4F8C803 		ldr	r0, [r4, #968]
 536              	.LVL53:
 537 0144 FFF7FEFF 		bl	osMessagePut
 538              	.LVL54:
 582:Middlewares/ST/STM32_USB_Host_Library/Core/Src/usbh_ctlreq.c ****   USBH_URBStateTypeDef URB_Status = USBH_URB_IDLE;
 539              		.loc 1 582 0
 540 0148 0120     		movs	r0, #1
 541 014a 76E7     		b	.L19
 542              	.LVL55:
 543              	.L62:
 716:Middlewares/ST/STM32_USB_Host_Library/Core/Src/usbh_ctlreq.c ****       status = USBH_NOT_SUPPORTED;
 544              		.loc 1 716 0
 545 014c 0C23     		movs	r3, #12
 546 014e 2376     		strb	r3, [r4, #24]
 547              	.LVL56:
 719:Middlewares/ST/STM32_USB_Host_Library/Core/Src/usbh_ctlreq.c **** #endif      
 548              		.loc 1 719 0
 549 0150 0022     		movs	r2, #0
 550 0152 0321     		movs	r1, #3
 551 0154 D4F8C803 		ldr	r0, [r4, #968]
 552              	.LVL57:
 553 0158 FFF7FEFF 		bl	osMessagePut
 554              	.LVL58:
 717:Middlewares/ST/STM32_USB_Host_Library/Core/Src/usbh_ctlreq.c **** #if (USBH_USE_OS == 1)
 555              		.loc 1 717 0
 556 015c 0320     		movs	r0, #3
 557 015e 6CE7     		b	.L19
 558              	.LVL59:
 559              	.L63:
 725:Middlewares/ST/STM32_USB_Host_Library/Core/Src/usbh_ctlreq.c ****       
 560              		.loc 1 725 0
 561 0160 0523     		movs	r3, #5
 562 0162 2376     		strb	r3, [r4, #24]
 728:Middlewares/ST/STM32_USB_Host_Library/Core/Src/usbh_ctlreq.c **** #endif      
 563              		.loc 1 728 0
 564 0164 0022     		movs	r2, #0
 565 0166 0321     		movs	r1, #3
 566 0168 D4F8C803 		ldr	r0, [r4, #968]
 567              	.LVL60:
 568 016c FFF7FEFF 		bl	osMessagePut
 569              	.LVL61:
 582:Middlewares/ST/STM32_USB_Host_Library/Core/Src/usbh_ctlreq.c ****   USBH_URBStateTypeDef URB_Status = USBH_URB_IDLE;
 570              		.loc 1 582 0
 571 0170 0120     		movs	r0, #1
 572 0172 62E7     		b	.L19
 573              	.LVL62:
 574              	.L64:
 734:Middlewares/ST/STM32_USB_Host_Library/Core/Src/usbh_ctlreq.c ****       status = USBH_FAIL;    
 575              		.loc 1 734 0
ARM GAS  /tmp/cc5NuF1o.s 			page 27


 576 0174 0B23     		movs	r3, #11
 577 0176 2376     		strb	r3, [r4, #24]
 578              	.LVL63:
 738:Middlewares/ST/STM32_USB_Host_Library/Core/Src/usbh_ctlreq.c **** #endif      
 579              		.loc 1 738 0
 580 0178 0022     		movs	r2, #0
 581 017a 0321     		movs	r1, #3
 582 017c D4F8C803 		ldr	r0, [r4, #968]
 583              	.LVL64:
 584 0180 FFF7FEFF 		bl	osMessagePut
 585              	.LVL65:
 735:Middlewares/ST/STM32_USB_Host_Library/Core/Src/usbh_ctlreq.c ****       
 586              		.loc 1 735 0
 587 0184 0220     		movs	r0, #2
 588 0186 58E7     		b	.L19
 589              	.LVL66:
 590              	.L27:
 746:Middlewares/ST/STM32_USB_Host_Library/Core/Src/usbh_ctlreq.c ****                          0,
 591              		.loc 1 746 0
 592 0188 0379     		ldrb	r3, [r0, #4]	@ zero_extendqisi2
 593 018a 0022     		movs	r2, #0
 594 018c 1146     		mov	r1, r2
 595 018e FFF7FEFF 		bl	USBH_CtlReceiveData
 596              	.LVL67:
 750:Middlewares/ST/STM32_USB_Host_Library/Core/Src/usbh_ctlreq.c ****     phost->Control.state = CTRL_STATUS_IN_WAIT;
 597              		.loc 1 750 0
 598 0192 D4F8B833 		ldr	r3, [r4, #952]
 599 0196 E381     		strh	r3, [r4, #14]	@ movhi
 751:Middlewares/ST/STM32_USB_Host_Library/Core/Src/usbh_ctlreq.c ****     
 600              		.loc 1 751 0
 601 0198 0823     		movs	r3, #8
 602 019a 2376     		strb	r3, [r4, #24]
 582:Middlewares/ST/STM32_USB_Host_Library/Core/Src/usbh_ctlreq.c ****   USBH_URBStateTypeDef URB_Status = USBH_URB_IDLE;
 603              		.loc 1 582 0
 604 019c 0120     		movs	r0, #1
 753:Middlewares/ST/STM32_USB_Host_Library/Core/Src/usbh_ctlreq.c ****     
 605              		.loc 1 753 0
 606 019e 4CE7     		b	.L19
 607              	.LVL68:
 608              	.L28:
 757:Middlewares/ST/STM32_USB_Host_Library/Core/Src/usbh_ctlreq.c ****     
 609              		.loc 1 757 0
 610 01a0 0179     		ldrb	r1, [r0, #4]	@ zero_extendqisi2
 611 01a2 FFF7FEFF 		bl	USBH_LL_GetURBState
 612              	.LVL69:
 759:Middlewares/ST/STM32_USB_Host_Library/Core/Src/usbh_ctlreq.c ****     { /* Control transfers completed, Exit the State Machine */
 613              		.loc 1 759 0
 614 01a6 0128     		cmp	r0, #1
 615 01a8 05D0     		beq	.L65
 768:Middlewares/ST/STM32_USB_Host_Library/Core/Src/usbh_ctlreq.c ****     {
 616              		.loc 1 768 0
 617 01aa 0428     		cmp	r0, #4
 618 01ac 0DD0     		beq	.L66
 775:Middlewares/ST/STM32_USB_Host_Library/Core/Src/usbh_ctlreq.c ****     {
 619              		.loc 1 775 0
 620 01ae 0528     		cmp	r0, #5
 621 01b0 15D0     		beq	.L67
ARM GAS  /tmp/cc5NuF1o.s 			page 28


 582:Middlewares/ST/STM32_USB_Host_Library/Core/Src/usbh_ctlreq.c ****   USBH_URBStateTypeDef URB_Status = USBH_URB_IDLE;
 622              		.loc 1 582 0
 623 01b2 0120     		movs	r0, #1
 624              	.LVL70:
 625 01b4 41E7     		b	.L19
 626              	.LVL71:
 627              	.L65:
 761:Middlewares/ST/STM32_USB_Host_Library/Core/Src/usbh_ctlreq.c ****       status = USBH_OK;
 628              		.loc 1 761 0
 629 01b6 0D23     		movs	r3, #13
 630 01b8 2376     		strb	r3, [r4, #24]
 631              	.LVL72:
 764:Middlewares/ST/STM32_USB_Host_Library/Core/Src/usbh_ctlreq.c **** #endif      
 632              		.loc 1 764 0
 633 01ba 0022     		movs	r2, #0
 634 01bc 0321     		movs	r1, #3
 635 01be D4F8C803 		ldr	r0, [r4, #968]
 636              	.LVL73:
 637 01c2 FFF7FEFF 		bl	osMessagePut
 638              	.LVL74:
 762:Middlewares/ST/STM32_USB_Host_Library/Core/Src/usbh_ctlreq.c **** #if (USBH_USE_OS == 1)
 639              		.loc 1 762 0
 640 01c6 0020     		movs	r0, #0
 641 01c8 37E7     		b	.L19
 642              	.LVL75:
 643              	.L66:
 770:Middlewares/ST/STM32_USB_Host_Library/Core/Src/usbh_ctlreq.c **** #if (USBH_USE_OS == 1)
 644              		.loc 1 770 0
 645 01ca 0B23     		movs	r3, #11
 646 01cc 2376     		strb	r3, [r4, #24]
 772:Middlewares/ST/STM32_USB_Host_Library/Core/Src/usbh_ctlreq.c **** #endif      
 647              		.loc 1 772 0
 648 01ce 0022     		movs	r2, #0
 649 01d0 0321     		movs	r1, #3
 650 01d2 D4F8C803 		ldr	r0, [r4, #968]
 651              	.LVL76:
 652 01d6 FFF7FEFF 		bl	osMessagePut
 653              	.LVL77:
 582:Middlewares/ST/STM32_USB_Host_Library/Core/Src/usbh_ctlreq.c ****   USBH_URBStateTypeDef URB_Status = USBH_URB_IDLE;
 654              		.loc 1 582 0
 655 01da 0120     		movs	r0, #1
 656 01dc 2DE7     		b	.L19
 657              	.LVL78:
 658              	.L67:
 781:Middlewares/ST/STM32_USB_Host_Library/Core/Src/usbh_ctlreq.c **** #endif      
 659              		.loc 1 781 0
 660 01de 0022     		movs	r2, #0
 661 01e0 0321     		movs	r1, #3
 662 01e2 D4F8C803 		ldr	r0, [r4, #968]
 663              	.LVL79:
 664 01e6 FFF7FEFF 		bl	osMessagePut
 665              	.LVL80:
 778:Middlewares/ST/STM32_USB_Host_Library/Core/Src/usbh_ctlreq.c ****       
 666              		.loc 1 778 0
 667 01ea 0320     		movs	r0, #3
 668 01ec 25E7     		b	.L19
 669              	.LVL81:
ARM GAS  /tmp/cc5NuF1o.s 			page 29


 670              	.L29:
 787:Middlewares/ST/STM32_USB_Host_Library/Core/Src/usbh_ctlreq.c ****                       0,
 671              		.loc 1 787 0
 672 01ee 4379     		ldrb	r3, [r0, #5]	@ zero_extendqisi2
 673 01f0 0125     		movs	r5, #1
 674 01f2 0095     		str	r5, [sp]
 675 01f4 0022     		movs	r2, #0
 676 01f6 1146     		mov	r1, r2
 677 01f8 FFF7FEFF 		bl	USBH_CtlSendData
 678              	.LVL82:
 792:Middlewares/ST/STM32_USB_Host_Library/Core/Src/usbh_ctlreq.c ****     phost->Control.state = CTRL_STATUS_OUT_WAIT;
 679              		.loc 1 792 0
 680 01fc D4F8B833 		ldr	r3, [r4, #952]
 681 0200 E381     		strh	r3, [r4, #14]	@ movhi
 793:Middlewares/ST/STM32_USB_Host_Library/Core/Src/usbh_ctlreq.c ****     break;
 682              		.loc 1 793 0
 683 0202 0A23     		movs	r3, #10
 684 0204 2376     		strb	r3, [r4, #24]
 582:Middlewares/ST/STM32_USB_Host_Library/Core/Src/usbh_ctlreq.c ****   USBH_URBStateTypeDef URB_Status = USBH_URB_IDLE;
 685              		.loc 1 582 0
 686 0206 2846     		mov	r0, r5
 794:Middlewares/ST/STM32_USB_Host_Library/Core/Src/usbh_ctlreq.c ****     
 687              		.loc 1 794 0
 688 0208 17E7     		b	.L19
 689              	.LVL83:
 690              	.L30:
 798:Middlewares/ST/STM32_USB_Host_Library/Core/Src/usbh_ctlreq.c ****     if  (URB_Status == USBH_URB_DONE)
 691              		.loc 1 798 0
 692 020a 4179     		ldrb	r1, [r0, #5]	@ zero_extendqisi2
 693 020c FFF7FEFF 		bl	USBH_LL_GetURBState
 694              	.LVL84:
 799:Middlewares/ST/STM32_USB_Host_Library/Core/Src/usbh_ctlreq.c ****     { 
 695              		.loc 1 799 0
 696 0210 0128     		cmp	r0, #1
 697 0212 05D0     		beq	.L68
 808:Middlewares/ST/STM32_USB_Host_Library/Core/Src/usbh_ctlreq.c ****     { 
 698              		.loc 1 808 0
 699 0214 0228     		cmp	r0, #2
 700 0216 0DD0     		beq	.L69
 816:Middlewares/ST/STM32_USB_Host_Library/Core/Src/usbh_ctlreq.c ****     {
 701              		.loc 1 816 0
 702 0218 0428     		cmp	r0, #4
 703 021a 15D0     		beq	.L70
 582:Middlewares/ST/STM32_USB_Host_Library/Core/Src/usbh_ctlreq.c ****   USBH_URBStateTypeDef URB_Status = USBH_URB_IDLE;
 704              		.loc 1 582 0
 705 021c 0120     		movs	r0, #1
 706              	.LVL85:
 707 021e 0CE7     		b	.L19
 708              	.LVL86:
 709              	.L68:
 802:Middlewares/ST/STM32_USB_Host_Library/Core/Src/usbh_ctlreq.c ****       
 710              		.loc 1 802 0
 711 0220 0D23     		movs	r3, #13
 712 0222 2376     		strb	r3, [r4, #24]
 805:Middlewares/ST/STM32_USB_Host_Library/Core/Src/usbh_ctlreq.c **** #endif      
 713              		.loc 1 805 0
 714 0224 0022     		movs	r2, #0
ARM GAS  /tmp/cc5NuF1o.s 			page 30


 715 0226 0321     		movs	r1, #3
 716 0228 D4F8C803 		ldr	r0, [r4, #968]
 717              	.LVL87:
 718 022c FFF7FEFF 		bl	osMessagePut
 719              	.LVL88:
 801:Middlewares/ST/STM32_USB_Host_Library/Core/Src/usbh_ctlreq.c ****       phost->Control.state = CTRL_COMPLETE; 
 720              		.loc 1 801 0
 721 0230 0020     		movs	r0, #0
 722 0232 02E7     		b	.L19
 723              	.LVL89:
 724              	.L69:
 810:Middlewares/ST/STM32_USB_Host_Library/Core/Src/usbh_ctlreq.c ****       
 725              		.loc 1 810 0
 726 0234 0923     		movs	r3, #9
 727 0236 2376     		strb	r3, [r4, #24]
 813:Middlewares/ST/STM32_USB_Host_Library/Core/Src/usbh_ctlreq.c **** #endif      
 728              		.loc 1 813 0
 729 0238 0022     		movs	r2, #0
 730 023a 0321     		movs	r1, #3
 731 023c D4F8C803 		ldr	r0, [r4, #968]
 732              	.LVL90:
 733 0240 FFF7FEFF 		bl	osMessagePut
 734              	.LVL91:
 582:Middlewares/ST/STM32_USB_Host_Library/Core/Src/usbh_ctlreq.c ****   USBH_URBStateTypeDef URB_Status = USBH_URB_IDLE;
 735              		.loc 1 582 0
 736 0244 0120     		movs	r0, #1
 737 0246 F8E6     		b	.L19
 738              	.LVL92:
 739              	.L70:
 818:Middlewares/ST/STM32_USB_Host_Library/Core/Src/usbh_ctlreq.c ****       
 740              		.loc 1 818 0
 741 0248 0B23     		movs	r3, #11
 742 024a 2376     		strb	r3, [r4, #24]
 821:Middlewares/ST/STM32_USB_Host_Library/Core/Src/usbh_ctlreq.c **** #endif      
 743              		.loc 1 821 0
 744 024c 0022     		movs	r2, #0
 745 024e 0321     		movs	r1, #3
 746 0250 D4F8C803 		ldr	r0, [r4, #968]
 747              	.LVL93:
 748 0254 FFF7FEFF 		bl	osMessagePut
 749              	.LVL94:
 582:Middlewares/ST/STM32_USB_Host_Library/Core/Src/usbh_ctlreq.c ****   USBH_URBStateTypeDef URB_Status = USBH_URB_IDLE;
 750              		.loc 1 582 0
 751 0258 0120     		movs	r0, #1
 752 025a EEE6     		b	.L19
 753              	.LVL95:
 754              	.L31:
 835:Middlewares/ST/STM32_USB_Host_Library/Core/Src/usbh_ctlreq.c ****     {
 755              		.loc 1 835 0
 756 025c 437E     		ldrb	r3, [r0, #25]	@ zero_extendqisi2
 757 025e 0133     		adds	r3, r3, #1
 758 0260 DBB2     		uxtb	r3, r3
 759 0262 4376     		strb	r3, [r0, #25]
 760 0264 022B     		cmp	r3, #2
 761 0266 07D9     		bls	.L71
 846:Middlewares/ST/STM32_USB_Host_Library/Core/Src/usbh_ctlreq.c ****       phost->Control.errorcount = 0;
 762              		.loc 1 846 0
ARM GAS  /tmp/cc5NuF1o.s 			page 31


 763 0268 D0F8C433 		ldr	r3, [r0, #964]
 764 026c 0621     		movs	r1, #6
 765 026e 9847     		blx	r3
 766              	.LVL96:
 847:Middlewares/ST/STM32_USB_Host_Library/Core/Src/usbh_ctlreq.c ****       USBH_ErrLog("Control error");
 767              		.loc 1 847 0
 768 0270 0023     		movs	r3, #0
 769 0272 6376     		strb	r3, [r4, #25]
 770              	.LVL97:
 849:Middlewares/ST/STM32_USB_Host_Library/Core/Src/usbh_ctlreq.c ****     }
 771              		.loc 1 849 0
 772 0274 0220     		movs	r0, #2
 773 0276 E0E6     		b	.L19
 774              	.LVL98:
 775              	.L71:
 838:Middlewares/ST/STM32_USB_Host_Library/Core/Src/usbh_ctlreq.c ****          
 776              		.loc 1 838 0
 777 0278 FFF7FEFF 		bl	USBH_LL_Stop
 778              	.LVL99:
 841:Middlewares/ST/STM32_USB_Host_Library/Core/Src/usbh_ctlreq.c ****       phost->RequestState = CMD_SEND;
 779              		.loc 1 841 0
 780 027c 0120     		movs	r0, #1
 781 027e 2076     		strb	r0, [r4, #24]
 842:Middlewares/ST/STM32_USB_Host_Library/Core/Src/usbh_ctlreq.c ****     }
 782              		.loc 1 842 0
 783 0280 A070     		strb	r0, [r4, #2]
 784 0282 DAE6     		b	.L19
 785              	.LVL100:
 786              	.L47:
 582:Middlewares/ST/STM32_USB_Host_Library/Core/Src/usbh_ctlreq.c ****   USBH_URBStateTypeDef URB_Status = USBH_URB_IDLE;
 787              		.loc 1 582 0
 788 0284 0120     		movs	r0, #1
 789              	.LVL101:
 790 0286 D8E6     		b	.L19
 791              		.cfi_endproc
 792              	.LFE158:
 794              		.section	.text.USBH_GetNextDesc,"ax",%progbits
 795              		.align	1
 796              		.global	USBH_GetNextDesc
 797              		.syntax unified
 798              		.thumb
 799              		.thumb_func
 800              		.fpu fpv5-sp-d16
 802              	USBH_GetNextDesc:
 803              	.LFB156:
 508:Middlewares/ST/STM32_USB_Host_Library/Core/Src/usbh_ctlreq.c ****   USBH_DescHeader_t  *pnext;
 804              		.loc 1 508 0
 805              		.cfi_startproc
 806              		@ args = 0, pretend = 0, frame = 0
 807              		@ frame_needed = 0, uses_anonymous_args = 0
 808              		@ link register save eliminated.
 809              	.LVL102:
 511:Middlewares/ST/STM32_USB_Host_Library/Core/Src/usbh_ctlreq.c ****   pnext = (USBH_DescHeader_t *)((uint8_t *)pbuf + \
 810              		.loc 1 511 0
 811 0000 0378     		ldrb	r3, [r0]	@ zero_extendqisi2
 812 0002 0A88     		ldrh	r2, [r1]
 813 0004 1344     		add	r3, r3, r2
ARM GAS  /tmp/cc5NuF1o.s 			page 32


 814 0006 0B80     		strh	r3, [r1]	@ movhi
 513:Middlewares/ST/STM32_USB_Host_Library/Core/Src/usbh_ctlreq.c ****  
 815              		.loc 1 513 0
 816 0008 0378     		ldrb	r3, [r0]	@ zero_extendqisi2
 817              	.LVL103:
 516:Middlewares/ST/STM32_USB_Host_Library/Core/Src/usbh_ctlreq.c **** 
 818              		.loc 1 516 0
 819 000a 1844     		add	r0, r0, r3
 820              	.LVL104:
 821 000c 7047     		bx	lr
 822              		.cfi_endproc
 823              	.LFE156:
 825              		.section	.text.USBH_ParseCfgDesc,"ax",%progbits
 826              		.align	1
 827              		.syntax unified
 828              		.thumb
 829              		.thumb_func
 830              		.fpu fpv5-sp-d16
 832              	USBH_ParseCfgDesc:
 833              	.LFB152:
 367:Middlewares/ST/STM32_USB_Host_Library/Core/Src/usbh_ctlreq.c ****   USBH_InterfaceDescTypeDef    *pif ;
 834              		.loc 1 367 0
 835              		.cfi_startproc
 836              		@ args = 0, pretend = 0, frame = 8
 837              		@ frame_needed = 0, uses_anonymous_args = 0
 838              	.LVL105:
 839 0000 2DE9F043 		push	{r4, r5, r6, r7, r8, r9, lr}
 840              	.LCFI8:
 841              		.cfi_def_cfa_offset 28
 842              		.cfi_offset 4, -28
 843              		.cfi_offset 5, -24
 844              		.cfi_offset 6, -20
 845              		.cfi_offset 7, -16
 846              		.cfi_offset 8, -12
 847              		.cfi_offset 9, -8
 848              		.cfi_offset 14, -4
 849 0004 83B0     		sub	sp, sp, #12
 850              	.LCFI9:
 851              		.cfi_def_cfa_offset 40
 852 0006 0C46     		mov	r4, r1
 853              	.LVL106:
 378:Middlewares/ST/STM32_USB_Host_Library/Core/Src/usbh_ctlreq.c ****   cfg_desc->bDescriptorType     = *(uint8_t  *) (buf + 1);
 854              		.loc 1 378 0
 855 0008 0B78     		ldrb	r3, [r1]	@ zero_extendqisi2
 856 000a 0370     		strb	r3, [r0]
 379:Middlewares/ST/STM32_USB_Host_Library/Core/Src/usbh_ctlreq.c ****   cfg_desc->wTotalLength        = LE16 (buf + 2);
 857              		.loc 1 379 0
 858 000c 4B78     		ldrb	r3, [r1, #1]	@ zero_extendqisi2
 859 000e 4370     		strb	r3, [r0, #1]
 380:Middlewares/ST/STM32_USB_Host_Library/Core/Src/usbh_ctlreq.c ****   cfg_desc->bNumInterfaces      = *(uint8_t  *) (buf + 4);
 860              		.loc 1 380 0
 861 0010 8B78     		ldrb	r3, [r1, #2]	@ zero_extendqisi2
 862 0012 C978     		ldrb	r1, [r1, #3]	@ zero_extendqisi2
 863              	.LVL107:
 864 0014 03EB0123 		add	r3, r3, r1, lsl #8
 865 0018 4380     		strh	r3, [r0, #2]	@ movhi
 381:Middlewares/ST/STM32_USB_Host_Library/Core/Src/usbh_ctlreq.c ****   cfg_desc->bConfigurationValue = *(uint8_t  *) (buf + 5);
ARM GAS  /tmp/cc5NuF1o.s 			page 33


 866              		.loc 1 381 0
 867 001a 2379     		ldrb	r3, [r4, #4]	@ zero_extendqisi2
 868 001c 0371     		strb	r3, [r0, #4]
 382:Middlewares/ST/STM32_USB_Host_Library/Core/Src/usbh_ctlreq.c ****   cfg_desc->iConfiguration      = *(uint8_t  *) (buf + 6);
 869              		.loc 1 382 0
 870 001e 6379     		ldrb	r3, [r4, #5]	@ zero_extendqisi2
 871 0020 4371     		strb	r3, [r0, #5]
 383:Middlewares/ST/STM32_USB_Host_Library/Core/Src/usbh_ctlreq.c ****   cfg_desc->bmAttributes        = *(uint8_t  *) (buf + 7);
 872              		.loc 1 383 0
 873 0022 A379     		ldrb	r3, [r4, #6]	@ zero_extendqisi2
 874 0024 8371     		strb	r3, [r0, #6]
 384:Middlewares/ST/STM32_USB_Host_Library/Core/Src/usbh_ctlreq.c ****   cfg_desc->bMaxPower           = *(uint8_t  *) (buf + 8);    
 875              		.loc 1 384 0
 876 0026 E379     		ldrb	r3, [r4, #7]	@ zero_extendqisi2
 877 0028 C371     		strb	r3, [r0, #7]
 385:Middlewares/ST/STM32_USB_Host_Library/Core/Src/usbh_ctlreq.c ****   
 878              		.loc 1 385 0
 879 002a 237A     		ldrb	r3, [r4, #8]	@ zero_extendqisi2
 880 002c 0372     		strb	r3, [r0, #8]
 388:Middlewares/ST/STM32_USB_Host_Library/Core/Src/usbh_ctlreq.c ****   {
 881              		.loc 1 388 0
 882 002e 092A     		cmp	r2, #9
 883 0030 47D9     		bls	.L73
 884 0032 0546     		mov	r5, r0
 390:Middlewares/ST/STM32_USB_Host_Library/Core/Src/usbh_ctlreq.c ****     pif = (USBH_InterfaceDescTypeDef *)0;
 885              		.loc 1 390 0
 886 0034 0923     		movs	r3, #9
 887 0036 ADF80630 		strh	r3, [sp, #6]	@ movhi
 888              	.LVL108:
 372:Middlewares/ST/STM32_USB_Host_Library/Core/Src/usbh_ctlreq.c ****   int8_t                        ep_ix = 0;  
 889              		.loc 1 372 0
 890 003a 0026     		movs	r6, #0
 891              	.LVL109:
 892              	.L76:
 394:Middlewares/ST/STM32_USB_Host_Library/Core/Src/usbh_ctlreq.c ****     {
 893              		.loc 1 394 0
 894 003c 012E     		cmp	r6, #1
 895 003e 40DC     		bgt	.L73
 394:Middlewares/ST/STM32_USB_Host_Library/Core/Src/usbh_ctlreq.c ****     {
 896              		.loc 1 394 0 is_stmt 0 discriminator 1
 897 0040 6A88     		ldrh	r2, [r5, #2]
 898 0042 BDF80630 		ldrh	r3, [sp, #6]
 899 0046 9A42     		cmp	r2, r3
 900 0048 3BD9     		bls	.L73
 396:Middlewares/ST/STM32_USB_Host_Library/Core/Src/usbh_ctlreq.c ****       if (pdesc->bDescriptorType   == USB_DESC_TYPE_INTERFACE) 
 901              		.loc 1 396 0 is_stmt 1
 902 004a 0DF10601 		add	r1, sp, #6
 903 004e 2046     		mov	r0, r4
 904 0050 FFF7FEFF 		bl	USBH_GetNextDesc
 905              	.LVL110:
 906 0054 0446     		mov	r4, r0
 907              	.LVL111:
 397:Middlewares/ST/STM32_USB_Host_Library/Core/Src/usbh_ctlreq.c ****       {
 908              		.loc 1 397 0
 909 0056 4378     		ldrb	r3, [r0, #1]	@ zero_extendqisi2
 910 0058 042B     		cmp	r3, #4
 911 005a EFD1     		bne	.L76
ARM GAS  /tmp/cc5NuF1o.s 			page 34


 399:Middlewares/ST/STM32_USB_Host_Library/Core/Src/usbh_ctlreq.c ****         USBH_ParseInterfaceDesc (pif, (uint8_t *)pdesc);            
 912              		.loc 1 399 0
 913 005c B146     		mov	r9, r6
 914 005e 1A20     		movs	r0, #26
 915              	.LVL112:
 916 0060 00FB06F0 		mul	r0, r0, r6
 917 0064 0830     		adds	r0, r0, #8
 918 0066 2844     		add	r0, r0, r5
 919              	.LVL113:
 400:Middlewares/ST/STM32_USB_Host_Library/Core/Src/usbh_ctlreq.c ****         
 920              		.loc 1 400 0
 921 0068 2146     		mov	r1, r4
 922 006a 0230     		adds	r0, r0, #2
 923              	.LVL114:
 924 006c FFF7FEFF 		bl	USBH_ParseInterfaceDesc
 925              	.LVL115:
 402:Middlewares/ST/STM32_USB_Host_Library/Core/Src/usbh_ctlreq.c ****         pep = (USBH_EpDescTypeDef *)0;        
 926              		.loc 1 402 0
 927 0070 0027     		movs	r7, #0
 928              	.LVL116:
 929              	.L77:
 404:Middlewares/ST/STM32_USB_Host_Library/Core/Src/usbh_ctlreq.c ****         {
 930              		.loc 1 404 0
 931 0072 B846     		mov	r8, r7
 932 0074 1A23     		movs	r3, #26
 933              	.LVL117:
 934 0076 03FB0953 		mla	r3, r3, r9, r5
 935              	.LVL118:
 936 007a 9B7B     		ldrb	r3, [r3, #14]	@ zero_extendqisi2
 937 007c 9F42     		cmp	r7, r3
 938 007e 1DDA     		bge	.L79
 404:Middlewares/ST/STM32_USB_Host_Library/Core/Src/usbh_ctlreq.c ****         {
 939              		.loc 1 404 0 is_stmt 0 discriminator 1
 940 0080 6A88     		ldrh	r2, [r5, #2]
 941 0082 BDF80630 		ldrh	r3, [sp, #6]
 942 0086 9A42     		cmp	r2, r3
 943 0088 18D9     		bls	.L79
 406:Middlewares/ST/STM32_USB_Host_Library/Core/Src/usbh_ctlreq.c ****           if (pdesc->bDescriptorType   == USB_DESC_TYPE_ENDPOINT) 
 944              		.loc 1 406 0 is_stmt 1
 945 008a 0DF10601 		add	r1, sp, #6
 946 008e 2046     		mov	r0, r4
 947 0090 FFF7FEFF 		bl	USBH_GetNextDesc
 948              	.LVL119:
 949 0094 0446     		mov	r4, r0
 950              	.LVL120:
 407:Middlewares/ST/STM32_USB_Host_Library/Core/Src/usbh_ctlreq.c ****           {  
 951              		.loc 1 407 0
 952 0096 4378     		ldrb	r3, [r0, #1]	@ zero_extendqisi2
 953 0098 052B     		cmp	r3, #5
 954 009a EAD1     		bne	.L77
 409:Middlewares/ST/STM32_USB_Host_Library/Core/Src/usbh_ctlreq.c ****             USBH_ParseEPDesc (pep, (uint8_t *)pdesc);
 955              		.loc 1 409 0
 956 009c 08F10108 		add	r8, r8, #1
 957 00a0 1A20     		movs	r0, #26
 958              	.LVL121:
 959 00a2 00FB09F0 		mul	r0, r0, r9
 960              	.LVL122:
ARM GAS  /tmp/cc5NuF1o.s 			page 35


 961 00a6 00EBC800 		add	r0, r0, r8, lsl #3
 962 00aa 0830     		adds	r0, r0, #8
 963 00ac 2844     		add	r0, r0, r5
 964              	.LVL123:
 410:Middlewares/ST/STM32_USB_Host_Library/Core/Src/usbh_ctlreq.c ****             ep_ix++;
 965              		.loc 1 410 0
 966 00ae 2146     		mov	r1, r4
 967 00b0 0430     		adds	r0, r0, #4
 968              	.LVL124:
 969 00b2 FFF7FEFF 		bl	USBH_ParseEPDesc
 970              	.LVL125:
 411:Middlewares/ST/STM32_USB_Host_Library/Core/Src/usbh_ctlreq.c ****           }
 971              		.loc 1 411 0
 972 00b6 0137     		adds	r7, r7, #1
 973              	.LVL126:
 974 00b8 7FB2     		sxtb	r7, r7
 975              	.LVL127:
 976 00ba DAE7     		b	.L77
 977              	.LVL128:
 978              	.L79:
 414:Middlewares/ST/STM32_USB_Host_Library/Core/Src/usbh_ctlreq.c ****       }
 979              		.loc 1 414 0
 980 00bc 0136     		adds	r6, r6, #1
 981              	.LVL129:
 982 00be 76B2     		sxtb	r6, r6
 983              	.LVL130:
 984 00c0 BCE7     		b	.L76
 985              	.LVL131:
 986              	.L73:
 418:Middlewares/ST/STM32_USB_Host_Library/Core/Src/usbh_ctlreq.c **** 
 987              		.loc 1 418 0
 988 00c2 03B0     		add	sp, sp, #12
 989              	.LCFI10:
 990              		.cfi_def_cfa_offset 28
 991              		@ sp needed
 992 00c4 BDE8F083 		pop	{r4, r5, r6, r7, r8, r9, pc}
 993              		.cfi_endproc
 994              	.LFE152:
 996              		.section	.text.USBH_CtlReq,"ax",%progbits
 997              		.align	1
 998              		.global	USBH_CtlReq
 999              		.syntax unified
 1000              		.thumb
 1001              		.thumb_func
 1002              		.fpu fpv5-sp-d16
 1004              	USBH_CtlReq:
 1005              	.LFB157:
 532:Middlewares/ST/STM32_USB_Host_Library/Core/Src/usbh_ctlreq.c ****   USBH_StatusTypeDef status;
 1006              		.loc 1 532 0
 1007              		.cfi_startproc
 1008              		@ args = 0, pretend = 0, frame = 0
 1009              		@ frame_needed = 0, uses_anonymous_args = 0
 1010              	.LVL132:
 1011 0000 38B5     		push	{r3, r4, r5, lr}
 1012              	.LCFI11:
 1013              		.cfi_def_cfa_offset 16
 1014              		.cfi_offset 3, -16
ARM GAS  /tmp/cc5NuF1o.s 			page 36


 1015              		.cfi_offset 4, -12
 1016              		.cfi_offset 5, -8
 1017              		.cfi_offset 14, -4
 1018 0002 0446     		mov	r4, r0
 1019              	.LVL133:
 536:Middlewares/ST/STM32_USB_Host_Library/Core/Src/usbh_ctlreq.c ****   {
 1020              		.loc 1 536 0
 1021 0004 8378     		ldrb	r3, [r0, #2]	@ zero_extendqisi2
 1022 0006 012B     		cmp	r3, #1
 1023 0008 03D0     		beq	.L85
 1024 000a 022B     		cmp	r3, #2
 1025 000c 0FD0     		beq	.L86
 534:Middlewares/ST/STM32_USB_Host_Library/Core/Src/usbh_ctlreq.c ****   
 1026              		.loc 1 534 0
 1027 000e 0125     		movs	r5, #1
 1028 0010 0BE0     		b	.L84
 1029              	.L85:
 540:Middlewares/ST/STM32_USB_Host_Library/Core/Src/usbh_ctlreq.c ****     phost->Control.length = length;
 1030              		.loc 1 540 0
 1031 0012 8160     		str	r1, [r0, #8]
 541:Middlewares/ST/STM32_USB_Host_Library/Core/Src/usbh_ctlreq.c ****     phost->Control.state = CTRL_SETUP;  
 1032              		.loc 1 541 0
 1033 0014 8281     		strh	r2, [r0, #12]	@ movhi
 542:Middlewares/ST/STM32_USB_Host_Library/Core/Src/usbh_ctlreq.c ****     phost->RequestState = CMD_WAIT;
 1034              		.loc 1 542 0
 1035 0016 0125     		movs	r5, #1
 1036 0018 0576     		strb	r5, [r0, #24]
 543:Middlewares/ST/STM32_USB_Host_Library/Core/Src/usbh_ctlreq.c ****     status = USBH_BUSY;
 1037              		.loc 1 543 0
 1038 001a 0223     		movs	r3, #2
 1039 001c 8370     		strb	r3, [r0, #2]
 546:Middlewares/ST/STM32_USB_Host_Library/Core/Src/usbh_ctlreq.c **** #endif      
 1040              		.loc 1 546 0
 1041 001e 0022     		movs	r2, #0
 1042              	.LVL134:
 1043 0020 0321     		movs	r1, #3
 1044              	.LVL135:
 1045 0022 D0F8C803 		ldr	r0, [r0, #968]
 1046              	.LVL136:
 1047 0026 FFF7FEFF 		bl	osMessagePut
 1048              	.LVL137:
 1049              	.L84:
 571:Middlewares/ST/STM32_USB_Host_Library/Core/Src/usbh_ctlreq.c **** 
 1050              		.loc 1 571 0
 1051 002a 2846     		mov	r0, r5
 1052 002c 38BD     		pop	{r3, r4, r5, pc}
 1053              	.LVL138:
 1054              	.L86:
 551:Middlewares/ST/STM32_USB_Host_Library/Core/Src/usbh_ctlreq.c ****      if (status == USBH_OK) 
 1055              		.loc 1 551 0
 1056 002e FFF7FEFF 		bl	USBH_HandleControl
 1057              	.LVL139:
 552:Middlewares/ST/STM32_USB_Host_Library/Core/Src/usbh_ctlreq.c ****     {
 1058              		.loc 1 552 0
 1059 0032 0546     		mov	r5, r0
 1060 0034 20B1     		cbz	r0, .L91
 559:Middlewares/ST/STM32_USB_Host_Library/Core/Src/usbh_ctlreq.c ****     {
ARM GAS  /tmp/cc5NuF1o.s 			page 37


 1061              		.loc 1 559 0
 1062 0036 0228     		cmp	r0, #2
 1063 0038 F7D1     		bne	.L84
 562:Middlewares/ST/STM32_USB_Host_Library/Core/Src/usbh_ctlreq.c ****       status = USBH_FAIL;
 1064              		.loc 1 562 0
 1065 003a 0122     		movs	r2, #1
 1066 003c A270     		strb	r2, [r4, #2]
 1067              	.LVL140:
 1068 003e F4E7     		b	.L84
 1069              	.LVL141:
 1070              	.L91:
 555:Middlewares/ST/STM32_USB_Host_Library/Core/Src/usbh_ctlreq.c ****       phost->Control.state =CTRL_IDLE;  
 1071              		.loc 1 555 0
 1072 0040 0122     		movs	r2, #1
 1073 0042 A270     		strb	r2, [r4, #2]
 556:Middlewares/ST/STM32_USB_Host_Library/Core/Src/usbh_ctlreq.c ****       status = USBH_OK;      
 1074              		.loc 1 556 0
 1075 0044 0022     		movs	r2, #0
 1076 0046 2276     		strb	r2, [r4, #24]
 1077              	.LVL142:
 1078 0048 EFE7     		b	.L84
 1079              		.cfi_endproc
 1080              	.LFE157:
 1082              		.section	.text.USBH_GetDescriptor,"ax",%progbits
 1083              		.align	1
 1084              		.global	USBH_GetDescriptor
 1085              		.syntax unified
 1086              		.thumb
 1087              		.thumb_func
 1088              		.fpu fpv5-sp-d16
 1090              	USBH_GetDescriptor:
 1091              	.LFB146:
 207:Middlewares/ST/STM32_USB_Host_Library/Core/Src/usbh_ctlreq.c ****   if(phost->RequestState == CMD_SEND)
 1092              		.loc 1 207 0
 1093              		.cfi_startproc
 1094              		@ args = 4, pretend = 0, frame = 0
 1095              		@ frame_needed = 0, uses_anonymous_args = 0
 1096              	.LVL143:
 1097 0000 38B5     		push	{r3, r4, r5, lr}
 1098              	.LCFI12:
 1099              		.cfi_def_cfa_offset 16
 1100              		.cfi_offset 3, -16
 1101              		.cfi_offset 4, -12
 1102              		.cfi_offset 5, -8
 1103              		.cfi_offset 14, -4
 1104 0002 BDF81050 		ldrh	r5, [sp, #16]
 208:Middlewares/ST/STM32_USB_Host_Library/Core/Src/usbh_ctlreq.c ****   {
 1105              		.loc 1 208 0
 1106 0006 8478     		ldrb	r4, [r0, #2]	@ zero_extendqisi2
 1107 0008 012C     		cmp	r4, #1
 1108 000a 04D0     		beq	.L97
 1109              	.LVL144:
 1110              	.L93:
 224:Middlewares/ST/STM32_USB_Host_Library/Core/Src/usbh_ctlreq.c **** }
 1111              		.loc 1 224 0
 1112 000c 2A46     		mov	r2, r5
 1113 000e 1946     		mov	r1, r3
ARM GAS  /tmp/cc5NuF1o.s 			page 38


 1114 0010 FFF7FEFF 		bl	USBH_CtlReq
 1115              	.LVL145:
 225:Middlewares/ST/STM32_USB_Host_Library/Core/Src/usbh_ctlreq.c **** 
 1116              		.loc 1 225 0
 1117 0014 38BD     		pop	{r3, r4, r5, pc}
 1118              	.LVL146:
 1119              	.L97:
 210:Middlewares/ST/STM32_USB_Host_Library/Core/Src/usbh_ctlreq.c ****     phost->Control.setup.b.bRequest = USB_REQ_GET_DESCRIPTOR;
 1120              		.loc 1 210 0
 1121 0016 61F07F04 		orn	r4, r1, #127
 1122 001a 0474     		strb	r4, [r0, #16]
 211:Middlewares/ST/STM32_USB_Host_Library/Core/Src/usbh_ctlreq.c ****     phost->Control.setup.b.wValue.w = value_idx;
 1123              		.loc 1 211 0
 1124 001c 0621     		movs	r1, #6
 1125              	.LVL147:
 1126 001e 4174     		strb	r1, [r0, #17]
 212:Middlewares/ST/STM32_USB_Host_Library/Core/Src/usbh_ctlreq.c ****     
 1127              		.loc 1 212 0
 1128 0020 4282     		strh	r2, [r0, #18]	@ movhi
 214:Middlewares/ST/STM32_USB_Host_Library/Core/Src/usbh_ctlreq.c ****     {
 1129              		.loc 1 214 0
 1130 0022 02F47F44 		and	r4, r2, #65280
 1131 0026 B4F5407F 		cmp	r4, #768
 1132 002a 03D0     		beq	.L98
 220:Middlewares/ST/STM32_USB_Host_Library/Core/Src/usbh_ctlreq.c ****     }
 1133              		.loc 1 220 0
 1134 002c 0022     		movs	r2, #0
 1135              	.LVL148:
 1136 002e 8282     		strh	r2, [r0, #20]	@ movhi
 1137              	.L95:
 222:Middlewares/ST/STM32_USB_Host_Library/Core/Src/usbh_ctlreq.c ****   }
 1138              		.loc 1 222 0
 1139 0030 C582     		strh	r5, [r0, #22]	@ movhi
 1140 0032 EBE7     		b	.L93
 1141              	.LVL149:
 1142              	.L98:
 216:Middlewares/ST/STM32_USB_Host_Library/Core/Src/usbh_ctlreq.c ****     }
 1143              		.loc 1 216 0
 1144 0034 40F20942 		movw	r2, #1033
 1145              	.LVL150:
 1146 0038 8282     		strh	r2, [r0, #20]	@ movhi
 1147 003a F9E7     		b	.L95
 1148              		.cfi_endproc
 1149              	.LFE146:
 1151              		.section	.text.USBH_Get_DevDesc,"ax",%progbits
 1152              		.align	1
 1153              		.global	USBH_Get_DevDesc
 1154              		.syntax unified
 1155              		.thumb
 1156              		.thumb_func
 1157              		.fpu fpv5-sp-d16
 1159              	USBH_Get_DevDesc:
 1160              	.LFB143:
 111:Middlewares/ST/STM32_USB_Host_Library/Core/Src/usbh_ctlreq.c ****   USBH_StatusTypeDef status;
 1161              		.loc 1 111 0
 1162              		.cfi_startproc
 1163              		@ args = 0, pretend = 0, frame = 0
ARM GAS  /tmp/cc5NuF1o.s 			page 39


 1164              		@ frame_needed = 0, uses_anonymous_args = 0
 1165              	.LVL151:
 1166 0000 F0B5     		push	{r4, r5, r6, r7, lr}
 1167              	.LCFI13:
 1168              		.cfi_def_cfa_offset 20
 1169              		.cfi_offset 4, -20
 1170              		.cfi_offset 5, -16
 1171              		.cfi_offset 6, -12
 1172              		.cfi_offset 7, -8
 1173              		.cfi_offset 14, -4
 1174 0002 83B0     		sub	sp, sp, #12
 1175              	.LCFI14:
 1176              		.cfi_def_cfa_offset 32
 1177 0004 0446     		mov	r4, r0
 117:Middlewares/ST/STM32_USB_Host_Library/Core/Src/usbh_ctlreq.c ****                                   length)) == USBH_OK)
 1178              		.loc 1 117 0
 1179 0006 00F58E75 		add	r5, r0, #284
 114:Middlewares/ST/STM32_USB_Host_Library/Core/Src/usbh_ctlreq.c ****                                   USB_REQ_RECIPIENT_DEVICE | USB_REQ_TYPE_STANDARD,                
 1180              		.loc 1 114 0
 1181 000a 0E46     		mov	r6, r1
 1182 000c 0091     		str	r1, [sp]
 1183 000e 2B46     		mov	r3, r5
 1184 0010 4FF48072 		mov	r2, #256
 1185 0014 0021     		movs	r1, #0
 1186              	.LVL152:
 1187 0016 FFF7FEFF 		bl	USBH_GetDescriptor
 1188              	.LVL153:
 1189 001a 0746     		mov	r7, r0
 1190 001c 10B1     		cbz	r0, .L102
 1191              	.LVL154:
 1192              	.L100:
 124:Middlewares/ST/STM32_USB_Host_Library/Core/Src/usbh_ctlreq.c **** 
 1193              		.loc 1 124 0
 1194 001e 3846     		mov	r0, r7
 1195 0020 03B0     		add	sp, sp, #12
 1196              	.LCFI15:
 1197              		.cfi_remember_state
 1198              		.cfi_def_cfa_offset 20
 1199              		@ sp needed
 1200 0022 F0BD     		pop	{r4, r5, r6, r7, pc}
 1201              	.LVL155:
 1202              	.L102:
 1203              	.LCFI16:
 1204              		.cfi_restore_state
 121:Middlewares/ST/STM32_USB_Host_Library/Core/Src/usbh_ctlreq.c ****   }
 1205              		.loc 1 121 0
 1206 0024 3246     		mov	r2, r6
 1207 0026 2946     		mov	r1, r5
 1208 0028 04F54870 		add	r0, r4, #800
 1209              	.LVL156:
 1210 002c FFF7FEFF 		bl	USBH_ParseDevDesc
 1211              	.LVL157:
 1212 0030 F5E7     		b	.L100
 1213              		.cfi_endproc
 1214              	.LFE143:
 1216              		.section	.text.USBH_Get_CfgDesc,"ax",%progbits
 1217              		.align	1
ARM GAS  /tmp/cc5NuF1o.s 			page 40


 1218              		.global	USBH_Get_CfgDesc
 1219              		.syntax unified
 1220              		.thumb
 1221              		.thumb_func
 1222              		.fpu fpv5-sp-d16
 1224              	USBH_Get_CfgDesc:
 1225              	.LFB144:
 138:Middlewares/ST/STM32_USB_Host_Library/Core/Src/usbh_ctlreq.c ****   USBH_StatusTypeDef status;
 1226              		.loc 1 138 0
 1227              		.cfi_startproc
 1228              		@ args = 0, pretend = 0, frame = 0
 1229              		@ frame_needed = 0, uses_anonymous_args = 0
 1230              	.LVL158:
 1231 0000 F0B5     		push	{r4, r5, r6, r7, lr}
 1232              	.LCFI17:
 1233              		.cfi_def_cfa_offset 20
 1234              		.cfi_offset 4, -20
 1235              		.cfi_offset 5, -16
 1236              		.cfi_offset 6, -12
 1237              		.cfi_offset 7, -8
 1238              		.cfi_offset 14, -4
 1239 0002 83B0     		sub	sp, sp, #12
 1240              	.LCFI18:
 1241              		.cfi_def_cfa_offset 32
 1242 0004 0446     		mov	r4, r0
 1243 0006 0E46     		mov	r6, r1
 142:Middlewares/ST/STM32_USB_Host_Library/Core/Src/usbh_ctlreq.c **** #else
 1244              		.loc 1 142 0
 1245 0008 00F11C05 		add	r5, r0, #28
 1246              	.LVL159:
 146:Middlewares/ST/STM32_USB_Host_Library/Core/Src/usbh_ctlreq.c ****                                   USB_REQ_RECIPIENT_DEVICE | USB_REQ_TYPE_STANDARD,                
 1247              		.loc 1 146 0
 1248 000c 0091     		str	r1, [sp]
 1249 000e 2B46     		mov	r3, r5
 1250 0010 4FF40072 		mov	r2, #512
 1251 0014 0021     		movs	r1, #0
 1252              	.LVL160:
 1253 0016 FFF7FEFF 		bl	USBH_GetDescriptor
 1254              	.LVL161:
 1255 001a 0746     		mov	r7, r0
 1256 001c 10B1     		cbz	r0, .L106
 1257              	.LVL162:
 1258              	.L104:
 160:Middlewares/ST/STM32_USB_Host_Library/Core/Src/usbh_ctlreq.c **** 
 1259              		.loc 1 160 0
 1260 001e 3846     		mov	r0, r7
 1261 0020 03B0     		add	sp, sp, #12
 1262              	.LCFI19:
 1263              		.cfi_remember_state
 1264              		.cfi_def_cfa_offset 20
 1265              		@ sp needed
 1266 0022 F0BD     		pop	{r4, r5, r6, r7, pc}
 1267              	.LVL163:
 1268              	.L106:
 1269              	.LCFI20:
 1270              		.cfi_restore_state
 154:Middlewares/ST/STM32_USB_Host_Library/Core/Src/usbh_ctlreq.c ****                        pData,
ARM GAS  /tmp/cc5NuF1o.s 			page 41


 1271              		.loc 1 154 0
 1272 0024 3246     		mov	r2, r6
 1273 0026 2946     		mov	r1, r5
 1274 0028 04F23230 		addw	r0, r4, #818
 1275              	.LVL164:
 1276 002c FFF7FEFF 		bl	USBH_ParseCfgDesc
 1277              	.LVL165:
 1278 0030 F5E7     		b	.L104
 1279              		.cfi_endproc
 1280              	.LFE144:
 1282              		.section	.text.USBH_Get_StringDesc,"ax",%progbits
 1283              		.align	1
 1284              		.global	USBH_Get_StringDesc
 1285              		.syntax unified
 1286              		.thumb
 1287              		.thumb_func
 1288              		.fpu fpv5-sp-d16
 1290              	USBH_Get_StringDesc:
 1291              	.LFB145:
 177:Middlewares/ST/STM32_USB_Host_Library/Core/Src/usbh_ctlreq.c ****   USBH_StatusTypeDef status;
 1292              		.loc 1 177 0
 1293              		.cfi_startproc
 1294              		@ args = 0, pretend = 0, frame = 0
 1295              		@ frame_needed = 0, uses_anonymous_args = 0
 1296              	.LVL166:
 1297 0000 F0B5     		push	{r4, r5, r6, r7, lr}
 1298              	.LCFI21:
 1299              		.cfi_def_cfa_offset 20
 1300              		.cfi_offset 4, -20
 1301              		.cfi_offset 5, -16
 1302              		.cfi_offset 6, -12
 1303              		.cfi_offset 7, -8
 1304              		.cfi_offset 14, -4
 1305 0002 83B0     		sub	sp, sp, #12
 1306              	.LCFI22:
 1307              		.cfi_def_cfa_offset 32
 1308 0004 1746     		mov	r7, r2
 1309 0006 1D46     		mov	r5, r3
 182:Middlewares/ST/STM32_USB_Host_Library/Core/Src/usbh_ctlreq.c ****                                   length)) == USBH_OK)
 1310              		.loc 1 182 0
 1311 0008 00F58E74 		add	r4, r0, #284
 179:Middlewares/ST/STM32_USB_Host_Library/Core/Src/usbh_ctlreq.c ****                                   USB_REQ_RECIPIENT_DEVICE | USB_REQ_TYPE_STANDARD,                
 1312              		.loc 1 179 0
 1313 000c 0093     		str	r3, [sp]
 1314 000e 2346     		mov	r3, r4
 1315              	.LVL167:
 1316 0010 41F44072 		orr	r2, r1, #768
 1317              	.LVL168:
 1318 0014 0021     		movs	r1, #0
 1319              	.LVL169:
 1320 0016 FFF7FEFF 		bl	USBH_GetDescriptor
 1321              	.LVL170:
 1322 001a 0646     		mov	r6, r0
 1323 001c 10B1     		cbz	r0, .L110
 1324              	.LVL171:
 1325              	.L108:
 189:Middlewares/ST/STM32_USB_Host_Library/Core/Src/usbh_ctlreq.c **** 
ARM GAS  /tmp/cc5NuF1o.s 			page 42


 1326              		.loc 1 189 0
 1327 001e 3046     		mov	r0, r6
 1328 0020 03B0     		add	sp, sp, #12
 1329              	.LCFI23:
 1330              		.cfi_remember_state
 1331              		.cfi_def_cfa_offset 20
 1332              		@ sp needed
 1333 0022 F0BD     		pop	{r4, r5, r6, r7, pc}
 1334              	.LVL172:
 1335              	.L110:
 1336              	.LCFI24:
 1337              		.cfi_restore_state
 186:Middlewares/ST/STM32_USB_Host_Library/Core/Src/usbh_ctlreq.c ****   }
 1338              		.loc 1 186 0
 1339 0024 2A46     		mov	r2, r5
 1340 0026 3946     		mov	r1, r7
 1341 0028 2046     		mov	r0, r4
 1342              	.LVL173:
 1343 002a FFF7FEFF 		bl	USBH_ParseStringDesc
 1344              	.LVL174:
 1345 002e F6E7     		b	.L108
 1346              		.cfi_endproc
 1347              	.LFE145:
 1349              		.section	.text.USBH_SetAddress,"ax",%progbits
 1350              		.align	1
 1351              		.global	USBH_SetAddress
 1352              		.syntax unified
 1353              		.thumb
 1354              		.thumb_func
 1355              		.fpu fpv5-sp-d16
 1357              	USBH_SetAddress:
 1358              	.LFB147:
 236:Middlewares/ST/STM32_USB_Host_Library/Core/Src/usbh_ctlreq.c ****   if(phost->RequestState == CMD_SEND)
 1359              		.loc 1 236 0
 1360              		.cfi_startproc
 1361              		@ args = 0, pretend = 0, frame = 0
 1362              		@ frame_needed = 0, uses_anonymous_args = 0
 1363              	.LVL175:
 1364 0000 08B5     		push	{r3, lr}
 1365              	.LCFI25:
 1366              		.cfi_def_cfa_offset 8
 1367              		.cfi_offset 3, -8
 1368              		.cfi_offset 14, -4
 237:Middlewares/ST/STM32_USB_Host_Library/Core/Src/usbh_ctlreq.c ****   {
 1369              		.loc 1 237 0
 1370 0002 8378     		ldrb	r3, [r0, #2]	@ zero_extendqisi2
 1371 0004 012B     		cmp	r3, #1
 1372 0006 04D0     		beq	.L114
 1373              	.L112:
 248:Middlewares/ST/STM32_USB_Host_Library/Core/Src/usbh_ctlreq.c **** }
 1374              		.loc 1 248 0
 1375 0008 0022     		movs	r2, #0
 1376 000a 1146     		mov	r1, r2
 1377              	.LVL176:
 1378 000c FFF7FEFF 		bl	USBH_CtlReq
 1379              	.LVL177:
 249:Middlewares/ST/STM32_USB_Host_Library/Core/Src/usbh_ctlreq.c **** 
ARM GAS  /tmp/cc5NuF1o.s 			page 43


 1380              		.loc 1 249 0
 1381 0010 08BD     		pop	{r3, pc}
 1382              	.LVL178:
 1383              	.L114:
 239:Middlewares/ST/STM32_USB_Host_Library/Core/Src/usbh_ctlreq.c ****       USB_REQ_TYPE_STANDARD;
 1384              		.loc 1 239 0
 1385 0012 0023     		movs	r3, #0
 1386 0014 0374     		strb	r3, [r0, #16]
 242:Middlewares/ST/STM32_USB_Host_Library/Core/Src/usbh_ctlreq.c ****     
 1387              		.loc 1 242 0
 1388 0016 0522     		movs	r2, #5
 1389 0018 4274     		strb	r2, [r0, #17]
 244:Middlewares/ST/STM32_USB_Host_Library/Core/Src/usbh_ctlreq.c ****     phost->Control.setup.b.wIndex.w = 0;
 1390              		.loc 1 244 0
 1391 001a 4182     		strh	r1, [r0, #18]	@ movhi
 245:Middlewares/ST/STM32_USB_Host_Library/Core/Src/usbh_ctlreq.c ****     phost->Control.setup.b.wLength.w = 0;
 1392              		.loc 1 245 0
 1393 001c 8382     		strh	r3, [r0, #20]	@ movhi
 246:Middlewares/ST/STM32_USB_Host_Library/Core/Src/usbh_ctlreq.c ****   }
 1394              		.loc 1 246 0
 1395 001e C382     		strh	r3, [r0, #22]	@ movhi
 1396 0020 F2E7     		b	.L112
 1397              		.cfi_endproc
 1398              	.LFE147:
 1400              		.section	.text.USBH_SetCfg,"ax",%progbits
 1401              		.align	1
 1402              		.global	USBH_SetCfg
 1403              		.syntax unified
 1404              		.thumb
 1405              		.thumb_func
 1406              		.fpu fpv5-sp-d16
 1408              	USBH_SetCfg:
 1409              	.LFB148:
 260:Middlewares/ST/STM32_USB_Host_Library/Core/Src/usbh_ctlreq.c ****   if(phost->RequestState == CMD_SEND)
 1410              		.loc 1 260 0
 1411              		.cfi_startproc
 1412              		@ args = 0, pretend = 0, frame = 0
 1413              		@ frame_needed = 0, uses_anonymous_args = 0
 1414              	.LVL179:
 1415 0000 08B5     		push	{r3, lr}
 1416              	.LCFI26:
 1417              		.cfi_def_cfa_offset 8
 1418              		.cfi_offset 3, -8
 1419              		.cfi_offset 14, -4
 261:Middlewares/ST/STM32_USB_Host_Library/Core/Src/usbh_ctlreq.c ****   {
 1420              		.loc 1 261 0
 1421 0002 8378     		ldrb	r3, [r0, #2]	@ zero_extendqisi2
 1422 0004 012B     		cmp	r3, #1
 1423 0006 04D0     		beq	.L118
 1424              	.L116:
 271:Middlewares/ST/STM32_USB_Host_Library/Core/Src/usbh_ctlreq.c **** }
 1425              		.loc 1 271 0
 1426 0008 0022     		movs	r2, #0
 1427 000a 1146     		mov	r1, r2
 1428              	.LVL180:
 1429 000c FFF7FEFF 		bl	USBH_CtlReq
 1430              	.LVL181:
ARM GAS  /tmp/cc5NuF1o.s 			page 44


 272:Middlewares/ST/STM32_USB_Host_Library/Core/Src/usbh_ctlreq.c **** 
 1431              		.loc 1 272 0
 1432 0010 08BD     		pop	{r3, pc}
 1433              	.LVL182:
 1434              	.L118:
 263:Middlewares/ST/STM32_USB_Host_Library/Core/Src/usbh_ctlreq.c ****       USB_REQ_TYPE_STANDARD;
 1435              		.loc 1 263 0
 1436 0012 0023     		movs	r3, #0
 1437 0014 0374     		strb	r3, [r0, #16]
 265:Middlewares/ST/STM32_USB_Host_Library/Core/Src/usbh_ctlreq.c ****     phost->Control.setup.b.wValue.w = cfg_idx;
 1438              		.loc 1 265 0
 1439 0016 0922     		movs	r2, #9
 1440 0018 4274     		strb	r2, [r0, #17]
 266:Middlewares/ST/STM32_USB_Host_Library/Core/Src/usbh_ctlreq.c ****     phost->Control.setup.b.wIndex.w = 0;
 1441              		.loc 1 266 0
 1442 001a 4182     		strh	r1, [r0, #18]	@ movhi
 267:Middlewares/ST/STM32_USB_Host_Library/Core/Src/usbh_ctlreq.c ****     phost->Control.setup.b.wLength.w = 0; 
 1443              		.loc 1 267 0
 1444 001c 8382     		strh	r3, [r0, #20]	@ movhi
 268:Middlewares/ST/STM32_USB_Host_Library/Core/Src/usbh_ctlreq.c ****   }
 1445              		.loc 1 268 0
 1446 001e C382     		strh	r3, [r0, #22]	@ movhi
 1447 0020 F2E7     		b	.L116
 1448              		.cfi_endproc
 1449              	.LFE148:
 1451              		.section	.text.USBH_SetInterface,"ax",%progbits
 1452              		.align	1
 1453              		.global	USBH_SetInterface
 1454              		.syntax unified
 1455              		.thumb
 1456              		.thumb_func
 1457              		.fpu fpv5-sp-d16
 1459              	USBH_SetInterface:
 1460              	.LFB149:
 283:Middlewares/ST/STM32_USB_Host_Library/Core/Src/usbh_ctlreq.c ****   
 1461              		.loc 1 283 0
 1462              		.cfi_startproc
 1463              		@ args = 0, pretend = 0, frame = 0
 1464              		@ frame_needed = 0, uses_anonymous_args = 0
 1465              	.LVL183:
 1466 0000 08B5     		push	{r3, lr}
 1467              	.LCFI27:
 1468              		.cfi_def_cfa_offset 8
 1469              		.cfi_offset 3, -8
 1470              		.cfi_offset 14, -4
 285:Middlewares/ST/STM32_USB_Host_Library/Core/Src/usbh_ctlreq.c ****   {
 1471              		.loc 1 285 0
 1472 0002 8378     		ldrb	r3, [r0, #2]	@ zero_extendqisi2
 1473 0004 012B     		cmp	r3, #1
 1474 0006 04D0     		beq	.L122
 1475              	.L120:
 295:Middlewares/ST/STM32_USB_Host_Library/Core/Src/usbh_ctlreq.c **** }
 1476              		.loc 1 295 0
 1477 0008 0022     		movs	r2, #0
 1478              	.LVL184:
 1479 000a 1146     		mov	r1, r2
 1480              	.LVL185:
ARM GAS  /tmp/cc5NuF1o.s 			page 45


 1481 000c FFF7FEFF 		bl	USBH_CtlReq
 1482              	.LVL186:
 296:Middlewares/ST/STM32_USB_Host_Library/Core/Src/usbh_ctlreq.c **** 
 1483              		.loc 1 296 0
 1484 0010 08BD     		pop	{r3, pc}
 1485              	.LVL187:
 1486              	.L122:
 287:Middlewares/ST/STM32_USB_Host_Library/Core/Src/usbh_ctlreq.c ****       USB_REQ_TYPE_STANDARD;
 1487              		.loc 1 287 0
 1488 0012 0374     		strb	r3, [r0, #16]
 290:Middlewares/ST/STM32_USB_Host_Library/Core/Src/usbh_ctlreq.c ****     phost->Control.setup.b.wValue.w = altSetting;
 1489              		.loc 1 290 0
 1490 0014 0B23     		movs	r3, #11
 1491 0016 4374     		strb	r3, [r0, #17]
 291:Middlewares/ST/STM32_USB_Host_Library/Core/Src/usbh_ctlreq.c ****     phost->Control.setup.b.wIndex.w = ep_num;
 1492              		.loc 1 291 0
 1493 0018 4282     		strh	r2, [r0, #18]	@ movhi
 292:Middlewares/ST/STM32_USB_Host_Library/Core/Src/usbh_ctlreq.c ****     phost->Control.setup.b.wLength.w = 0;           
 1494              		.loc 1 292 0
 1495 001a 8182     		strh	r1, [r0, #20]	@ movhi
 293:Middlewares/ST/STM32_USB_Host_Library/Core/Src/usbh_ctlreq.c ****   }
 1496              		.loc 1 293 0
 1497 001c 0023     		movs	r3, #0
 1498 001e C382     		strh	r3, [r0, #22]	@ movhi
 1499 0020 F2E7     		b	.L120
 1500              		.cfi_endproc
 1501              	.LFE149:
 1503              		.section	.text.USBH_ClrFeature,"ax",%progbits
 1504              		.align	1
 1505              		.global	USBH_ClrFeature
 1506              		.syntax unified
 1507              		.thumb
 1508              		.thumb_func
 1509              		.fpu fpv5-sp-d16
 1511              	USBH_ClrFeature:
 1512              	.LFB150:
 308:Middlewares/ST/STM32_USB_Host_Library/Core/Src/usbh_ctlreq.c ****   if(phost->RequestState == CMD_SEND)
 1513              		.loc 1 308 0
 1514              		.cfi_startproc
 1515              		@ args = 0, pretend = 0, frame = 0
 1516              		@ frame_needed = 0, uses_anonymous_args = 0
 1517              	.LVL188:
 1518 0000 08B5     		push	{r3, lr}
 1519              	.LCFI28:
 1520              		.cfi_def_cfa_offset 8
 1521              		.cfi_offset 3, -8
 1522              		.cfi_offset 14, -4
 309:Middlewares/ST/STM32_USB_Host_Library/Core/Src/usbh_ctlreq.c ****   {
 1523              		.loc 1 309 0
 1524 0002 8378     		ldrb	r3, [r0, #2]	@ zero_extendqisi2
 1525 0004 012B     		cmp	r3, #1
 1526 0006 04D0     		beq	.L126
 1527              	.L124:
 320:Middlewares/ST/STM32_USB_Host_Library/Core/Src/usbh_ctlreq.c **** }
 1528              		.loc 1 320 0
 1529 0008 0022     		movs	r2, #0
 1530 000a 1146     		mov	r1, r2
ARM GAS  /tmp/cc5NuF1o.s 			page 46


 1531              	.LVL189:
 1532 000c FFF7FEFF 		bl	USBH_CtlReq
 1533              	.LVL190:
 321:Middlewares/ST/STM32_USB_Host_Library/Core/Src/usbh_ctlreq.c **** 
 1534              		.loc 1 321 0
 1535 0010 08BD     		pop	{r3, pc}
 1536              	.LVL191:
 1537              	.L126:
 311:Middlewares/ST/STM32_USB_Host_Library/Core/Src/usbh_ctlreq.c ****       USB_REQ_RECIPIENT_ENDPOINT |
 1538              		.loc 1 311 0
 1539 0012 0223     		movs	r3, #2
 1540 0014 0374     		strb	r3, [r0, #16]
 315:Middlewares/ST/STM32_USB_Host_Library/Core/Src/usbh_ctlreq.c ****     phost->Control.setup.b.wValue.w = FEATURE_SELECTOR_ENDPOINT;
 1541              		.loc 1 315 0
 1542 0016 0123     		movs	r3, #1
 1543 0018 4374     		strb	r3, [r0, #17]
 316:Middlewares/ST/STM32_USB_Host_Library/Core/Src/usbh_ctlreq.c ****     phost->Control.setup.b.wIndex.w = ep_num;
 1544              		.loc 1 316 0
 1545 001a 0023     		movs	r3, #0
 1546 001c 4382     		strh	r3, [r0, #18]	@ movhi
 317:Middlewares/ST/STM32_USB_Host_Library/Core/Src/usbh_ctlreq.c ****     phost->Control.setup.b.wLength.w = 0;           
 1547              		.loc 1 317 0
 1548 001e 8182     		strh	r1, [r0, #20]	@ movhi
 318:Middlewares/ST/STM32_USB_Host_Library/Core/Src/usbh_ctlreq.c ****   }
 1549              		.loc 1 318 0
 1550 0020 C382     		strh	r3, [r0, #22]	@ movhi
 1551 0022 F1E7     		b	.L124
 1552              		.cfi_endproc
 1553              	.LFE150:
 1555              		.text
 1556              	.Letext0:
 1557              		.file 2 "/home/warranyu/opt/gcc-arm-none-eabi-7-2018-q2-update/arm-none-eabi/include/machine/_defa
 1558              		.file 3 "/home/warranyu/opt/gcc-arm-none-eabi-7-2018-q2-update/arm-none-eabi/include/sys/lock.h"
 1559              		.file 4 "/home/warranyu/opt/gcc-arm-none-eabi-7-2018-q2-update/arm-none-eabi/include/sys/_types.h"
 1560              		.file 5 "/home/warranyu/opt/gcc-arm-none-eabi-7-2018-q2-update/lib/gcc/arm-none-eabi/7.3.1/include
 1561              		.file 6 "/home/warranyu/opt/gcc-arm-none-eabi-7-2018-q2-update/arm-none-eabi/include/sys/reent.h"
 1562              		.file 7 "/home/warranyu/opt/gcc-arm-none-eabi-7-2018-q2-update/arm-none-eabi/include/sys/_stdint.h
 1563              		.file 8 "/home/warranyu/opt/gcc-arm-none-eabi-7-2018-q2-update/arm-none-eabi/include/stdlib.h"
 1564              		.file 9 "Drivers/CMSIS/Include/core_cm7.h"
 1565              		.file 10 "Drivers/CMSIS/Device/ST/STM32F7xx/Include/system_stm32f7xx.h"
 1566              		.file 11 "Middlewares/Third_Party/FreeRTOS/Source/include/task.h"
 1567              		.file 12 "Middlewares/Third_Party/FreeRTOS/Source/include/queue.h"
 1568              		.file 13 "Middlewares/Third_Party/FreeRTOS/Source/CMSIS_RTOS/cmsis_os.h"
 1569              		.file 14 "Middlewares/ST/STM32_USB_Host_Library/Core/Inc/usbh_def.h"
 1570              		.file 15 "Middlewares/ST/STM32_USB_Host_Library/Core/Inc/usbh_ctlreq.h"
 1571              		.file 16 "Middlewares/ST/STM32_USB_Host_Library/Core/Inc/usbh_ioreq.h"
 1572              		.file 17 "Middlewares/ST/STM32_USB_Host_Library/Core/Inc/usbh_core.h"
ARM GAS  /tmp/cc5NuF1o.s 			page 47

